ARM GAS  /tmp/ccEbr1hb.s 			page 1


   1              		.cpu cortex-m7
   2              		.eabi_attribute 28, 1
   3              		.eabi_attribute 20, 1
   4              		.eabi_attribute 21, 1
   5              		.eabi_attribute 23, 3
   6              		.eabi_attribute 24, 1
   7              		.eabi_attribute 25, 1
   8              		.eabi_attribute 26, 1
   9              		.eabi_attribute 30, 1
  10              		.eabi_attribute 34, 1
  11              		.eabi_attribute 18, 4
  12              		.file	"lv_tabview.c"
  13              		.text
  14              	.Ltext0:
  15              		.cfi_sections	.debug_frame
  16              		.section	.text.lv_tabview_destructor,"ax",%progbits
  17              		.align	1
  18              		.syntax unified
  19              		.thumb
  20              		.thumb_func
  21              		.fpu fpv5-d16
  23              	lv_tabview_destructor:
  24              	.LFB210:
  25              		.file 1 "Drivers/lvgl/lvgl/src/extra/widgets/tabview/lv_tabview.c"
   1:Drivers/lvgl/lvgl/src/extra/widgets/tabview/lv_tabview.c **** /**
   2:Drivers/lvgl/lvgl/src/extra/widgets/tabview/lv_tabview.c ****  * @file lv_tabview.c
   3:Drivers/lvgl/lvgl/src/extra/widgets/tabview/lv_tabview.c ****  *
   4:Drivers/lvgl/lvgl/src/extra/widgets/tabview/lv_tabview.c ****  */
   5:Drivers/lvgl/lvgl/src/extra/widgets/tabview/lv_tabview.c **** 
   6:Drivers/lvgl/lvgl/src/extra/widgets/tabview/lv_tabview.c **** /*********************
   7:Drivers/lvgl/lvgl/src/extra/widgets/tabview/lv_tabview.c ****  *      INCLUDES
   8:Drivers/lvgl/lvgl/src/extra/widgets/tabview/lv_tabview.c ****  *********************/
   9:Drivers/lvgl/lvgl/src/extra/widgets/tabview/lv_tabview.c **** #include "lv_tabview.h"
  10:Drivers/lvgl/lvgl/src/extra/widgets/tabview/lv_tabview.c **** #if LV_USE_TABVIEW
  11:Drivers/lvgl/lvgl/src/extra/widgets/tabview/lv_tabview.c **** 
  12:Drivers/lvgl/lvgl/src/extra/widgets/tabview/lv_tabview.c **** #include "../../../misc/lv_assert.h"
  13:Drivers/lvgl/lvgl/src/extra/widgets/tabview/lv_tabview.c **** 
  14:Drivers/lvgl/lvgl/src/extra/widgets/tabview/lv_tabview.c **** /*********************
  15:Drivers/lvgl/lvgl/src/extra/widgets/tabview/lv_tabview.c ****  *      DEFINES
  16:Drivers/lvgl/lvgl/src/extra/widgets/tabview/lv_tabview.c ****  *********************/
  17:Drivers/lvgl/lvgl/src/extra/widgets/tabview/lv_tabview.c **** #define MY_CLASS    &lv_tabview_class
  18:Drivers/lvgl/lvgl/src/extra/widgets/tabview/lv_tabview.c **** 
  19:Drivers/lvgl/lvgl/src/extra/widgets/tabview/lv_tabview.c **** /**********************
  20:Drivers/lvgl/lvgl/src/extra/widgets/tabview/lv_tabview.c ****  *      TYPEDEFS
  21:Drivers/lvgl/lvgl/src/extra/widgets/tabview/lv_tabview.c ****  **********************/
  22:Drivers/lvgl/lvgl/src/extra/widgets/tabview/lv_tabview.c **** 
  23:Drivers/lvgl/lvgl/src/extra/widgets/tabview/lv_tabview.c **** /**********************
  24:Drivers/lvgl/lvgl/src/extra/widgets/tabview/lv_tabview.c ****  *  STATIC PROTOTYPES
  25:Drivers/lvgl/lvgl/src/extra/widgets/tabview/lv_tabview.c ****  **********************/
  26:Drivers/lvgl/lvgl/src/extra/widgets/tabview/lv_tabview.c **** static void lv_tabview_constructor(const lv_obj_class_t * class_p, lv_obj_t * obj);
  27:Drivers/lvgl/lvgl/src/extra/widgets/tabview/lv_tabview.c **** static void lv_tabview_destructor(const lv_obj_class_t * class_p, lv_obj_t * obj);
  28:Drivers/lvgl/lvgl/src/extra/widgets/tabview/lv_tabview.c **** static void lv_tabview_event(const lv_obj_class_t * class_p, lv_event_t * e);
  29:Drivers/lvgl/lvgl/src/extra/widgets/tabview/lv_tabview.c **** static void btns_value_changed_event_cb(lv_event_t * e);
  30:Drivers/lvgl/lvgl/src/extra/widgets/tabview/lv_tabview.c **** static void cont_scroll_end_event_cb(lv_event_t * e);
  31:Drivers/lvgl/lvgl/src/extra/widgets/tabview/lv_tabview.c **** 
  32:Drivers/lvgl/lvgl/src/extra/widgets/tabview/lv_tabview.c **** /**********************
  33:Drivers/lvgl/lvgl/src/extra/widgets/tabview/lv_tabview.c ****  *  STATIC VARIABLES
ARM GAS  /tmp/ccEbr1hb.s 			page 2


  34:Drivers/lvgl/lvgl/src/extra/widgets/tabview/lv_tabview.c ****  **********************/
  35:Drivers/lvgl/lvgl/src/extra/widgets/tabview/lv_tabview.c **** const lv_obj_class_t lv_tabview_class = {
  36:Drivers/lvgl/lvgl/src/extra/widgets/tabview/lv_tabview.c ****     .constructor_cb = lv_tabview_constructor,
  37:Drivers/lvgl/lvgl/src/extra/widgets/tabview/lv_tabview.c ****     .destructor_cb = lv_tabview_destructor,
  38:Drivers/lvgl/lvgl/src/extra/widgets/tabview/lv_tabview.c ****     .event_cb = lv_tabview_event,
  39:Drivers/lvgl/lvgl/src/extra/widgets/tabview/lv_tabview.c ****     .width_def = LV_PCT(100),
  40:Drivers/lvgl/lvgl/src/extra/widgets/tabview/lv_tabview.c ****     .height_def = LV_PCT(100),
  41:Drivers/lvgl/lvgl/src/extra/widgets/tabview/lv_tabview.c ****     .base_class = &lv_obj_class,
  42:Drivers/lvgl/lvgl/src/extra/widgets/tabview/lv_tabview.c ****     .instance_size = sizeof(lv_tabview_t)
  43:Drivers/lvgl/lvgl/src/extra/widgets/tabview/lv_tabview.c **** };
  44:Drivers/lvgl/lvgl/src/extra/widgets/tabview/lv_tabview.c **** 
  45:Drivers/lvgl/lvgl/src/extra/widgets/tabview/lv_tabview.c **** static lv_dir_t tabpos_create;
  46:Drivers/lvgl/lvgl/src/extra/widgets/tabview/lv_tabview.c **** static lv_coord_t tabsize_create;
  47:Drivers/lvgl/lvgl/src/extra/widgets/tabview/lv_tabview.c **** 
  48:Drivers/lvgl/lvgl/src/extra/widgets/tabview/lv_tabview.c **** /**********************
  49:Drivers/lvgl/lvgl/src/extra/widgets/tabview/lv_tabview.c ****  *      MACROS
  50:Drivers/lvgl/lvgl/src/extra/widgets/tabview/lv_tabview.c ****  **********************/
  51:Drivers/lvgl/lvgl/src/extra/widgets/tabview/lv_tabview.c **** 
  52:Drivers/lvgl/lvgl/src/extra/widgets/tabview/lv_tabview.c **** /**********************
  53:Drivers/lvgl/lvgl/src/extra/widgets/tabview/lv_tabview.c ****  *   GLOBAL FUNCTIONS
  54:Drivers/lvgl/lvgl/src/extra/widgets/tabview/lv_tabview.c ****  **********************/
  55:Drivers/lvgl/lvgl/src/extra/widgets/tabview/lv_tabview.c **** 
  56:Drivers/lvgl/lvgl/src/extra/widgets/tabview/lv_tabview.c **** lv_obj_t * lv_tabview_create(lv_obj_t * parent, lv_dir_t tab_pos, lv_coord_t tab_size)
  57:Drivers/lvgl/lvgl/src/extra/widgets/tabview/lv_tabview.c **** {
  58:Drivers/lvgl/lvgl/src/extra/widgets/tabview/lv_tabview.c ****     LV_LOG_INFO("begin");
  59:Drivers/lvgl/lvgl/src/extra/widgets/tabview/lv_tabview.c ****     tabpos_create = tab_pos;
  60:Drivers/lvgl/lvgl/src/extra/widgets/tabview/lv_tabview.c ****     tabsize_create = tab_size;
  61:Drivers/lvgl/lvgl/src/extra/widgets/tabview/lv_tabview.c **** 
  62:Drivers/lvgl/lvgl/src/extra/widgets/tabview/lv_tabview.c ****     lv_obj_t * obj = lv_obj_class_create_obj(&lv_tabview_class, parent);
  63:Drivers/lvgl/lvgl/src/extra/widgets/tabview/lv_tabview.c ****     lv_obj_class_init_obj(obj);
  64:Drivers/lvgl/lvgl/src/extra/widgets/tabview/lv_tabview.c ****     return obj;
  65:Drivers/lvgl/lvgl/src/extra/widgets/tabview/lv_tabview.c **** }
  66:Drivers/lvgl/lvgl/src/extra/widgets/tabview/lv_tabview.c **** 
  67:Drivers/lvgl/lvgl/src/extra/widgets/tabview/lv_tabview.c **** lv_obj_t * lv_tabview_add_tab(lv_obj_t * obj, const char * name)
  68:Drivers/lvgl/lvgl/src/extra/widgets/tabview/lv_tabview.c **** {
  69:Drivers/lvgl/lvgl/src/extra/widgets/tabview/lv_tabview.c ****     LV_ASSERT_OBJ(obj, MY_CLASS);
  70:Drivers/lvgl/lvgl/src/extra/widgets/tabview/lv_tabview.c ****     lv_tabview_t * tabview = (lv_tabview_t *)obj;
  71:Drivers/lvgl/lvgl/src/extra/widgets/tabview/lv_tabview.c ****     lv_obj_t * cont = lv_tabview_get_content(obj);
  72:Drivers/lvgl/lvgl/src/extra/widgets/tabview/lv_tabview.c **** 
  73:Drivers/lvgl/lvgl/src/extra/widgets/tabview/lv_tabview.c ****     lv_obj_t * page = lv_obj_create(cont);
  74:Drivers/lvgl/lvgl/src/extra/widgets/tabview/lv_tabview.c ****     lv_obj_set_size(page, LV_PCT(100), LV_PCT(100));
  75:Drivers/lvgl/lvgl/src/extra/widgets/tabview/lv_tabview.c ****     lv_obj_clear_flag(page, LV_OBJ_FLAG_CLICK_FOCUSABLE);
  76:Drivers/lvgl/lvgl/src/extra/widgets/tabview/lv_tabview.c ****     uint32_t tab_id = lv_obj_get_child_cnt(cont);
  77:Drivers/lvgl/lvgl/src/extra/widgets/tabview/lv_tabview.c **** 
  78:Drivers/lvgl/lvgl/src/extra/widgets/tabview/lv_tabview.c ****     lv_obj_t * btns = lv_tabview_get_tab_btns(obj);
  79:Drivers/lvgl/lvgl/src/extra/widgets/tabview/lv_tabview.c **** 
  80:Drivers/lvgl/lvgl/src/extra/widgets/tabview/lv_tabview.c ****     char ** old_map = tabview->map;
  81:Drivers/lvgl/lvgl/src/extra/widgets/tabview/lv_tabview.c ****     char ** new_map;
  82:Drivers/lvgl/lvgl/src/extra/widgets/tabview/lv_tabview.c **** 
  83:Drivers/lvgl/lvgl/src/extra/widgets/tabview/lv_tabview.c ****     /*top or bottom dir*/
  84:Drivers/lvgl/lvgl/src/extra/widgets/tabview/lv_tabview.c ****     if(tabview->tab_pos & LV_DIR_VER) {
  85:Drivers/lvgl/lvgl/src/extra/widgets/tabview/lv_tabview.c ****         new_map = lv_mem_alloc((tab_id + 1) * sizeof(const char *));
  86:Drivers/lvgl/lvgl/src/extra/widgets/tabview/lv_tabview.c ****         lv_memcpy_small(new_map, old_map, sizeof(const char *) * (tab_id - 1));
  87:Drivers/lvgl/lvgl/src/extra/widgets/tabview/lv_tabview.c ****         new_map[tab_id - 1] = lv_mem_alloc(strlen(name) + 1);
  88:Drivers/lvgl/lvgl/src/extra/widgets/tabview/lv_tabview.c ****         strcpy((char *)new_map[tab_id - 1], name);
  89:Drivers/lvgl/lvgl/src/extra/widgets/tabview/lv_tabview.c ****         new_map[tab_id] = "";
  90:Drivers/lvgl/lvgl/src/extra/widgets/tabview/lv_tabview.c ****     }
ARM GAS  /tmp/ccEbr1hb.s 			page 3


  91:Drivers/lvgl/lvgl/src/extra/widgets/tabview/lv_tabview.c ****     /*left or right dir*/
  92:Drivers/lvgl/lvgl/src/extra/widgets/tabview/lv_tabview.c ****     else {
  93:Drivers/lvgl/lvgl/src/extra/widgets/tabview/lv_tabview.c ****         new_map = lv_mem_alloc((tab_id * 2) * sizeof(const char *));
  94:Drivers/lvgl/lvgl/src/extra/widgets/tabview/lv_tabview.c ****         lv_memcpy_small(new_map, old_map, sizeof(const char *) * (tab_id - 1) * 2);
  95:Drivers/lvgl/lvgl/src/extra/widgets/tabview/lv_tabview.c ****         if(tabview->tab_cnt == 0) {
  96:Drivers/lvgl/lvgl/src/extra/widgets/tabview/lv_tabview.c ****             new_map[0] = lv_mem_alloc(strlen(name) + 1);
  97:Drivers/lvgl/lvgl/src/extra/widgets/tabview/lv_tabview.c ****             strcpy((char *)new_map[0], name);
  98:Drivers/lvgl/lvgl/src/extra/widgets/tabview/lv_tabview.c ****             new_map[1] = "";
  99:Drivers/lvgl/lvgl/src/extra/widgets/tabview/lv_tabview.c ****         }
 100:Drivers/lvgl/lvgl/src/extra/widgets/tabview/lv_tabview.c ****         else {
 101:Drivers/lvgl/lvgl/src/extra/widgets/tabview/lv_tabview.c ****             new_map[tab_id * 2 - 3] = "\n";
 102:Drivers/lvgl/lvgl/src/extra/widgets/tabview/lv_tabview.c ****             new_map[tab_id * 2 - 2] = lv_mem_alloc(strlen(name) + 1);
 103:Drivers/lvgl/lvgl/src/extra/widgets/tabview/lv_tabview.c ****             new_map[tab_id * 2 - 1] = "";
 104:Drivers/lvgl/lvgl/src/extra/widgets/tabview/lv_tabview.c ****             strcpy((char *)new_map[(tab_id * 2) - 2], name);
 105:Drivers/lvgl/lvgl/src/extra/widgets/tabview/lv_tabview.c ****         }
 106:Drivers/lvgl/lvgl/src/extra/widgets/tabview/lv_tabview.c ****     }
 107:Drivers/lvgl/lvgl/src/extra/widgets/tabview/lv_tabview.c ****     tabview->map = new_map;
 108:Drivers/lvgl/lvgl/src/extra/widgets/tabview/lv_tabview.c ****     lv_btnmatrix_set_map(btns, (const char **)new_map);
 109:Drivers/lvgl/lvgl/src/extra/widgets/tabview/lv_tabview.c ****     lv_mem_free(old_map);
 110:Drivers/lvgl/lvgl/src/extra/widgets/tabview/lv_tabview.c **** 
 111:Drivers/lvgl/lvgl/src/extra/widgets/tabview/lv_tabview.c ****     lv_btnmatrix_set_btn_ctrl_all(btns, LV_BTNMATRIX_CTRL_CHECKABLE | LV_BTNMATRIX_CTRL_CLICK_TRIG 
 112:Drivers/lvgl/lvgl/src/extra/widgets/tabview/lv_tabview.c ****                                   LV_BTNMATRIX_CTRL_NO_REPEAT);
 113:Drivers/lvgl/lvgl/src/extra/widgets/tabview/lv_tabview.c **** 
 114:Drivers/lvgl/lvgl/src/extra/widgets/tabview/lv_tabview.c ****     tabview->tab_cnt++;
 115:Drivers/lvgl/lvgl/src/extra/widgets/tabview/lv_tabview.c ****     if(tabview->tab_cnt == 1) {
 116:Drivers/lvgl/lvgl/src/extra/widgets/tabview/lv_tabview.c ****         lv_tabview_set_act(obj, 0, LV_ANIM_OFF);
 117:Drivers/lvgl/lvgl/src/extra/widgets/tabview/lv_tabview.c ****     }
 118:Drivers/lvgl/lvgl/src/extra/widgets/tabview/lv_tabview.c **** 
 119:Drivers/lvgl/lvgl/src/extra/widgets/tabview/lv_tabview.c ****     lv_btnmatrix_set_btn_ctrl(btns, tabview->tab_cur, LV_BTNMATRIX_CTRL_CHECKED);
 120:Drivers/lvgl/lvgl/src/extra/widgets/tabview/lv_tabview.c **** 
 121:Drivers/lvgl/lvgl/src/extra/widgets/tabview/lv_tabview.c ****     return page;
 122:Drivers/lvgl/lvgl/src/extra/widgets/tabview/lv_tabview.c **** }
 123:Drivers/lvgl/lvgl/src/extra/widgets/tabview/lv_tabview.c **** 
 124:Drivers/lvgl/lvgl/src/extra/widgets/tabview/lv_tabview.c **** void lv_tabview_rename_tab(lv_obj_t * obj, uint32_t id, const char * new_name)
 125:Drivers/lvgl/lvgl/src/extra/widgets/tabview/lv_tabview.c **** {
 126:Drivers/lvgl/lvgl/src/extra/widgets/tabview/lv_tabview.c ****     LV_ASSERT_OBJ(obj, MY_CLASS);
 127:Drivers/lvgl/lvgl/src/extra/widgets/tabview/lv_tabview.c ****     lv_tabview_t * tabview = (lv_tabview_t *)obj;
 128:Drivers/lvgl/lvgl/src/extra/widgets/tabview/lv_tabview.c **** 
 129:Drivers/lvgl/lvgl/src/extra/widgets/tabview/lv_tabview.c ****     if(id >= tabview->tab_cnt) return;
 130:Drivers/lvgl/lvgl/src/extra/widgets/tabview/lv_tabview.c ****     if(tabview->tab_pos & LV_DIR_HOR) id *= 2;
 131:Drivers/lvgl/lvgl/src/extra/widgets/tabview/lv_tabview.c **** 
 132:Drivers/lvgl/lvgl/src/extra/widgets/tabview/lv_tabview.c ****     lv_mem_free(tabview->map[id]);
 133:Drivers/lvgl/lvgl/src/extra/widgets/tabview/lv_tabview.c ****     tabview->map[id] = lv_mem_alloc(strlen(new_name) + 1);
 134:Drivers/lvgl/lvgl/src/extra/widgets/tabview/lv_tabview.c ****     strcpy(tabview->map[id], new_name);
 135:Drivers/lvgl/lvgl/src/extra/widgets/tabview/lv_tabview.c ****     lv_obj_invalidate(obj);
 136:Drivers/lvgl/lvgl/src/extra/widgets/tabview/lv_tabview.c **** }
 137:Drivers/lvgl/lvgl/src/extra/widgets/tabview/lv_tabview.c **** 
 138:Drivers/lvgl/lvgl/src/extra/widgets/tabview/lv_tabview.c **** void lv_tabview_set_act(lv_obj_t * obj, uint32_t id, lv_anim_enable_t anim_en)
 139:Drivers/lvgl/lvgl/src/extra/widgets/tabview/lv_tabview.c **** {
 140:Drivers/lvgl/lvgl/src/extra/widgets/tabview/lv_tabview.c ****     LV_ASSERT_OBJ(obj, MY_CLASS);
 141:Drivers/lvgl/lvgl/src/extra/widgets/tabview/lv_tabview.c ****     lv_tabview_t * tabview = (lv_tabview_t *)obj;
 142:Drivers/lvgl/lvgl/src/extra/widgets/tabview/lv_tabview.c **** 
 143:Drivers/lvgl/lvgl/src/extra/widgets/tabview/lv_tabview.c ****     if(id >= tabview->tab_cnt) {
 144:Drivers/lvgl/lvgl/src/extra/widgets/tabview/lv_tabview.c ****         id = tabview->tab_cnt - 1;
 145:Drivers/lvgl/lvgl/src/extra/widgets/tabview/lv_tabview.c ****     }
 146:Drivers/lvgl/lvgl/src/extra/widgets/tabview/lv_tabview.c **** 
 147:Drivers/lvgl/lvgl/src/extra/widgets/tabview/lv_tabview.c ****     /*To be sure lv_obj_get_content_width will return valid value*/
ARM GAS  /tmp/ccEbr1hb.s 			page 4


 148:Drivers/lvgl/lvgl/src/extra/widgets/tabview/lv_tabview.c ****     lv_obj_update_layout(obj);
 149:Drivers/lvgl/lvgl/src/extra/widgets/tabview/lv_tabview.c **** 
 150:Drivers/lvgl/lvgl/src/extra/widgets/tabview/lv_tabview.c ****     lv_obj_t * cont = lv_tabview_get_content(obj);
 151:Drivers/lvgl/lvgl/src/extra/widgets/tabview/lv_tabview.c ****     if(cont == NULL) return;
 152:Drivers/lvgl/lvgl/src/extra/widgets/tabview/lv_tabview.c **** 
 153:Drivers/lvgl/lvgl/src/extra/widgets/tabview/lv_tabview.c ****     if((tabview->tab_pos & LV_DIR_VER) != 0) {
 154:Drivers/lvgl/lvgl/src/extra/widgets/tabview/lv_tabview.c ****         lv_coord_t gap = lv_obj_get_style_pad_column(cont, LV_PART_MAIN);
 155:Drivers/lvgl/lvgl/src/extra/widgets/tabview/lv_tabview.c ****         lv_coord_t w = lv_obj_get_content_width(cont);
 156:Drivers/lvgl/lvgl/src/extra/widgets/tabview/lv_tabview.c ****         if(lv_obj_get_style_base_dir(obj, LV_PART_MAIN) != LV_BASE_DIR_RTL) {
 157:Drivers/lvgl/lvgl/src/extra/widgets/tabview/lv_tabview.c ****             lv_obj_scroll_to_x(cont, id * (gap + w), anim_en);
 158:Drivers/lvgl/lvgl/src/extra/widgets/tabview/lv_tabview.c ****         }
 159:Drivers/lvgl/lvgl/src/extra/widgets/tabview/lv_tabview.c ****         else {
 160:Drivers/lvgl/lvgl/src/extra/widgets/tabview/lv_tabview.c ****             int32_t id_rtl = -(int32_t)id;
 161:Drivers/lvgl/lvgl/src/extra/widgets/tabview/lv_tabview.c ****             lv_obj_scroll_to_x(cont, (gap + w) * id_rtl, anim_en);
 162:Drivers/lvgl/lvgl/src/extra/widgets/tabview/lv_tabview.c ****         }
 163:Drivers/lvgl/lvgl/src/extra/widgets/tabview/lv_tabview.c ****     }
 164:Drivers/lvgl/lvgl/src/extra/widgets/tabview/lv_tabview.c ****     else {
 165:Drivers/lvgl/lvgl/src/extra/widgets/tabview/lv_tabview.c ****         lv_coord_t gap = lv_obj_get_style_pad_row(cont, LV_PART_MAIN);
 166:Drivers/lvgl/lvgl/src/extra/widgets/tabview/lv_tabview.c ****         lv_coord_t h = lv_obj_get_content_height(cont);
 167:Drivers/lvgl/lvgl/src/extra/widgets/tabview/lv_tabview.c ****         lv_obj_scroll_to_y(cont, id * (gap + h), anim_en);
 168:Drivers/lvgl/lvgl/src/extra/widgets/tabview/lv_tabview.c ****     }
 169:Drivers/lvgl/lvgl/src/extra/widgets/tabview/lv_tabview.c **** 
 170:Drivers/lvgl/lvgl/src/extra/widgets/tabview/lv_tabview.c ****     lv_obj_t * btns = lv_tabview_get_tab_btns(obj);
 171:Drivers/lvgl/lvgl/src/extra/widgets/tabview/lv_tabview.c ****     lv_btnmatrix_set_btn_ctrl(btns, id, LV_BTNMATRIX_CTRL_CHECKED);
 172:Drivers/lvgl/lvgl/src/extra/widgets/tabview/lv_tabview.c ****     tabview->tab_cur = id;
 173:Drivers/lvgl/lvgl/src/extra/widgets/tabview/lv_tabview.c **** }
 174:Drivers/lvgl/lvgl/src/extra/widgets/tabview/lv_tabview.c **** 
 175:Drivers/lvgl/lvgl/src/extra/widgets/tabview/lv_tabview.c **** uint16_t lv_tabview_get_tab_act(lv_obj_t * obj)
 176:Drivers/lvgl/lvgl/src/extra/widgets/tabview/lv_tabview.c **** {
 177:Drivers/lvgl/lvgl/src/extra/widgets/tabview/lv_tabview.c ****     LV_ASSERT_OBJ(obj, MY_CLASS);
 178:Drivers/lvgl/lvgl/src/extra/widgets/tabview/lv_tabview.c ****     lv_tabview_t * tabview = (lv_tabview_t *)obj;
 179:Drivers/lvgl/lvgl/src/extra/widgets/tabview/lv_tabview.c ****     return tabview->tab_cur;
 180:Drivers/lvgl/lvgl/src/extra/widgets/tabview/lv_tabview.c **** }
 181:Drivers/lvgl/lvgl/src/extra/widgets/tabview/lv_tabview.c **** 
 182:Drivers/lvgl/lvgl/src/extra/widgets/tabview/lv_tabview.c **** lv_obj_t * lv_tabview_get_content(lv_obj_t * tv)
 183:Drivers/lvgl/lvgl/src/extra/widgets/tabview/lv_tabview.c **** {
 184:Drivers/lvgl/lvgl/src/extra/widgets/tabview/lv_tabview.c ****     return lv_obj_get_child(tv, 1);
 185:Drivers/lvgl/lvgl/src/extra/widgets/tabview/lv_tabview.c **** }
 186:Drivers/lvgl/lvgl/src/extra/widgets/tabview/lv_tabview.c **** 
 187:Drivers/lvgl/lvgl/src/extra/widgets/tabview/lv_tabview.c **** lv_obj_t * lv_tabview_get_tab_btns(lv_obj_t * tv)
 188:Drivers/lvgl/lvgl/src/extra/widgets/tabview/lv_tabview.c **** {
 189:Drivers/lvgl/lvgl/src/extra/widgets/tabview/lv_tabview.c ****     return lv_obj_get_child(tv, 0);
 190:Drivers/lvgl/lvgl/src/extra/widgets/tabview/lv_tabview.c **** }
 191:Drivers/lvgl/lvgl/src/extra/widgets/tabview/lv_tabview.c **** 
 192:Drivers/lvgl/lvgl/src/extra/widgets/tabview/lv_tabview.c **** /**********************
 193:Drivers/lvgl/lvgl/src/extra/widgets/tabview/lv_tabview.c ****  *   STATIC FUNCTIONS
 194:Drivers/lvgl/lvgl/src/extra/widgets/tabview/lv_tabview.c ****  **********************/
 195:Drivers/lvgl/lvgl/src/extra/widgets/tabview/lv_tabview.c **** 
 196:Drivers/lvgl/lvgl/src/extra/widgets/tabview/lv_tabview.c **** static void lv_tabview_constructor(const lv_obj_class_t * class_p, lv_obj_t * obj)
 197:Drivers/lvgl/lvgl/src/extra/widgets/tabview/lv_tabview.c **** {
 198:Drivers/lvgl/lvgl/src/extra/widgets/tabview/lv_tabview.c ****     LV_UNUSED(class_p);
 199:Drivers/lvgl/lvgl/src/extra/widgets/tabview/lv_tabview.c ****     lv_tabview_t * tabview = (lv_tabview_t *)obj;
 200:Drivers/lvgl/lvgl/src/extra/widgets/tabview/lv_tabview.c **** 
 201:Drivers/lvgl/lvgl/src/extra/widgets/tabview/lv_tabview.c ****     tabview->tab_pos = tabpos_create;
 202:Drivers/lvgl/lvgl/src/extra/widgets/tabview/lv_tabview.c **** 
 203:Drivers/lvgl/lvgl/src/extra/widgets/tabview/lv_tabview.c ****     switch(tabview->tab_pos) {
 204:Drivers/lvgl/lvgl/src/extra/widgets/tabview/lv_tabview.c ****         case LV_DIR_TOP:
ARM GAS  /tmp/ccEbr1hb.s 			page 5


 205:Drivers/lvgl/lvgl/src/extra/widgets/tabview/lv_tabview.c ****             lv_obj_set_flex_flow(obj, LV_FLEX_FLOW_COLUMN);
 206:Drivers/lvgl/lvgl/src/extra/widgets/tabview/lv_tabview.c ****             break;
 207:Drivers/lvgl/lvgl/src/extra/widgets/tabview/lv_tabview.c ****         case LV_DIR_BOTTOM:
 208:Drivers/lvgl/lvgl/src/extra/widgets/tabview/lv_tabview.c ****             lv_obj_set_flex_flow(obj, LV_FLEX_FLOW_COLUMN_REVERSE);
 209:Drivers/lvgl/lvgl/src/extra/widgets/tabview/lv_tabview.c ****             break;
 210:Drivers/lvgl/lvgl/src/extra/widgets/tabview/lv_tabview.c ****         case LV_DIR_LEFT:
 211:Drivers/lvgl/lvgl/src/extra/widgets/tabview/lv_tabview.c ****             lv_obj_set_flex_flow(obj, LV_FLEX_FLOW_ROW);
 212:Drivers/lvgl/lvgl/src/extra/widgets/tabview/lv_tabview.c ****             break;
 213:Drivers/lvgl/lvgl/src/extra/widgets/tabview/lv_tabview.c ****         case LV_DIR_RIGHT:
 214:Drivers/lvgl/lvgl/src/extra/widgets/tabview/lv_tabview.c ****             lv_obj_set_flex_flow(obj, LV_FLEX_FLOW_ROW_REVERSE);
 215:Drivers/lvgl/lvgl/src/extra/widgets/tabview/lv_tabview.c ****             break;
 216:Drivers/lvgl/lvgl/src/extra/widgets/tabview/lv_tabview.c ****     }
 217:Drivers/lvgl/lvgl/src/extra/widgets/tabview/lv_tabview.c **** 
 218:Drivers/lvgl/lvgl/src/extra/widgets/tabview/lv_tabview.c ****     lv_obj_set_size(obj, LV_PCT(100), LV_PCT(100));
 219:Drivers/lvgl/lvgl/src/extra/widgets/tabview/lv_tabview.c **** 
 220:Drivers/lvgl/lvgl/src/extra/widgets/tabview/lv_tabview.c ****     lv_obj_t * btnm;
 221:Drivers/lvgl/lvgl/src/extra/widgets/tabview/lv_tabview.c ****     lv_obj_t * cont;
 222:Drivers/lvgl/lvgl/src/extra/widgets/tabview/lv_tabview.c **** 
 223:Drivers/lvgl/lvgl/src/extra/widgets/tabview/lv_tabview.c ****     btnm = lv_btnmatrix_create(obj);
 224:Drivers/lvgl/lvgl/src/extra/widgets/tabview/lv_tabview.c ****     cont = lv_obj_create(obj);
 225:Drivers/lvgl/lvgl/src/extra/widgets/tabview/lv_tabview.c **** 
 226:Drivers/lvgl/lvgl/src/extra/widgets/tabview/lv_tabview.c ****     lv_btnmatrix_set_one_checked(btnm, true);
 227:Drivers/lvgl/lvgl/src/extra/widgets/tabview/lv_tabview.c ****     tabview->map = lv_mem_alloc(sizeof(const char *));
 228:Drivers/lvgl/lvgl/src/extra/widgets/tabview/lv_tabview.c ****     tabview->map[0] = "";
 229:Drivers/lvgl/lvgl/src/extra/widgets/tabview/lv_tabview.c ****     lv_btnmatrix_set_map(btnm, (const char **)tabview->map);
 230:Drivers/lvgl/lvgl/src/extra/widgets/tabview/lv_tabview.c ****     lv_obj_add_event_cb(btnm, btns_value_changed_event_cb, LV_EVENT_VALUE_CHANGED, NULL);
 231:Drivers/lvgl/lvgl/src/extra/widgets/tabview/lv_tabview.c ****     lv_obj_add_flag(btnm, LV_OBJ_FLAG_EVENT_BUBBLE);
 232:Drivers/lvgl/lvgl/src/extra/widgets/tabview/lv_tabview.c **** 
 233:Drivers/lvgl/lvgl/src/extra/widgets/tabview/lv_tabview.c ****     lv_obj_add_event_cb(cont, cont_scroll_end_event_cb, LV_EVENT_ALL, NULL);
 234:Drivers/lvgl/lvgl/src/extra/widgets/tabview/lv_tabview.c ****     lv_obj_set_scrollbar_mode(cont, LV_SCROLLBAR_MODE_OFF);
 235:Drivers/lvgl/lvgl/src/extra/widgets/tabview/lv_tabview.c **** 
 236:Drivers/lvgl/lvgl/src/extra/widgets/tabview/lv_tabview.c ****     switch(tabview->tab_pos) {
 237:Drivers/lvgl/lvgl/src/extra/widgets/tabview/lv_tabview.c ****         case LV_DIR_TOP:
 238:Drivers/lvgl/lvgl/src/extra/widgets/tabview/lv_tabview.c ****         case LV_DIR_BOTTOM:
 239:Drivers/lvgl/lvgl/src/extra/widgets/tabview/lv_tabview.c ****             lv_obj_set_size(btnm, LV_PCT(100), tabsize_create);
 240:Drivers/lvgl/lvgl/src/extra/widgets/tabview/lv_tabview.c ****             lv_obj_set_width(cont, LV_PCT(100));
 241:Drivers/lvgl/lvgl/src/extra/widgets/tabview/lv_tabview.c ****             lv_obj_set_flex_grow(cont, 1);
 242:Drivers/lvgl/lvgl/src/extra/widgets/tabview/lv_tabview.c ****             break;
 243:Drivers/lvgl/lvgl/src/extra/widgets/tabview/lv_tabview.c ****         case LV_DIR_LEFT:
 244:Drivers/lvgl/lvgl/src/extra/widgets/tabview/lv_tabview.c ****         case LV_DIR_RIGHT:
 245:Drivers/lvgl/lvgl/src/extra/widgets/tabview/lv_tabview.c ****             lv_obj_set_size(btnm, tabsize_create, LV_PCT(100));
 246:Drivers/lvgl/lvgl/src/extra/widgets/tabview/lv_tabview.c ****             lv_obj_set_height(cont, LV_PCT(100));
 247:Drivers/lvgl/lvgl/src/extra/widgets/tabview/lv_tabview.c ****             lv_obj_set_flex_grow(cont, 1);
 248:Drivers/lvgl/lvgl/src/extra/widgets/tabview/lv_tabview.c ****             break;
 249:Drivers/lvgl/lvgl/src/extra/widgets/tabview/lv_tabview.c ****     }
 250:Drivers/lvgl/lvgl/src/extra/widgets/tabview/lv_tabview.c **** 
 251:Drivers/lvgl/lvgl/src/extra/widgets/tabview/lv_tabview.c ****     lv_group_t * g = lv_group_get_default();
 252:Drivers/lvgl/lvgl/src/extra/widgets/tabview/lv_tabview.c ****     if(g) lv_group_add_obj(g, btnm);
 253:Drivers/lvgl/lvgl/src/extra/widgets/tabview/lv_tabview.c **** 
 254:Drivers/lvgl/lvgl/src/extra/widgets/tabview/lv_tabview.c ****     if((tabview->tab_pos & LV_DIR_VER) != 0) {
 255:Drivers/lvgl/lvgl/src/extra/widgets/tabview/lv_tabview.c ****         lv_obj_set_flex_flow(cont, LV_FLEX_FLOW_ROW);
 256:Drivers/lvgl/lvgl/src/extra/widgets/tabview/lv_tabview.c ****         lv_obj_set_scroll_snap_x(cont, LV_SCROLL_SNAP_CENTER);
 257:Drivers/lvgl/lvgl/src/extra/widgets/tabview/lv_tabview.c ****     }
 258:Drivers/lvgl/lvgl/src/extra/widgets/tabview/lv_tabview.c ****     else {
 259:Drivers/lvgl/lvgl/src/extra/widgets/tabview/lv_tabview.c ****         lv_obj_set_flex_flow(cont, LV_FLEX_FLOW_COLUMN);
 260:Drivers/lvgl/lvgl/src/extra/widgets/tabview/lv_tabview.c ****         lv_obj_set_scroll_snap_y(cont, LV_SCROLL_SNAP_CENTER);
 261:Drivers/lvgl/lvgl/src/extra/widgets/tabview/lv_tabview.c ****     }
ARM GAS  /tmp/ccEbr1hb.s 			page 6


 262:Drivers/lvgl/lvgl/src/extra/widgets/tabview/lv_tabview.c ****     lv_obj_add_flag(cont, LV_OBJ_FLAG_SCROLL_ONE);
 263:Drivers/lvgl/lvgl/src/extra/widgets/tabview/lv_tabview.c ****     lv_obj_clear_flag(cont, LV_OBJ_FLAG_SCROLL_ON_FOCUS);
 264:Drivers/lvgl/lvgl/src/extra/widgets/tabview/lv_tabview.c **** }
 265:Drivers/lvgl/lvgl/src/extra/widgets/tabview/lv_tabview.c **** 
 266:Drivers/lvgl/lvgl/src/extra/widgets/tabview/lv_tabview.c **** static void lv_tabview_destructor(const lv_obj_class_t * class_p, lv_obj_t * obj)
 267:Drivers/lvgl/lvgl/src/extra/widgets/tabview/lv_tabview.c **** {
  26              		.loc 1 267 0
  27              		.cfi_startproc
  28              		@ args = 0, pretend = 0, frame = 0
  29              		@ frame_needed = 0, uses_anonymous_args = 0
  30              	.LVL0:
  31 0000 38B5     		push	{r3, r4, r5, lr}
  32              	.LCFI0:
  33              		.cfi_def_cfa_offset 16
  34              		.cfi_offset 3, -16
  35              		.cfi_offset 4, -12
  36              		.cfi_offset 5, -8
  37              		.cfi_offset 14, -4
  38 0002 0C46     		mov	r4, r1
  39              	.LVL1:
 268:Drivers/lvgl/lvgl/src/extra/widgets/tabview/lv_tabview.c ****     LV_UNUSED(class_p);
 269:Drivers/lvgl/lvgl/src/extra/widgets/tabview/lv_tabview.c ****     lv_tabview_t * tabview = (lv_tabview_t *)obj;
 270:Drivers/lvgl/lvgl/src/extra/widgets/tabview/lv_tabview.c **** 
 271:Drivers/lvgl/lvgl/src/extra/widgets/tabview/lv_tabview.c ****     uint32_t i;
 272:Drivers/lvgl/lvgl/src/extra/widgets/tabview/lv_tabview.c ****     if(tabview->tab_pos & LV_DIR_VER) {
  40              		.loc 1 272 0
  41 0004 91F82C30 		ldrb	r3, [r1, #44]	@ zero_extendqisi2
  42 0008 13F00C0F 		tst	r3, #12
  43 000c 14D1     		bne	.L8
  44              	.LVL2:
  45              	.L3:
 273:Drivers/lvgl/lvgl/src/extra/widgets/tabview/lv_tabview.c ****         for(i = 0; i < tabview->tab_cnt; i++) {
 274:Drivers/lvgl/lvgl/src/extra/widgets/tabview/lv_tabview.c ****             lv_mem_free(tabview->map[i]);
 275:Drivers/lvgl/lvgl/src/extra/widgets/tabview/lv_tabview.c ****             tabview->map[i] = NULL;
 276:Drivers/lvgl/lvgl/src/extra/widgets/tabview/lv_tabview.c ****         }
 277:Drivers/lvgl/lvgl/src/extra/widgets/tabview/lv_tabview.c ****     }
 278:Drivers/lvgl/lvgl/src/extra/widgets/tabview/lv_tabview.c ****     if(tabview->tab_pos & LV_DIR_HOR) {
  46              		.loc 1 278 0
  47 000e 94F82C30 		ldrb	r3, [r4, #44]	@ zero_extendqisi2
  48 0012 13F0030F 		tst	r3, #3
  49 0016 1ED0     		beq	.L6
 279:Drivers/lvgl/lvgl/src/extra/widgets/tabview/lv_tabview.c ****         for(i = 0; i < tabview->tab_cnt; i++) {
  50              		.loc 1 279 0
  51 0018 0025     		movs	r5, #0
  52 001a 19E0     		b	.L5
  53              	.LVL3:
  54              	.L4:
 274:Drivers/lvgl/lvgl/src/extra/widgets/tabview/lv_tabview.c ****             tabview->map[i] = NULL;
  55              		.loc 1 274 0 discriminator 3
  56 001c 636A     		ldr	r3, [r4, #36]
  57 001e 53F82500 		ldr	r0, [r3, r5, lsl #2]
  58 0022 FFF7FEFF 		bl	lv_mem_free
  59              	.LVL4:
 275:Drivers/lvgl/lvgl/src/extra/widgets/tabview/lv_tabview.c ****         }
  60              		.loc 1 275 0 discriminator 3
  61 0026 636A     		ldr	r3, [r4, #36]
  62 0028 0022     		movs	r2, #0
ARM GAS  /tmp/ccEbr1hb.s 			page 7


  63 002a 43F82520 		str	r2, [r3, r5, lsl #2]
 273:Drivers/lvgl/lvgl/src/extra/widgets/tabview/lv_tabview.c ****             lv_mem_free(tabview->map[i]);
  64              		.loc 1 273 0 discriminator 3
  65 002e 0135     		adds	r5, r5, #1
  66              	.LVL5:
  67              	.L2:
 273:Drivers/lvgl/lvgl/src/extra/widgets/tabview/lv_tabview.c ****             lv_mem_free(tabview->map[i]);
  68              		.loc 1 273 0 is_stmt 0 discriminator 1
  69 0030 238D     		ldrh	r3, [r4, #40]
  70 0032 AB42     		cmp	r3, r5
  71 0034 F2D8     		bhi	.L4
  72 0036 EAE7     		b	.L3
  73              	.LVL6:
  74              	.L8:
 273:Drivers/lvgl/lvgl/src/extra/widgets/tabview/lv_tabview.c ****             lv_mem_free(tabview->map[i]);
  75              		.loc 1 273 0
  76 0038 0025     		movs	r5, #0
  77 003a F9E7     		b	.L2
  78              	.LVL7:
  79              	.L7:
 280:Drivers/lvgl/lvgl/src/extra/widgets/tabview/lv_tabview.c ****             lv_mem_free(tabview->map[i * 2]);
  80              		.loc 1 280 0 is_stmt 1 discriminator 3
  81 003c 636A     		ldr	r3, [r4, #36]
  82 003e 53F83500 		ldr	r0, [r3, r5, lsl #3]
  83 0042 FFF7FEFF 		bl	lv_mem_free
  84              	.LVL8:
 281:Drivers/lvgl/lvgl/src/extra/widgets/tabview/lv_tabview.c ****             tabview->map[i * 2] = NULL;
  85              		.loc 1 281 0 discriminator 3
  86 0046 636A     		ldr	r3, [r4, #36]
  87 0048 0022     		movs	r2, #0
  88 004a 43F83520 		str	r2, [r3, r5, lsl #3]
 279:Drivers/lvgl/lvgl/src/extra/widgets/tabview/lv_tabview.c ****             lv_mem_free(tabview->map[i * 2]);
  89              		.loc 1 279 0 discriminator 3
  90 004e 0135     		adds	r5, r5, #1
  91              	.LVL9:
  92              	.L5:
 279:Drivers/lvgl/lvgl/src/extra/widgets/tabview/lv_tabview.c ****             lv_mem_free(tabview->map[i * 2]);
  93              		.loc 1 279 0 is_stmt 0 discriminator 1
  94 0050 238D     		ldrh	r3, [r4, #40]
  95 0052 AB42     		cmp	r3, r5
  96 0054 F2D8     		bhi	.L7
  97              	.LVL10:
  98              	.L6:
 282:Drivers/lvgl/lvgl/src/extra/widgets/tabview/lv_tabview.c ****         }
 283:Drivers/lvgl/lvgl/src/extra/widgets/tabview/lv_tabview.c ****     }
 284:Drivers/lvgl/lvgl/src/extra/widgets/tabview/lv_tabview.c **** 
 285:Drivers/lvgl/lvgl/src/extra/widgets/tabview/lv_tabview.c **** 
 286:Drivers/lvgl/lvgl/src/extra/widgets/tabview/lv_tabview.c ****     lv_mem_free(tabview->map);
  99              		.loc 1 286 0 is_stmt 1
 100 0056 606A     		ldr	r0, [r4, #36]
 101 0058 FFF7FEFF 		bl	lv_mem_free
 102              	.LVL11:
 287:Drivers/lvgl/lvgl/src/extra/widgets/tabview/lv_tabview.c ****     tabview->map = NULL;
 103              		.loc 1 287 0
 104 005c 0023     		movs	r3, #0
 105 005e 6362     		str	r3, [r4, #36]
 288:Drivers/lvgl/lvgl/src/extra/widgets/tabview/lv_tabview.c **** }
ARM GAS  /tmp/ccEbr1hb.s 			page 8


 106              		.loc 1 288 0
 107 0060 38BD     		pop	{r3, r4, r5, pc}
 108              		.cfi_endproc
 109              	.LFE210:
 111              		.section	.text.lv_tabview_constructor,"ax",%progbits
 112              		.align	1
 113              		.syntax unified
 114              		.thumb
 115              		.thumb_func
 116              		.fpu fpv5-d16
 118              	lv_tabview_constructor:
 119              	.LFB209:
 197:Drivers/lvgl/lvgl/src/extra/widgets/tabview/lv_tabview.c ****     LV_UNUSED(class_p);
 120              		.loc 1 197 0
 121              		.cfi_startproc
 122              		@ args = 0, pretend = 0, frame = 0
 123              		@ frame_needed = 0, uses_anonymous_args = 0
 124              	.LVL12:
 125 0000 70B5     		push	{r4, r5, r6, lr}
 126              	.LCFI1:
 127              		.cfi_def_cfa_offset 16
 128              		.cfi_offset 4, -16
 129              		.cfi_offset 5, -12
 130              		.cfi_offset 6, -8
 131              		.cfi_offset 14, -4
 132 0002 0C46     		mov	r4, r1
 133              	.LVL13:
 201:Drivers/lvgl/lvgl/src/extra/widgets/tabview/lv_tabview.c **** 
 134              		.loc 1 201 0
 135 0004 524B     		ldr	r3, .L27
 136 0006 1B78     		ldrb	r3, [r3]	@ zero_extendqisi2
 137 0008 81F82C30 		strb	r3, [r1, #44]
 203:Drivers/lvgl/lvgl/src/extra/widgets/tabview/lv_tabview.c ****         case LV_DIR_TOP:
 138              		.loc 1 203 0
 139 000c 013B     		subs	r3, r3, #1
 140 000e 072B     		cmp	r3, #7
 141 0010 09D8     		bhi	.L12
 142 0012 DFE803F0 		tbb	[pc, r3]
 143              	.L14:
 144 0016 49       		.byte	(.L13-.L14)/2
 145 0017 4E       		.byte	(.L15-.L14)/2
 146 0018 08       		.byte	(.L12-.L14)/2
 147 0019 04       		.byte	(.L16-.L14)/2
 148 001a 08       		.byte	(.L12-.L14)/2
 149 001b 08       		.byte	(.L12-.L14)/2
 150 001c 08       		.byte	(.L12-.L14)/2
 151 001d 44       		.byte	(.L17-.L14)/2
 152              		.p2align 1
 153              	.L16:
 205:Drivers/lvgl/lvgl/src/extra/widgets/tabview/lv_tabview.c ****             break;
 154              		.loc 1 205 0
 155 001e 0121     		movs	r1, #1
 156              	.LVL14:
 157 0020 2046     		mov	r0, r4
 158              	.LVL15:
 159 0022 FFF7FEFF 		bl	lv_obj_set_flex_flow
 160              	.LVL16:
ARM GAS  /tmp/ccEbr1hb.s 			page 9


 161              	.L12:
 218:Drivers/lvgl/lvgl/src/extra/widgets/tabview/lv_tabview.c **** 
 162              		.loc 1 218 0
 163 0026 42F26402 		movw	r2, #8292
 164 002a 1146     		mov	r1, r2
 165 002c 2046     		mov	r0, r4
 166 002e FFF7FEFF 		bl	lv_obj_set_size
 167              	.LVL17:
 223:Drivers/lvgl/lvgl/src/extra/widgets/tabview/lv_tabview.c ****     cont = lv_obj_create(obj);
 168              		.loc 1 223 0
 169 0032 2046     		mov	r0, r4
 170 0034 FFF7FEFF 		bl	lv_btnmatrix_create
 171              	.LVL18:
 172 0038 0646     		mov	r6, r0
 173              	.LVL19:
 224:Drivers/lvgl/lvgl/src/extra/widgets/tabview/lv_tabview.c **** 
 174              		.loc 1 224 0
 175 003a 2046     		mov	r0, r4
 176              	.LVL20:
 177 003c FFF7FEFF 		bl	lv_obj_create
 178              	.LVL21:
 179 0040 0546     		mov	r5, r0
 180              	.LVL22:
 226:Drivers/lvgl/lvgl/src/extra/widgets/tabview/lv_tabview.c ****     tabview->map = lv_mem_alloc(sizeof(const char *));
 181              		.loc 1 226 0
 182 0042 0121     		movs	r1, #1
 183 0044 3046     		mov	r0, r6
 184              	.LVL23:
 185 0046 FFF7FEFF 		bl	lv_btnmatrix_set_one_checked
 186              	.LVL24:
 227:Drivers/lvgl/lvgl/src/extra/widgets/tabview/lv_tabview.c ****     tabview->map[0] = "";
 187              		.loc 1 227 0
 188 004a 0420     		movs	r0, #4
 189 004c FFF7FEFF 		bl	lv_mem_alloc
 190              	.LVL25:
 191 0050 6062     		str	r0, [r4, #36]
 228:Drivers/lvgl/lvgl/src/extra/widgets/tabview/lv_tabview.c ****     lv_btnmatrix_set_map(btnm, (const char **)tabview->map);
 192              		.loc 1 228 0
 193 0052 404B     		ldr	r3, .L27+4
 194 0054 0360     		str	r3, [r0]
 229:Drivers/lvgl/lvgl/src/extra/widgets/tabview/lv_tabview.c ****     lv_obj_add_event_cb(btnm, btns_value_changed_event_cb, LV_EVENT_VALUE_CHANGED, NULL);
 195              		.loc 1 229 0
 196 0056 616A     		ldr	r1, [r4, #36]
 197 0058 3046     		mov	r0, r6
 198 005a FFF7FEFF 		bl	lv_btnmatrix_set_map
 199              	.LVL26:
 230:Drivers/lvgl/lvgl/src/extra/widgets/tabview/lv_tabview.c ****     lv_obj_add_flag(btnm, LV_OBJ_FLAG_EVENT_BUBBLE);
 200              		.loc 1 230 0
 201 005e 0023     		movs	r3, #0
 202 0060 1C22     		movs	r2, #28
 203 0062 3D49     		ldr	r1, .L27+8
 204 0064 3046     		mov	r0, r6
 205 0066 FFF7FEFF 		bl	lv_obj_add_event_cb
 206              	.LVL27:
 231:Drivers/lvgl/lvgl/src/extra/widgets/tabview/lv_tabview.c **** 
 207              		.loc 1 231 0
 208 006a 4FF48041 		mov	r1, #16384
ARM GAS  /tmp/ccEbr1hb.s 			page 10


 209 006e 3046     		mov	r0, r6
 210 0070 FFF7FEFF 		bl	lv_obj_add_flag
 211              	.LVL28:
 233:Drivers/lvgl/lvgl/src/extra/widgets/tabview/lv_tabview.c ****     lv_obj_set_scrollbar_mode(cont, LV_SCROLLBAR_MODE_OFF);
 212              		.loc 1 233 0
 213 0074 0023     		movs	r3, #0
 214 0076 1A46     		mov	r2, r3
 215 0078 3849     		ldr	r1, .L27+12
 216 007a 2846     		mov	r0, r5
 217 007c FFF7FEFF 		bl	lv_obj_add_event_cb
 218              	.LVL29:
 234:Drivers/lvgl/lvgl/src/extra/widgets/tabview/lv_tabview.c **** 
 219              		.loc 1 234 0
 220 0080 0021     		movs	r1, #0
 221 0082 2846     		mov	r0, r5
 222 0084 FFF7FEFF 		bl	lv_obj_set_scrollbar_mode
 223              	.LVL30:
 236:Drivers/lvgl/lvgl/src/extra/widgets/tabview/lv_tabview.c ****         case LV_DIR_TOP:
 224              		.loc 1 236 0
 225 0088 94F82C30 		ldrb	r3, [r4, #44]	@ zero_extendqisi2
 226 008c 013B     		subs	r3, r3, #1
 227 008e 072B     		cmp	r3, #7
 228 0090 25D8     		bhi	.L18
 229 0092 DFE803F0 		tbb	[pc, r3]
 230              	.L20:
 231 0096 41       		.byte	(.L19-.L20)/2
 232 0097 41       		.byte	(.L19-.L20)/2
 233 0098 24       		.byte	(.L18-.L20)/2
 234 0099 13       		.byte	(.L21-.L20)/2
 235 009a 24       		.byte	(.L18-.L20)/2
 236 009b 24       		.byte	(.L18-.L20)/2
 237 009c 24       		.byte	(.L18-.L20)/2
 238 009d 13       		.byte	(.L21-.L20)/2
 239              	.LVL31:
 240              		.p2align 1
 241              	.L17:
 208:Drivers/lvgl/lvgl/src/extra/widgets/tabview/lv_tabview.c ****             break;
 242              		.loc 1 208 0
 243 009e 0921     		movs	r1, #9
 244              	.LVL32:
 245 00a0 2046     		mov	r0, r4
 246              	.LVL33:
 247 00a2 FFF7FEFF 		bl	lv_obj_set_flex_flow
 248              	.LVL34:
 209:Drivers/lvgl/lvgl/src/extra/widgets/tabview/lv_tabview.c ****         case LV_DIR_LEFT:
 249              		.loc 1 209 0
 250 00a6 BEE7     		b	.L12
 251              	.LVL35:
 252              	.L13:
 211:Drivers/lvgl/lvgl/src/extra/widgets/tabview/lv_tabview.c ****             break;
 253              		.loc 1 211 0
 254 00a8 0021     		movs	r1, #0
 255              	.LVL36:
 256 00aa 2046     		mov	r0, r4
 257              	.LVL37:
 258 00ac FFF7FEFF 		bl	lv_obj_set_flex_flow
 259              	.LVL38:
ARM GAS  /tmp/ccEbr1hb.s 			page 11


 212:Drivers/lvgl/lvgl/src/extra/widgets/tabview/lv_tabview.c ****         case LV_DIR_RIGHT:
 260              		.loc 1 212 0
 261 00b0 B9E7     		b	.L12
 262              	.LVL39:
 263              	.L15:
 214:Drivers/lvgl/lvgl/src/extra/widgets/tabview/lv_tabview.c ****             break;
 264              		.loc 1 214 0
 265 00b2 0821     		movs	r1, #8
 266              	.LVL40:
 267 00b4 2046     		mov	r0, r4
 268              	.LVL41:
 269 00b6 FFF7FEFF 		bl	lv_obj_set_flex_flow
 270              	.LVL42:
 215:Drivers/lvgl/lvgl/src/extra/widgets/tabview/lv_tabview.c ****     }
 271              		.loc 1 215 0
 272 00ba B4E7     		b	.L12
 273              	.LVL43:
 274              	.L21:
 239:Drivers/lvgl/lvgl/src/extra/widgets/tabview/lv_tabview.c ****             lv_obj_set_width(cont, LV_PCT(100));
 275              		.loc 1 239 0
 276 00bc 284B     		ldr	r3, .L27+16
 277 00be B3F90020 		ldrsh	r2, [r3]
 278 00c2 42F26401 		movw	r1, #8292
 279 00c6 3046     		mov	r0, r6
 280 00c8 FFF7FEFF 		bl	lv_obj_set_size
 281              	.LVL44:
 240:Drivers/lvgl/lvgl/src/extra/widgets/tabview/lv_tabview.c ****             lv_obj_set_flex_grow(cont, 1);
 282              		.loc 1 240 0
 283 00cc 42F26401 		movw	r1, #8292
 284 00d0 2846     		mov	r0, r5
 285 00d2 FFF7FEFF 		bl	lv_obj_set_width
 286              	.LVL45:
 241:Drivers/lvgl/lvgl/src/extra/widgets/tabview/lv_tabview.c ****             break;
 287              		.loc 1 241 0
 288 00d6 0121     		movs	r1, #1
 289 00d8 2846     		mov	r0, r5
 290 00da FFF7FEFF 		bl	lv_obj_set_flex_grow
 291              	.LVL46:
 292              	.L18:
 251:Drivers/lvgl/lvgl/src/extra/widgets/tabview/lv_tabview.c ****     if(g) lv_group_add_obj(g, btnm);
 293              		.loc 1 251 0
 294 00de FFF7FEFF 		bl	lv_group_get_default
 295              	.LVL47:
 252:Drivers/lvgl/lvgl/src/extra/widgets/tabview/lv_tabview.c **** 
 296              		.loc 1 252 0
 297 00e2 10B1     		cbz	r0, .L22
 252:Drivers/lvgl/lvgl/src/extra/widgets/tabview/lv_tabview.c **** 
 298              		.loc 1 252 0 is_stmt 0 discriminator 1
 299 00e4 3146     		mov	r1, r6
 300 00e6 FFF7FEFF 		bl	lv_group_add_obj
 301              	.LVL48:
 302              	.L22:
 254:Drivers/lvgl/lvgl/src/extra/widgets/tabview/lv_tabview.c ****         lv_obj_set_flex_flow(cont, LV_FLEX_FLOW_ROW);
 303              		.loc 1 254 0 is_stmt 1
 304 00ea 94F82C30 		ldrb	r3, [r4, #44]	@ zero_extendqisi2
 305 00ee 13F00C0F 		tst	r3, #12
 306 00f2 23D1     		bne	.L26
ARM GAS  /tmp/ccEbr1hb.s 			page 12


 259:Drivers/lvgl/lvgl/src/extra/widgets/tabview/lv_tabview.c ****         lv_obj_set_scroll_snap_y(cont, LV_SCROLL_SNAP_CENTER);
 307              		.loc 1 259 0
 308 00f4 0121     		movs	r1, #1
 309 00f6 2846     		mov	r0, r5
 310 00f8 FFF7FEFF 		bl	lv_obj_set_flex_flow
 311              	.LVL49:
 260:Drivers/lvgl/lvgl/src/extra/widgets/tabview/lv_tabview.c ****     }
 312              		.loc 1 260 0
 313 00fc 0321     		movs	r1, #3
 314 00fe 2846     		mov	r0, r5
 315 0100 FFF7FEFF 		bl	lv_obj_set_scroll_snap_y
 316              	.LVL50:
 317              	.L24:
 262:Drivers/lvgl/lvgl/src/extra/widgets/tabview/lv_tabview.c ****     lv_obj_clear_flag(cont, LV_OBJ_FLAG_SCROLL_ON_FOCUS);
 318              		.loc 1 262 0
 319 0104 8021     		movs	r1, #128
 320 0106 2846     		mov	r0, r5
 321 0108 FFF7FEFF 		bl	lv_obj_add_flag
 322              	.LVL51:
 263:Drivers/lvgl/lvgl/src/extra/widgets/tabview/lv_tabview.c **** }
 323              		.loc 1 263 0
 324 010c 4FF48061 		mov	r1, #1024
 325 0110 2846     		mov	r0, r5
 326 0112 FFF7FEFF 		bl	lv_obj_clear_flag
 327              	.LVL52:
 264:Drivers/lvgl/lvgl/src/extra/widgets/tabview/lv_tabview.c **** 
 328              		.loc 1 264 0
 329 0116 70BD     		pop	{r4, r5, r6, pc}
 330              	.LVL53:
 331              	.L19:
 245:Drivers/lvgl/lvgl/src/extra/widgets/tabview/lv_tabview.c ****             lv_obj_set_height(cont, LV_PCT(100));
 332              		.loc 1 245 0
 333 0118 42F26402 		movw	r2, #8292
 334 011c 104B     		ldr	r3, .L27+16
 335 011e B3F90010 		ldrsh	r1, [r3]
 336 0122 3046     		mov	r0, r6
 337 0124 FFF7FEFF 		bl	lv_obj_set_size
 338              	.LVL54:
 246:Drivers/lvgl/lvgl/src/extra/widgets/tabview/lv_tabview.c ****             lv_obj_set_flex_grow(cont, 1);
 339              		.loc 1 246 0
 340 0128 42F26401 		movw	r1, #8292
 341 012c 2846     		mov	r0, r5
 342 012e FFF7FEFF 		bl	lv_obj_set_height
 343              	.LVL55:
 247:Drivers/lvgl/lvgl/src/extra/widgets/tabview/lv_tabview.c ****             break;
 344              		.loc 1 247 0
 345 0132 0121     		movs	r1, #1
 346 0134 2846     		mov	r0, r5
 347 0136 FFF7FEFF 		bl	lv_obj_set_flex_grow
 348              	.LVL56:
 248:Drivers/lvgl/lvgl/src/extra/widgets/tabview/lv_tabview.c ****     }
 349              		.loc 1 248 0
 350 013a D0E7     		b	.L18
 351              	.L26:
 255:Drivers/lvgl/lvgl/src/extra/widgets/tabview/lv_tabview.c ****         lv_obj_set_scroll_snap_x(cont, LV_SCROLL_SNAP_CENTER);
 352              		.loc 1 255 0
 353 013c 0021     		movs	r1, #0
ARM GAS  /tmp/ccEbr1hb.s 			page 13


 354 013e 2846     		mov	r0, r5
 355 0140 FFF7FEFF 		bl	lv_obj_set_flex_flow
 356              	.LVL57:
 256:Drivers/lvgl/lvgl/src/extra/widgets/tabview/lv_tabview.c ****     }
 357              		.loc 1 256 0
 358 0144 0321     		movs	r1, #3
 359 0146 2846     		mov	r0, r5
 360 0148 FFF7FEFF 		bl	lv_obj_set_scroll_snap_x
 361              	.LVL58:
 362 014c DAE7     		b	.L24
 363              	.L28:
 364 014e 00BF     		.align	2
 365              	.L27:
 366 0150 00000000 		.word	.LANCHOR0
 367 0154 00000000 		.word	.LC0
 368 0158 00000000 		.word	btns_value_changed_event_cb
 369 015c 00000000 		.word	cont_scroll_end_event_cb
 370 0160 00000000 		.word	.LANCHOR1
 371              		.cfi_endproc
 372              	.LFE209:
 374              		.section	.text.lv_tabview_create,"ax",%progbits
 375              		.align	1
 376              		.global	lv_tabview_create
 377              		.syntax unified
 378              		.thumb
 379              		.thumb_func
 380              		.fpu fpv5-d16
 382              	lv_tabview_create:
 383              	.LFB202:
  57:Drivers/lvgl/lvgl/src/extra/widgets/tabview/lv_tabview.c ****     LV_LOG_INFO("begin");
 384              		.loc 1 57 0
 385              		.cfi_startproc
 386              		@ args = 0, pretend = 0, frame = 0
 387              		@ frame_needed = 0, uses_anonymous_args = 0
 388              	.LVL59:
 389 0000 10B5     		push	{r4, lr}
 390              	.LCFI2:
 391              		.cfi_def_cfa_offset 8
 392              		.cfi_offset 4, -8
 393              		.cfi_offset 14, -4
  59:Drivers/lvgl/lvgl/src/extra/widgets/tabview/lv_tabview.c ****     tabsize_create = tab_size;
 394              		.loc 1 59 0
 395 0002 064B     		ldr	r3, .L31
 396 0004 1970     		strb	r1, [r3]
  60:Drivers/lvgl/lvgl/src/extra/widgets/tabview/lv_tabview.c **** 
 397              		.loc 1 60 0
 398 0006 064B     		ldr	r3, .L31+4
 399 0008 1A80     		strh	r2, [r3]	@ movhi
  62:Drivers/lvgl/lvgl/src/extra/widgets/tabview/lv_tabview.c ****     lv_obj_class_init_obj(obj);
 400              		.loc 1 62 0
 401 000a 0146     		mov	r1, r0
 402              	.LVL60:
 403 000c 0548     		ldr	r0, .L31+8
 404              	.LVL61:
 405 000e FFF7FEFF 		bl	lv_obj_class_create_obj
 406              	.LVL62:
 407 0012 0446     		mov	r4, r0
ARM GAS  /tmp/ccEbr1hb.s 			page 14


 408              	.LVL63:
  63:Drivers/lvgl/lvgl/src/extra/widgets/tabview/lv_tabview.c ****     return obj;
 409              		.loc 1 63 0
 410 0014 FFF7FEFF 		bl	lv_obj_class_init_obj
 411              	.LVL64:
  65:Drivers/lvgl/lvgl/src/extra/widgets/tabview/lv_tabview.c **** 
 412              		.loc 1 65 0
 413 0018 2046     		mov	r0, r4
 414 001a 10BD     		pop	{r4, pc}
 415              	.LVL65:
 416              	.L32:
 417              		.align	2
 418              	.L31:
 419 001c 00000000 		.word	.LANCHOR0
 420 0020 00000000 		.word	.LANCHOR1
 421 0024 00000000 		.word	.LANCHOR2
 422              		.cfi_endproc
 423              	.LFE202:
 425              		.section	.text.lv_tabview_rename_tab,"ax",%progbits
 426              		.align	1
 427              		.global	lv_tabview_rename_tab
 428              		.syntax unified
 429              		.thumb
 430              		.thumb_func
 431              		.fpu fpv5-d16
 433              	lv_tabview_rename_tab:
 434              	.LFB204:
 125:Drivers/lvgl/lvgl/src/extra/widgets/tabview/lv_tabview.c ****     LV_ASSERT_OBJ(obj, MY_CLASS);
 435              		.loc 1 125 0
 436              		.cfi_startproc
 437              		@ args = 0, pretend = 0, frame = 0
 438              		@ frame_needed = 0, uses_anonymous_args = 0
 439              	.LVL66:
 440 0000 F8B5     		push	{r3, r4, r5, r6, r7, lr}
 441              	.LCFI3:
 442              		.cfi_def_cfa_offset 24
 443              		.cfi_offset 3, -24
 444              		.cfi_offset 4, -20
 445              		.cfi_offset 5, -16
 446              		.cfi_offset 6, -12
 447              		.cfi_offset 7, -8
 448              		.cfi_offset 14, -4
 449              	.LVL67:
 129:Drivers/lvgl/lvgl/src/extra/widgets/tabview/lv_tabview.c ****     if(tabview->tab_pos & LV_DIR_HOR) id *= 2;
 450              		.loc 1 129 0
 451 0002 038D     		ldrh	r3, [r0, #40]
 452 0004 8B42     		cmp	r3, r1
 453 0006 1FD9     		bls	.L33
 454 0008 0446     		mov	r4, r0
 455 000a 0D46     		mov	r5, r1
 456 000c 1646     		mov	r6, r2
 130:Drivers/lvgl/lvgl/src/extra/widgets/tabview/lv_tabview.c **** 
 457              		.loc 1 130 0
 458 000e 90F82C30 		ldrb	r3, [r0, #44]	@ zero_extendqisi2
 459 0012 13F0030F 		tst	r3, #3
 460 0016 00D0     		beq	.L35
 130:Drivers/lvgl/lvgl/src/extra/widgets/tabview/lv_tabview.c **** 
ARM GAS  /tmp/ccEbr1hb.s 			page 15


 461              		.loc 1 130 0 is_stmt 0 discriminator 1
 462 0018 4D00     		lsls	r5, r1, #1
 463              	.LVL68:
 464              	.L35:
 132:Drivers/lvgl/lvgl/src/extra/widgets/tabview/lv_tabview.c ****     tabview->map[id] = lv_mem_alloc(strlen(new_name) + 1);
 465              		.loc 1 132 0 is_stmt 1
 466 001a 636A     		ldr	r3, [r4, #36]
 467 001c 53F82500 		ldr	r0, [r3, r5, lsl #2]
 468              	.LVL69:
 469 0020 FFF7FEFF 		bl	lv_mem_free
 470              	.LVL70:
 133:Drivers/lvgl/lvgl/src/extra/widgets/tabview/lv_tabview.c ****     strcpy(tabview->map[id], new_name);
 471              		.loc 1 133 0
 472 0024 3046     		mov	r0, r6
 473 0026 FFF7FEFF 		bl	strlen
 474              	.LVL71:
 475 002a 676A     		ldr	r7, [r4, #36]
 476 002c 0130     		adds	r0, r0, #1
 477 002e FFF7FEFF 		bl	lv_mem_alloc
 478              	.LVL72:
 479 0032 47F82500 		str	r0, [r7, r5, lsl #2]
 134:Drivers/lvgl/lvgl/src/extra/widgets/tabview/lv_tabview.c ****     lv_obj_invalidate(obj);
 480              		.loc 1 134 0
 481 0036 636A     		ldr	r3, [r4, #36]
 482 0038 3146     		mov	r1, r6
 483 003a 53F82500 		ldr	r0, [r3, r5, lsl #2]
 484 003e FFF7FEFF 		bl	strcpy
 485              	.LVL73:
 135:Drivers/lvgl/lvgl/src/extra/widgets/tabview/lv_tabview.c **** }
 486              		.loc 1 135 0
 487 0042 2046     		mov	r0, r4
 488 0044 FFF7FEFF 		bl	lv_obj_invalidate
 489              	.LVL74:
 490              	.L33:
 136:Drivers/lvgl/lvgl/src/extra/widgets/tabview/lv_tabview.c **** 
 491              		.loc 1 136 0
 492 0048 F8BD     		pop	{r3, r4, r5, r6, r7, pc}
 493              		.cfi_endproc
 494              	.LFE204:
 496              		.section	.text.lv_tabview_get_tab_act,"ax",%progbits
 497              		.align	1
 498              		.global	lv_tabview_get_tab_act
 499              		.syntax unified
 500              		.thumb
 501              		.thumb_func
 502              		.fpu fpv5-d16
 504              	lv_tabview_get_tab_act:
 505              	.LFB206:
 176:Drivers/lvgl/lvgl/src/extra/widgets/tabview/lv_tabview.c ****     LV_ASSERT_OBJ(obj, MY_CLASS);
 506              		.loc 1 176 0
 507              		.cfi_startproc
 508              		@ args = 0, pretend = 0, frame = 0
 509              		@ frame_needed = 0, uses_anonymous_args = 0
 510              		@ link register save eliminated.
 511              	.LVL75:
 180:Drivers/lvgl/lvgl/src/extra/widgets/tabview/lv_tabview.c **** 
 512              		.loc 1 180 0
ARM GAS  /tmp/ccEbr1hb.s 			page 16


 513 0000 408D     		ldrh	r0, [r0, #42]
 514              	.LVL76:
 515 0002 7047     		bx	lr
 516              		.cfi_endproc
 517              	.LFE206:
 519              		.section	.text.lv_tabview_get_content,"ax",%progbits
 520              		.align	1
 521              		.global	lv_tabview_get_content
 522              		.syntax unified
 523              		.thumb
 524              		.thumb_func
 525              		.fpu fpv5-d16
 527              	lv_tabview_get_content:
 528              	.LFB207:
 183:Drivers/lvgl/lvgl/src/extra/widgets/tabview/lv_tabview.c ****     return lv_obj_get_child(tv, 1);
 529              		.loc 1 183 0
 530              		.cfi_startproc
 531              		@ args = 0, pretend = 0, frame = 0
 532              		@ frame_needed = 0, uses_anonymous_args = 0
 533              	.LVL77:
 534 0000 08B5     		push	{r3, lr}
 535              	.LCFI4:
 536              		.cfi_def_cfa_offset 8
 537              		.cfi_offset 3, -8
 538              		.cfi_offset 14, -4
 184:Drivers/lvgl/lvgl/src/extra/widgets/tabview/lv_tabview.c **** }
 539              		.loc 1 184 0
 540 0002 0121     		movs	r1, #1
 541 0004 FFF7FEFF 		bl	lv_obj_get_child
 542              	.LVL78:
 185:Drivers/lvgl/lvgl/src/extra/widgets/tabview/lv_tabview.c **** 
 543              		.loc 1 185 0
 544 0008 08BD     		pop	{r3, pc}
 545              		.cfi_endproc
 546              	.LFE207:
 548              		.section	.text.lv_tabview_get_tab_btns,"ax",%progbits
 549              		.align	1
 550              		.global	lv_tabview_get_tab_btns
 551              		.syntax unified
 552              		.thumb
 553              		.thumb_func
 554              		.fpu fpv5-d16
 556              	lv_tabview_get_tab_btns:
 557              	.LFB208:
 188:Drivers/lvgl/lvgl/src/extra/widgets/tabview/lv_tabview.c ****     return lv_obj_get_child(tv, 0);
 558              		.loc 1 188 0
 559              		.cfi_startproc
 560              		@ args = 0, pretend = 0, frame = 0
 561              		@ frame_needed = 0, uses_anonymous_args = 0
 562              	.LVL79:
 563 0000 08B5     		push	{r3, lr}
 564              	.LCFI5:
 565              		.cfi_def_cfa_offset 8
 566              		.cfi_offset 3, -8
 567              		.cfi_offset 14, -4
 189:Drivers/lvgl/lvgl/src/extra/widgets/tabview/lv_tabview.c **** }
 568              		.loc 1 189 0
ARM GAS  /tmp/ccEbr1hb.s 			page 17


 569 0002 0021     		movs	r1, #0
 570 0004 FFF7FEFF 		bl	lv_obj_get_child
 571              	.LVL80:
 190:Drivers/lvgl/lvgl/src/extra/widgets/tabview/lv_tabview.c **** 
 572              		.loc 1 190 0
 573 0008 08BD     		pop	{r3, pc}
 574              		.cfi_endproc
 575              	.LFE208:
 577              		.section	.text.lv_tabview_set_act,"ax",%progbits
 578              		.align	1
 579              		.global	lv_tabview_set_act
 580              		.syntax unified
 581              		.thumb
 582              		.thumb_func
 583              		.fpu fpv5-d16
 585              	lv_tabview_set_act:
 586              	.LFB205:
 139:Drivers/lvgl/lvgl/src/extra/widgets/tabview/lv_tabview.c ****     LV_ASSERT_OBJ(obj, MY_CLASS);
 587              		.loc 1 139 0
 588              		.cfi_startproc
 589              		@ args = 0, pretend = 0, frame = 0
 590              		@ frame_needed = 0, uses_anonymous_args = 0
 591              	.LVL81:
 592 0000 2DE9F843 		push	{r3, r4, r5, r6, r7, r8, r9, lr}
 593              	.LCFI6:
 594              		.cfi_def_cfa_offset 32
 595              		.cfi_offset 3, -32
 596              		.cfi_offset 4, -28
 597              		.cfi_offset 5, -24
 598              		.cfi_offset 6, -20
 599              		.cfi_offset 7, -16
 600              		.cfi_offset 8, -12
 601              		.cfi_offset 9, -8
 602              		.cfi_offset 14, -4
 603 0004 0446     		mov	r4, r0
 604 0006 0D46     		mov	r5, r1
 605 0008 9046     		mov	r8, r2
 606              	.LVL82:
 143:Drivers/lvgl/lvgl/src/extra/widgets/tabview/lv_tabview.c ****         id = tabview->tab_cnt - 1;
 607              		.loc 1 143 0
 608 000a 038D     		ldrh	r3, [r0, #40]
 609 000c 8B42     		cmp	r3, r1
 610 000e 00D8     		bhi	.L43
 144:Drivers/lvgl/lvgl/src/extra/widgets/tabview/lv_tabview.c ****     }
 611              		.loc 1 144 0
 612 0010 5D1E     		subs	r5, r3, #1
 613              	.LVL83:
 614              	.L43:
 148:Drivers/lvgl/lvgl/src/extra/widgets/tabview/lv_tabview.c **** 
 615              		.loc 1 148 0
 616 0012 2046     		mov	r0, r4
 617              	.LVL84:
 618 0014 FFF7FEFF 		bl	lv_obj_update_layout
 619              	.LVL85:
 150:Drivers/lvgl/lvgl/src/extra/widgets/tabview/lv_tabview.c ****     if(cont == NULL) return;
 620              		.loc 1 150 0
 621 0018 2046     		mov	r0, r4
ARM GAS  /tmp/ccEbr1hb.s 			page 18


 622 001a FFF7FEFF 		bl	lv_tabview_get_content
 623              	.LVL86:
 151:Drivers/lvgl/lvgl/src/extra/widgets/tabview/lv_tabview.c **** 
 624              		.loc 1 151 0
 625 001e 0646     		mov	r6, r0
 626 0020 0028     		cmp	r0, #0
 627 0022 43D0     		beq	.L42
 153:Drivers/lvgl/lvgl/src/extra/widgets/tabview/lv_tabview.c ****         lv_coord_t gap = lv_obj_get_style_pad_column(cont, LV_PART_MAIN);
 628              		.loc 1 153 0
 629 0024 94F82C30 		ldrb	r3, [r4, #44]	@ zero_extendqisi2
 630 0028 13F00C0F 		tst	r3, #12
 631 002c 24D0     		beq	.L45
 632              	.LVL87:
 633              	.LBB20:
 634              	.LBB21:
 635              	.LBB22:
 636              		.file 2 "Drivers/lvgl/lvgl/src/extra/widgets/tabview/../../../../src/core/lv_obj_style_gen.h"
   1:Drivers/lvgl/lvgl/src/extra/widgets/tabview/../../../../src/core/lv_obj_style_gen.h **** static inline lv_coord_t lv_obj_get_style_width(const struct _lv_obj_t * obj, uint32_t part)
   2:Drivers/lvgl/lvgl/src/extra/widgets/tabview/../../../../src/core/lv_obj_style_gen.h **** {
   3:Drivers/lvgl/lvgl/src/extra/widgets/tabview/../../../../src/core/lv_obj_style_gen.h ****     lv_style_value_t v = lv_obj_get_style_prop(obj, part, LV_STYLE_WIDTH);
   4:Drivers/lvgl/lvgl/src/extra/widgets/tabview/../../../../src/core/lv_obj_style_gen.h ****     return (lv_coord_t)v.num;
   5:Drivers/lvgl/lvgl/src/extra/widgets/tabview/../../../../src/core/lv_obj_style_gen.h **** }
   6:Drivers/lvgl/lvgl/src/extra/widgets/tabview/../../../../src/core/lv_obj_style_gen.h **** 
   7:Drivers/lvgl/lvgl/src/extra/widgets/tabview/../../../../src/core/lv_obj_style_gen.h **** static inline lv_coord_t lv_obj_get_style_min_width(const struct _lv_obj_t * obj, uint32_t part)
   8:Drivers/lvgl/lvgl/src/extra/widgets/tabview/../../../../src/core/lv_obj_style_gen.h **** {
   9:Drivers/lvgl/lvgl/src/extra/widgets/tabview/../../../../src/core/lv_obj_style_gen.h ****     lv_style_value_t v = lv_obj_get_style_prop(obj, part, LV_STYLE_MIN_WIDTH);
  10:Drivers/lvgl/lvgl/src/extra/widgets/tabview/../../../../src/core/lv_obj_style_gen.h ****     return (lv_coord_t)v.num;
  11:Drivers/lvgl/lvgl/src/extra/widgets/tabview/../../../../src/core/lv_obj_style_gen.h **** }
  12:Drivers/lvgl/lvgl/src/extra/widgets/tabview/../../../../src/core/lv_obj_style_gen.h **** 
  13:Drivers/lvgl/lvgl/src/extra/widgets/tabview/../../../../src/core/lv_obj_style_gen.h **** static inline lv_coord_t lv_obj_get_style_max_width(const struct _lv_obj_t * obj, uint32_t part)
  14:Drivers/lvgl/lvgl/src/extra/widgets/tabview/../../../../src/core/lv_obj_style_gen.h **** {
  15:Drivers/lvgl/lvgl/src/extra/widgets/tabview/../../../../src/core/lv_obj_style_gen.h ****     lv_style_value_t v = lv_obj_get_style_prop(obj, part, LV_STYLE_MAX_WIDTH);
  16:Drivers/lvgl/lvgl/src/extra/widgets/tabview/../../../../src/core/lv_obj_style_gen.h ****     return (lv_coord_t)v.num;
  17:Drivers/lvgl/lvgl/src/extra/widgets/tabview/../../../../src/core/lv_obj_style_gen.h **** }
  18:Drivers/lvgl/lvgl/src/extra/widgets/tabview/../../../../src/core/lv_obj_style_gen.h **** 
  19:Drivers/lvgl/lvgl/src/extra/widgets/tabview/../../../../src/core/lv_obj_style_gen.h **** static inline lv_coord_t lv_obj_get_style_height(const struct _lv_obj_t * obj, uint32_t part)
  20:Drivers/lvgl/lvgl/src/extra/widgets/tabview/../../../../src/core/lv_obj_style_gen.h **** {
  21:Drivers/lvgl/lvgl/src/extra/widgets/tabview/../../../../src/core/lv_obj_style_gen.h ****     lv_style_value_t v = lv_obj_get_style_prop(obj, part, LV_STYLE_HEIGHT);
  22:Drivers/lvgl/lvgl/src/extra/widgets/tabview/../../../../src/core/lv_obj_style_gen.h ****     return (lv_coord_t)v.num;
  23:Drivers/lvgl/lvgl/src/extra/widgets/tabview/../../../../src/core/lv_obj_style_gen.h **** }
  24:Drivers/lvgl/lvgl/src/extra/widgets/tabview/../../../../src/core/lv_obj_style_gen.h **** 
  25:Drivers/lvgl/lvgl/src/extra/widgets/tabview/../../../../src/core/lv_obj_style_gen.h **** static inline lv_coord_t lv_obj_get_style_min_height(const struct _lv_obj_t * obj, uint32_t part)
  26:Drivers/lvgl/lvgl/src/extra/widgets/tabview/../../../../src/core/lv_obj_style_gen.h **** {
  27:Drivers/lvgl/lvgl/src/extra/widgets/tabview/../../../../src/core/lv_obj_style_gen.h ****     lv_style_value_t v = lv_obj_get_style_prop(obj, part, LV_STYLE_MIN_HEIGHT);
  28:Drivers/lvgl/lvgl/src/extra/widgets/tabview/../../../../src/core/lv_obj_style_gen.h ****     return (lv_coord_t)v.num;
  29:Drivers/lvgl/lvgl/src/extra/widgets/tabview/../../../../src/core/lv_obj_style_gen.h **** }
  30:Drivers/lvgl/lvgl/src/extra/widgets/tabview/../../../../src/core/lv_obj_style_gen.h **** 
  31:Drivers/lvgl/lvgl/src/extra/widgets/tabview/../../../../src/core/lv_obj_style_gen.h **** static inline lv_coord_t lv_obj_get_style_max_height(const struct _lv_obj_t * obj, uint32_t part)
  32:Drivers/lvgl/lvgl/src/extra/widgets/tabview/../../../../src/core/lv_obj_style_gen.h **** {
  33:Drivers/lvgl/lvgl/src/extra/widgets/tabview/../../../../src/core/lv_obj_style_gen.h ****     lv_style_value_t v = lv_obj_get_style_prop(obj, part, LV_STYLE_MAX_HEIGHT);
  34:Drivers/lvgl/lvgl/src/extra/widgets/tabview/../../../../src/core/lv_obj_style_gen.h ****     return (lv_coord_t)v.num;
  35:Drivers/lvgl/lvgl/src/extra/widgets/tabview/../../../../src/core/lv_obj_style_gen.h **** }
  36:Drivers/lvgl/lvgl/src/extra/widgets/tabview/../../../../src/core/lv_obj_style_gen.h **** 
  37:Drivers/lvgl/lvgl/src/extra/widgets/tabview/../../../../src/core/lv_obj_style_gen.h **** static inline lv_coord_t lv_obj_get_style_x(const struct _lv_obj_t * obj, uint32_t part)
  38:Drivers/lvgl/lvgl/src/extra/widgets/tabview/../../../../src/core/lv_obj_style_gen.h **** {
  39:Drivers/lvgl/lvgl/src/extra/widgets/tabview/../../../../src/core/lv_obj_style_gen.h ****     lv_style_value_t v = lv_obj_get_style_prop(obj, part, LV_STYLE_X);
  40:Drivers/lvgl/lvgl/src/extra/widgets/tabview/../../../../src/core/lv_obj_style_gen.h ****     return (lv_coord_t)v.num;
ARM GAS  /tmp/ccEbr1hb.s 			page 19


  41:Drivers/lvgl/lvgl/src/extra/widgets/tabview/../../../../src/core/lv_obj_style_gen.h **** }
  42:Drivers/lvgl/lvgl/src/extra/widgets/tabview/../../../../src/core/lv_obj_style_gen.h **** 
  43:Drivers/lvgl/lvgl/src/extra/widgets/tabview/../../../../src/core/lv_obj_style_gen.h **** static inline lv_coord_t lv_obj_get_style_y(const struct _lv_obj_t * obj, uint32_t part)
  44:Drivers/lvgl/lvgl/src/extra/widgets/tabview/../../../../src/core/lv_obj_style_gen.h **** {
  45:Drivers/lvgl/lvgl/src/extra/widgets/tabview/../../../../src/core/lv_obj_style_gen.h ****     lv_style_value_t v = lv_obj_get_style_prop(obj, part, LV_STYLE_Y);
  46:Drivers/lvgl/lvgl/src/extra/widgets/tabview/../../../../src/core/lv_obj_style_gen.h ****     return (lv_coord_t)v.num;
  47:Drivers/lvgl/lvgl/src/extra/widgets/tabview/../../../../src/core/lv_obj_style_gen.h **** }
  48:Drivers/lvgl/lvgl/src/extra/widgets/tabview/../../../../src/core/lv_obj_style_gen.h **** 
  49:Drivers/lvgl/lvgl/src/extra/widgets/tabview/../../../../src/core/lv_obj_style_gen.h **** static inline lv_align_t lv_obj_get_style_align(const struct _lv_obj_t * obj, uint32_t part)
  50:Drivers/lvgl/lvgl/src/extra/widgets/tabview/../../../../src/core/lv_obj_style_gen.h **** {
  51:Drivers/lvgl/lvgl/src/extra/widgets/tabview/../../../../src/core/lv_obj_style_gen.h ****     lv_style_value_t v = lv_obj_get_style_prop(obj, part, LV_STYLE_ALIGN);
  52:Drivers/lvgl/lvgl/src/extra/widgets/tabview/../../../../src/core/lv_obj_style_gen.h ****     return (lv_align_t)v.num;
  53:Drivers/lvgl/lvgl/src/extra/widgets/tabview/../../../../src/core/lv_obj_style_gen.h **** }
  54:Drivers/lvgl/lvgl/src/extra/widgets/tabview/../../../../src/core/lv_obj_style_gen.h **** 
  55:Drivers/lvgl/lvgl/src/extra/widgets/tabview/../../../../src/core/lv_obj_style_gen.h **** static inline lv_coord_t lv_obj_get_style_transform_width(const struct _lv_obj_t * obj, uint32_t pa
  56:Drivers/lvgl/lvgl/src/extra/widgets/tabview/../../../../src/core/lv_obj_style_gen.h **** {
  57:Drivers/lvgl/lvgl/src/extra/widgets/tabview/../../../../src/core/lv_obj_style_gen.h ****     lv_style_value_t v = lv_obj_get_style_prop(obj, part, LV_STYLE_TRANSFORM_WIDTH);
  58:Drivers/lvgl/lvgl/src/extra/widgets/tabview/../../../../src/core/lv_obj_style_gen.h ****     return (lv_coord_t)v.num;
  59:Drivers/lvgl/lvgl/src/extra/widgets/tabview/../../../../src/core/lv_obj_style_gen.h **** }
  60:Drivers/lvgl/lvgl/src/extra/widgets/tabview/../../../../src/core/lv_obj_style_gen.h **** 
  61:Drivers/lvgl/lvgl/src/extra/widgets/tabview/../../../../src/core/lv_obj_style_gen.h **** static inline lv_coord_t lv_obj_get_style_transform_height(const struct _lv_obj_t * obj, uint32_t p
  62:Drivers/lvgl/lvgl/src/extra/widgets/tabview/../../../../src/core/lv_obj_style_gen.h **** {
  63:Drivers/lvgl/lvgl/src/extra/widgets/tabview/../../../../src/core/lv_obj_style_gen.h ****     lv_style_value_t v = lv_obj_get_style_prop(obj, part, LV_STYLE_TRANSFORM_HEIGHT);
  64:Drivers/lvgl/lvgl/src/extra/widgets/tabview/../../../../src/core/lv_obj_style_gen.h ****     return (lv_coord_t)v.num;
  65:Drivers/lvgl/lvgl/src/extra/widgets/tabview/../../../../src/core/lv_obj_style_gen.h **** }
  66:Drivers/lvgl/lvgl/src/extra/widgets/tabview/../../../../src/core/lv_obj_style_gen.h **** 
  67:Drivers/lvgl/lvgl/src/extra/widgets/tabview/../../../../src/core/lv_obj_style_gen.h **** static inline lv_coord_t lv_obj_get_style_translate_x(const struct _lv_obj_t * obj, uint32_t part)
  68:Drivers/lvgl/lvgl/src/extra/widgets/tabview/../../../../src/core/lv_obj_style_gen.h **** {
  69:Drivers/lvgl/lvgl/src/extra/widgets/tabview/../../../../src/core/lv_obj_style_gen.h ****     lv_style_value_t v = lv_obj_get_style_prop(obj, part, LV_STYLE_TRANSLATE_X);
  70:Drivers/lvgl/lvgl/src/extra/widgets/tabview/../../../../src/core/lv_obj_style_gen.h ****     return (lv_coord_t)v.num;
  71:Drivers/lvgl/lvgl/src/extra/widgets/tabview/../../../../src/core/lv_obj_style_gen.h **** }
  72:Drivers/lvgl/lvgl/src/extra/widgets/tabview/../../../../src/core/lv_obj_style_gen.h **** 
  73:Drivers/lvgl/lvgl/src/extra/widgets/tabview/../../../../src/core/lv_obj_style_gen.h **** static inline lv_coord_t lv_obj_get_style_translate_y(const struct _lv_obj_t * obj, uint32_t part)
  74:Drivers/lvgl/lvgl/src/extra/widgets/tabview/../../../../src/core/lv_obj_style_gen.h **** {
  75:Drivers/lvgl/lvgl/src/extra/widgets/tabview/../../../../src/core/lv_obj_style_gen.h ****     lv_style_value_t v = lv_obj_get_style_prop(obj, part, LV_STYLE_TRANSLATE_Y);
  76:Drivers/lvgl/lvgl/src/extra/widgets/tabview/../../../../src/core/lv_obj_style_gen.h ****     return (lv_coord_t)v.num;
  77:Drivers/lvgl/lvgl/src/extra/widgets/tabview/../../../../src/core/lv_obj_style_gen.h **** }
  78:Drivers/lvgl/lvgl/src/extra/widgets/tabview/../../../../src/core/lv_obj_style_gen.h **** 
  79:Drivers/lvgl/lvgl/src/extra/widgets/tabview/../../../../src/core/lv_obj_style_gen.h **** static inline lv_coord_t lv_obj_get_style_transform_zoom(const struct _lv_obj_t * obj, uint32_t par
  80:Drivers/lvgl/lvgl/src/extra/widgets/tabview/../../../../src/core/lv_obj_style_gen.h **** {
  81:Drivers/lvgl/lvgl/src/extra/widgets/tabview/../../../../src/core/lv_obj_style_gen.h ****     lv_style_value_t v = lv_obj_get_style_prop(obj, part, LV_STYLE_TRANSFORM_ZOOM);
  82:Drivers/lvgl/lvgl/src/extra/widgets/tabview/../../../../src/core/lv_obj_style_gen.h ****     return (lv_coord_t)v.num;
  83:Drivers/lvgl/lvgl/src/extra/widgets/tabview/../../../../src/core/lv_obj_style_gen.h **** }
  84:Drivers/lvgl/lvgl/src/extra/widgets/tabview/../../../../src/core/lv_obj_style_gen.h **** 
  85:Drivers/lvgl/lvgl/src/extra/widgets/tabview/../../../../src/core/lv_obj_style_gen.h **** static inline lv_coord_t lv_obj_get_style_transform_angle(const struct _lv_obj_t * obj, uint32_t pa
  86:Drivers/lvgl/lvgl/src/extra/widgets/tabview/../../../../src/core/lv_obj_style_gen.h **** {
  87:Drivers/lvgl/lvgl/src/extra/widgets/tabview/../../../../src/core/lv_obj_style_gen.h ****     lv_style_value_t v = lv_obj_get_style_prop(obj, part, LV_STYLE_TRANSFORM_ANGLE);
  88:Drivers/lvgl/lvgl/src/extra/widgets/tabview/../../../../src/core/lv_obj_style_gen.h ****     return (lv_coord_t)v.num;
  89:Drivers/lvgl/lvgl/src/extra/widgets/tabview/../../../../src/core/lv_obj_style_gen.h **** }
  90:Drivers/lvgl/lvgl/src/extra/widgets/tabview/../../../../src/core/lv_obj_style_gen.h **** 
  91:Drivers/lvgl/lvgl/src/extra/widgets/tabview/../../../../src/core/lv_obj_style_gen.h **** static inline lv_coord_t lv_obj_get_style_transform_pivot_x(const struct _lv_obj_t * obj, uint32_t 
  92:Drivers/lvgl/lvgl/src/extra/widgets/tabview/../../../../src/core/lv_obj_style_gen.h **** {
  93:Drivers/lvgl/lvgl/src/extra/widgets/tabview/../../../../src/core/lv_obj_style_gen.h ****     lv_style_value_t v = lv_obj_get_style_prop(obj, part, LV_STYLE_TRANSFORM_PIVOT_X);
  94:Drivers/lvgl/lvgl/src/extra/widgets/tabview/../../../../src/core/lv_obj_style_gen.h ****     return (lv_coord_t)v.num;
  95:Drivers/lvgl/lvgl/src/extra/widgets/tabview/../../../../src/core/lv_obj_style_gen.h **** }
  96:Drivers/lvgl/lvgl/src/extra/widgets/tabview/../../../../src/core/lv_obj_style_gen.h **** 
  97:Drivers/lvgl/lvgl/src/extra/widgets/tabview/../../../../src/core/lv_obj_style_gen.h **** static inline lv_coord_t lv_obj_get_style_transform_pivot_y(const struct _lv_obj_t * obj, uint32_t 
ARM GAS  /tmp/ccEbr1hb.s 			page 20


  98:Drivers/lvgl/lvgl/src/extra/widgets/tabview/../../../../src/core/lv_obj_style_gen.h **** {
  99:Drivers/lvgl/lvgl/src/extra/widgets/tabview/../../../../src/core/lv_obj_style_gen.h ****     lv_style_value_t v = lv_obj_get_style_prop(obj, part, LV_STYLE_TRANSFORM_PIVOT_Y);
 100:Drivers/lvgl/lvgl/src/extra/widgets/tabview/../../../../src/core/lv_obj_style_gen.h ****     return (lv_coord_t)v.num;
 101:Drivers/lvgl/lvgl/src/extra/widgets/tabview/../../../../src/core/lv_obj_style_gen.h **** }
 102:Drivers/lvgl/lvgl/src/extra/widgets/tabview/../../../../src/core/lv_obj_style_gen.h **** 
 103:Drivers/lvgl/lvgl/src/extra/widgets/tabview/../../../../src/core/lv_obj_style_gen.h **** static inline lv_coord_t lv_obj_get_style_pad_top(const struct _lv_obj_t * obj, uint32_t part)
 104:Drivers/lvgl/lvgl/src/extra/widgets/tabview/../../../../src/core/lv_obj_style_gen.h **** {
 105:Drivers/lvgl/lvgl/src/extra/widgets/tabview/../../../../src/core/lv_obj_style_gen.h ****     lv_style_value_t v = lv_obj_get_style_prop(obj, part, LV_STYLE_PAD_TOP);
 106:Drivers/lvgl/lvgl/src/extra/widgets/tabview/../../../../src/core/lv_obj_style_gen.h ****     return (lv_coord_t)v.num;
 107:Drivers/lvgl/lvgl/src/extra/widgets/tabview/../../../../src/core/lv_obj_style_gen.h **** }
 108:Drivers/lvgl/lvgl/src/extra/widgets/tabview/../../../../src/core/lv_obj_style_gen.h **** 
 109:Drivers/lvgl/lvgl/src/extra/widgets/tabview/../../../../src/core/lv_obj_style_gen.h **** static inline lv_coord_t lv_obj_get_style_pad_bottom(const struct _lv_obj_t * obj, uint32_t part)
 110:Drivers/lvgl/lvgl/src/extra/widgets/tabview/../../../../src/core/lv_obj_style_gen.h **** {
 111:Drivers/lvgl/lvgl/src/extra/widgets/tabview/../../../../src/core/lv_obj_style_gen.h ****     lv_style_value_t v = lv_obj_get_style_prop(obj, part, LV_STYLE_PAD_BOTTOM);
 112:Drivers/lvgl/lvgl/src/extra/widgets/tabview/../../../../src/core/lv_obj_style_gen.h ****     return (lv_coord_t)v.num;
 113:Drivers/lvgl/lvgl/src/extra/widgets/tabview/../../../../src/core/lv_obj_style_gen.h **** }
 114:Drivers/lvgl/lvgl/src/extra/widgets/tabview/../../../../src/core/lv_obj_style_gen.h **** 
 115:Drivers/lvgl/lvgl/src/extra/widgets/tabview/../../../../src/core/lv_obj_style_gen.h **** static inline lv_coord_t lv_obj_get_style_pad_left(const struct _lv_obj_t * obj, uint32_t part)
 116:Drivers/lvgl/lvgl/src/extra/widgets/tabview/../../../../src/core/lv_obj_style_gen.h **** {
 117:Drivers/lvgl/lvgl/src/extra/widgets/tabview/../../../../src/core/lv_obj_style_gen.h ****     lv_style_value_t v = lv_obj_get_style_prop(obj, part, LV_STYLE_PAD_LEFT);
 118:Drivers/lvgl/lvgl/src/extra/widgets/tabview/../../../../src/core/lv_obj_style_gen.h ****     return (lv_coord_t)v.num;
 119:Drivers/lvgl/lvgl/src/extra/widgets/tabview/../../../../src/core/lv_obj_style_gen.h **** }
 120:Drivers/lvgl/lvgl/src/extra/widgets/tabview/../../../../src/core/lv_obj_style_gen.h **** 
 121:Drivers/lvgl/lvgl/src/extra/widgets/tabview/../../../../src/core/lv_obj_style_gen.h **** static inline lv_coord_t lv_obj_get_style_pad_right(const struct _lv_obj_t * obj, uint32_t part)
 122:Drivers/lvgl/lvgl/src/extra/widgets/tabview/../../../../src/core/lv_obj_style_gen.h **** {
 123:Drivers/lvgl/lvgl/src/extra/widgets/tabview/../../../../src/core/lv_obj_style_gen.h ****     lv_style_value_t v = lv_obj_get_style_prop(obj, part, LV_STYLE_PAD_RIGHT);
 124:Drivers/lvgl/lvgl/src/extra/widgets/tabview/../../../../src/core/lv_obj_style_gen.h ****     return (lv_coord_t)v.num;
 125:Drivers/lvgl/lvgl/src/extra/widgets/tabview/../../../../src/core/lv_obj_style_gen.h **** }
 126:Drivers/lvgl/lvgl/src/extra/widgets/tabview/../../../../src/core/lv_obj_style_gen.h **** 
 127:Drivers/lvgl/lvgl/src/extra/widgets/tabview/../../../../src/core/lv_obj_style_gen.h **** static inline lv_coord_t lv_obj_get_style_pad_row(const struct _lv_obj_t * obj, uint32_t part)
 128:Drivers/lvgl/lvgl/src/extra/widgets/tabview/../../../../src/core/lv_obj_style_gen.h **** {
 129:Drivers/lvgl/lvgl/src/extra/widgets/tabview/../../../../src/core/lv_obj_style_gen.h ****     lv_style_value_t v = lv_obj_get_style_prop(obj, part, LV_STYLE_PAD_ROW);
 130:Drivers/lvgl/lvgl/src/extra/widgets/tabview/../../../../src/core/lv_obj_style_gen.h ****     return (lv_coord_t)v.num;
 131:Drivers/lvgl/lvgl/src/extra/widgets/tabview/../../../../src/core/lv_obj_style_gen.h **** }
 132:Drivers/lvgl/lvgl/src/extra/widgets/tabview/../../../../src/core/lv_obj_style_gen.h **** 
 133:Drivers/lvgl/lvgl/src/extra/widgets/tabview/../../../../src/core/lv_obj_style_gen.h **** static inline lv_coord_t lv_obj_get_style_pad_column(const struct _lv_obj_t * obj, uint32_t part)
 134:Drivers/lvgl/lvgl/src/extra/widgets/tabview/../../../../src/core/lv_obj_style_gen.h **** {
 135:Drivers/lvgl/lvgl/src/extra/widgets/tabview/../../../../src/core/lv_obj_style_gen.h ****     lv_style_value_t v = lv_obj_get_style_prop(obj, part, LV_STYLE_PAD_COLUMN);
 637              		.loc 2 135 0
 638 002e 1522     		movs	r2, #21
 639 0030 0021     		movs	r1, #0
 640 0032 FFF7FEFF 		bl	lv_obj_get_style_prop
 641              	.LVL88:
 136:Drivers/lvgl/lvgl/src/extra/widgets/tabview/../../../../src/core/lv_obj_style_gen.h ****     return (lv_coord_t)v.num;
 642              		.loc 2 136 0
 643 0036 07B2     		sxth	r7, r0
 644              	.LVL89:
 645              	.LBE22:
 646              	.LBE21:
 155:Drivers/lvgl/lvgl/src/extra/widgets/tabview/lv_tabview.c ****         if(lv_obj_get_style_base_dir(obj, LV_PART_MAIN) != LV_BASE_DIR_RTL) {
 647              		.loc 1 155 0
 648 0038 3046     		mov	r0, r6
 649 003a FFF7FEFF 		bl	lv_obj_get_content_width
 650              	.LVL90:
 651 003e 8146     		mov	r9, r0
 652              	.LVL91:
 653              	.LBB23:
ARM GAS  /tmp/ccEbr1hb.s 			page 21


 654              	.LBB24:
 137:Drivers/lvgl/lvgl/src/extra/widgets/tabview/../../../../src/core/lv_obj_style_gen.h **** }
 138:Drivers/lvgl/lvgl/src/extra/widgets/tabview/../../../../src/core/lv_obj_style_gen.h **** 
 139:Drivers/lvgl/lvgl/src/extra/widgets/tabview/../../../../src/core/lv_obj_style_gen.h **** static inline lv_color_t lv_obj_get_style_bg_color(const struct _lv_obj_t * obj, uint32_t part)
 140:Drivers/lvgl/lvgl/src/extra/widgets/tabview/../../../../src/core/lv_obj_style_gen.h **** {
 141:Drivers/lvgl/lvgl/src/extra/widgets/tabview/../../../../src/core/lv_obj_style_gen.h ****     lv_style_value_t v = lv_obj_get_style_prop(obj, part, LV_STYLE_BG_COLOR);
 142:Drivers/lvgl/lvgl/src/extra/widgets/tabview/../../../../src/core/lv_obj_style_gen.h ****     return v.color;
 143:Drivers/lvgl/lvgl/src/extra/widgets/tabview/../../../../src/core/lv_obj_style_gen.h **** }
 144:Drivers/lvgl/lvgl/src/extra/widgets/tabview/../../../../src/core/lv_obj_style_gen.h **** 
 145:Drivers/lvgl/lvgl/src/extra/widgets/tabview/../../../../src/core/lv_obj_style_gen.h **** static inline lv_color_t lv_obj_get_style_bg_color_filtered(const struct _lv_obj_t * obj, uint32_t 
 146:Drivers/lvgl/lvgl/src/extra/widgets/tabview/../../../../src/core/lv_obj_style_gen.h **** {
 147:Drivers/lvgl/lvgl/src/extra/widgets/tabview/../../../../src/core/lv_obj_style_gen.h ****     lv_style_value_t v = _lv_obj_style_apply_color_filter(obj, part, lv_obj_get_style_prop(obj, par
 148:Drivers/lvgl/lvgl/src/extra/widgets/tabview/../../../../src/core/lv_obj_style_gen.h ****     return v.color;
 149:Drivers/lvgl/lvgl/src/extra/widgets/tabview/../../../../src/core/lv_obj_style_gen.h **** }
 150:Drivers/lvgl/lvgl/src/extra/widgets/tabview/../../../../src/core/lv_obj_style_gen.h **** 
 151:Drivers/lvgl/lvgl/src/extra/widgets/tabview/../../../../src/core/lv_obj_style_gen.h **** static inline lv_opa_t lv_obj_get_style_bg_opa(const struct _lv_obj_t * obj, uint32_t part)
 152:Drivers/lvgl/lvgl/src/extra/widgets/tabview/../../../../src/core/lv_obj_style_gen.h **** {
 153:Drivers/lvgl/lvgl/src/extra/widgets/tabview/../../../../src/core/lv_obj_style_gen.h ****     lv_style_value_t v = lv_obj_get_style_prop(obj, part, LV_STYLE_BG_OPA);
 154:Drivers/lvgl/lvgl/src/extra/widgets/tabview/../../../../src/core/lv_obj_style_gen.h ****     return (lv_opa_t)v.num;
 155:Drivers/lvgl/lvgl/src/extra/widgets/tabview/../../../../src/core/lv_obj_style_gen.h **** }
 156:Drivers/lvgl/lvgl/src/extra/widgets/tabview/../../../../src/core/lv_obj_style_gen.h **** 
 157:Drivers/lvgl/lvgl/src/extra/widgets/tabview/../../../../src/core/lv_obj_style_gen.h **** static inline lv_color_t lv_obj_get_style_bg_grad_color(const struct _lv_obj_t * obj, uint32_t part
 158:Drivers/lvgl/lvgl/src/extra/widgets/tabview/../../../../src/core/lv_obj_style_gen.h **** {
 159:Drivers/lvgl/lvgl/src/extra/widgets/tabview/../../../../src/core/lv_obj_style_gen.h ****     lv_style_value_t v = lv_obj_get_style_prop(obj, part, LV_STYLE_BG_GRAD_COLOR);
 160:Drivers/lvgl/lvgl/src/extra/widgets/tabview/../../../../src/core/lv_obj_style_gen.h ****     return v.color;
 161:Drivers/lvgl/lvgl/src/extra/widgets/tabview/../../../../src/core/lv_obj_style_gen.h **** }
 162:Drivers/lvgl/lvgl/src/extra/widgets/tabview/../../../../src/core/lv_obj_style_gen.h **** 
 163:Drivers/lvgl/lvgl/src/extra/widgets/tabview/../../../../src/core/lv_obj_style_gen.h **** static inline lv_color_t lv_obj_get_style_bg_grad_color_filtered(const struct _lv_obj_t * obj, uint
 164:Drivers/lvgl/lvgl/src/extra/widgets/tabview/../../../../src/core/lv_obj_style_gen.h **** {
 165:Drivers/lvgl/lvgl/src/extra/widgets/tabview/../../../../src/core/lv_obj_style_gen.h ****     lv_style_value_t v = _lv_obj_style_apply_color_filter(obj, part, lv_obj_get_style_prop(obj, par
 166:Drivers/lvgl/lvgl/src/extra/widgets/tabview/../../../../src/core/lv_obj_style_gen.h ****     return v.color;
 167:Drivers/lvgl/lvgl/src/extra/widgets/tabview/../../../../src/core/lv_obj_style_gen.h **** }
 168:Drivers/lvgl/lvgl/src/extra/widgets/tabview/../../../../src/core/lv_obj_style_gen.h **** 
 169:Drivers/lvgl/lvgl/src/extra/widgets/tabview/../../../../src/core/lv_obj_style_gen.h **** static inline lv_grad_dir_t lv_obj_get_style_bg_grad_dir(const struct _lv_obj_t * obj, uint32_t par
 170:Drivers/lvgl/lvgl/src/extra/widgets/tabview/../../../../src/core/lv_obj_style_gen.h **** {
 171:Drivers/lvgl/lvgl/src/extra/widgets/tabview/../../../../src/core/lv_obj_style_gen.h ****     lv_style_value_t v = lv_obj_get_style_prop(obj, part, LV_STYLE_BG_GRAD_DIR);
 172:Drivers/lvgl/lvgl/src/extra/widgets/tabview/../../../../src/core/lv_obj_style_gen.h ****     return (lv_grad_dir_t)v.num;
 173:Drivers/lvgl/lvgl/src/extra/widgets/tabview/../../../../src/core/lv_obj_style_gen.h **** }
 174:Drivers/lvgl/lvgl/src/extra/widgets/tabview/../../../../src/core/lv_obj_style_gen.h **** 
 175:Drivers/lvgl/lvgl/src/extra/widgets/tabview/../../../../src/core/lv_obj_style_gen.h **** static inline lv_coord_t lv_obj_get_style_bg_main_stop(const struct _lv_obj_t * obj, uint32_t part)
 176:Drivers/lvgl/lvgl/src/extra/widgets/tabview/../../../../src/core/lv_obj_style_gen.h **** {
 177:Drivers/lvgl/lvgl/src/extra/widgets/tabview/../../../../src/core/lv_obj_style_gen.h ****     lv_style_value_t v = lv_obj_get_style_prop(obj, part, LV_STYLE_BG_MAIN_STOP);
 178:Drivers/lvgl/lvgl/src/extra/widgets/tabview/../../../../src/core/lv_obj_style_gen.h ****     return (lv_coord_t)v.num;
 179:Drivers/lvgl/lvgl/src/extra/widgets/tabview/../../../../src/core/lv_obj_style_gen.h **** }
 180:Drivers/lvgl/lvgl/src/extra/widgets/tabview/../../../../src/core/lv_obj_style_gen.h **** 
 181:Drivers/lvgl/lvgl/src/extra/widgets/tabview/../../../../src/core/lv_obj_style_gen.h **** static inline lv_coord_t lv_obj_get_style_bg_grad_stop(const struct _lv_obj_t * obj, uint32_t part)
 182:Drivers/lvgl/lvgl/src/extra/widgets/tabview/../../../../src/core/lv_obj_style_gen.h **** {
 183:Drivers/lvgl/lvgl/src/extra/widgets/tabview/../../../../src/core/lv_obj_style_gen.h ****     lv_style_value_t v = lv_obj_get_style_prop(obj, part, LV_STYLE_BG_GRAD_STOP);
 184:Drivers/lvgl/lvgl/src/extra/widgets/tabview/../../../../src/core/lv_obj_style_gen.h ****     return (lv_coord_t)v.num;
 185:Drivers/lvgl/lvgl/src/extra/widgets/tabview/../../../../src/core/lv_obj_style_gen.h **** }
 186:Drivers/lvgl/lvgl/src/extra/widgets/tabview/../../../../src/core/lv_obj_style_gen.h **** 
 187:Drivers/lvgl/lvgl/src/extra/widgets/tabview/../../../../src/core/lv_obj_style_gen.h **** static inline const lv_grad_dsc_t * lv_obj_get_style_bg_grad(const struct _lv_obj_t * obj, uint32_t
 188:Drivers/lvgl/lvgl/src/extra/widgets/tabview/../../../../src/core/lv_obj_style_gen.h **** {
 189:Drivers/lvgl/lvgl/src/extra/widgets/tabview/../../../../src/core/lv_obj_style_gen.h ****     lv_style_value_t v = lv_obj_get_style_prop(obj, part, LV_STYLE_BG_GRAD);
 190:Drivers/lvgl/lvgl/src/extra/widgets/tabview/../../../../src/core/lv_obj_style_gen.h ****     return (const lv_grad_dsc_t *)v.ptr;
 191:Drivers/lvgl/lvgl/src/extra/widgets/tabview/../../../../src/core/lv_obj_style_gen.h **** }
 192:Drivers/lvgl/lvgl/src/extra/widgets/tabview/../../../../src/core/lv_obj_style_gen.h **** 
ARM GAS  /tmp/ccEbr1hb.s 			page 22


 193:Drivers/lvgl/lvgl/src/extra/widgets/tabview/../../../../src/core/lv_obj_style_gen.h **** static inline lv_dither_mode_t lv_obj_get_style_bg_dither_mode(const struct _lv_obj_t * obj, uint32
 194:Drivers/lvgl/lvgl/src/extra/widgets/tabview/../../../../src/core/lv_obj_style_gen.h **** {
 195:Drivers/lvgl/lvgl/src/extra/widgets/tabview/../../../../src/core/lv_obj_style_gen.h ****     lv_style_value_t v = lv_obj_get_style_prop(obj, part, LV_STYLE_BG_DITHER_MODE);
 196:Drivers/lvgl/lvgl/src/extra/widgets/tabview/../../../../src/core/lv_obj_style_gen.h ****     return (lv_dither_mode_t)v.num;
 197:Drivers/lvgl/lvgl/src/extra/widgets/tabview/../../../../src/core/lv_obj_style_gen.h **** }
 198:Drivers/lvgl/lvgl/src/extra/widgets/tabview/../../../../src/core/lv_obj_style_gen.h **** 
 199:Drivers/lvgl/lvgl/src/extra/widgets/tabview/../../../../src/core/lv_obj_style_gen.h **** static inline const void * lv_obj_get_style_bg_img_src(const struct _lv_obj_t * obj, uint32_t part)
 200:Drivers/lvgl/lvgl/src/extra/widgets/tabview/../../../../src/core/lv_obj_style_gen.h **** {
 201:Drivers/lvgl/lvgl/src/extra/widgets/tabview/../../../../src/core/lv_obj_style_gen.h ****     lv_style_value_t v = lv_obj_get_style_prop(obj, part, LV_STYLE_BG_IMG_SRC);
 202:Drivers/lvgl/lvgl/src/extra/widgets/tabview/../../../../src/core/lv_obj_style_gen.h ****     return (const void *)v.ptr;
 203:Drivers/lvgl/lvgl/src/extra/widgets/tabview/../../../../src/core/lv_obj_style_gen.h **** }
 204:Drivers/lvgl/lvgl/src/extra/widgets/tabview/../../../../src/core/lv_obj_style_gen.h **** 
 205:Drivers/lvgl/lvgl/src/extra/widgets/tabview/../../../../src/core/lv_obj_style_gen.h **** static inline lv_opa_t lv_obj_get_style_bg_img_opa(const struct _lv_obj_t * obj, uint32_t part)
 206:Drivers/lvgl/lvgl/src/extra/widgets/tabview/../../../../src/core/lv_obj_style_gen.h **** {
 207:Drivers/lvgl/lvgl/src/extra/widgets/tabview/../../../../src/core/lv_obj_style_gen.h ****     lv_style_value_t v = lv_obj_get_style_prop(obj, part, LV_STYLE_BG_IMG_OPA);
 208:Drivers/lvgl/lvgl/src/extra/widgets/tabview/../../../../src/core/lv_obj_style_gen.h ****     return (lv_opa_t)v.num;
 209:Drivers/lvgl/lvgl/src/extra/widgets/tabview/../../../../src/core/lv_obj_style_gen.h **** }
 210:Drivers/lvgl/lvgl/src/extra/widgets/tabview/../../../../src/core/lv_obj_style_gen.h **** 
 211:Drivers/lvgl/lvgl/src/extra/widgets/tabview/../../../../src/core/lv_obj_style_gen.h **** static inline lv_color_t lv_obj_get_style_bg_img_recolor(const struct _lv_obj_t * obj, uint32_t par
 212:Drivers/lvgl/lvgl/src/extra/widgets/tabview/../../../../src/core/lv_obj_style_gen.h **** {
 213:Drivers/lvgl/lvgl/src/extra/widgets/tabview/../../../../src/core/lv_obj_style_gen.h ****     lv_style_value_t v = lv_obj_get_style_prop(obj, part, LV_STYLE_BG_IMG_RECOLOR);
 214:Drivers/lvgl/lvgl/src/extra/widgets/tabview/../../../../src/core/lv_obj_style_gen.h ****     return v.color;
 215:Drivers/lvgl/lvgl/src/extra/widgets/tabview/../../../../src/core/lv_obj_style_gen.h **** }
 216:Drivers/lvgl/lvgl/src/extra/widgets/tabview/../../../../src/core/lv_obj_style_gen.h **** 
 217:Drivers/lvgl/lvgl/src/extra/widgets/tabview/../../../../src/core/lv_obj_style_gen.h **** static inline lv_color_t lv_obj_get_style_bg_img_recolor_filtered(const struct _lv_obj_t * obj, uin
 218:Drivers/lvgl/lvgl/src/extra/widgets/tabview/../../../../src/core/lv_obj_style_gen.h **** {
 219:Drivers/lvgl/lvgl/src/extra/widgets/tabview/../../../../src/core/lv_obj_style_gen.h ****     lv_style_value_t v = _lv_obj_style_apply_color_filter(obj, part, lv_obj_get_style_prop(obj, par
 220:Drivers/lvgl/lvgl/src/extra/widgets/tabview/../../../../src/core/lv_obj_style_gen.h ****     return v.color;
 221:Drivers/lvgl/lvgl/src/extra/widgets/tabview/../../../../src/core/lv_obj_style_gen.h **** }
 222:Drivers/lvgl/lvgl/src/extra/widgets/tabview/../../../../src/core/lv_obj_style_gen.h **** 
 223:Drivers/lvgl/lvgl/src/extra/widgets/tabview/../../../../src/core/lv_obj_style_gen.h **** static inline lv_opa_t lv_obj_get_style_bg_img_recolor_opa(const struct _lv_obj_t * obj, uint32_t p
 224:Drivers/lvgl/lvgl/src/extra/widgets/tabview/../../../../src/core/lv_obj_style_gen.h **** {
 225:Drivers/lvgl/lvgl/src/extra/widgets/tabview/../../../../src/core/lv_obj_style_gen.h ****     lv_style_value_t v = lv_obj_get_style_prop(obj, part, LV_STYLE_BG_IMG_RECOLOR_OPA);
 226:Drivers/lvgl/lvgl/src/extra/widgets/tabview/../../../../src/core/lv_obj_style_gen.h ****     return (lv_opa_t)v.num;
 227:Drivers/lvgl/lvgl/src/extra/widgets/tabview/../../../../src/core/lv_obj_style_gen.h **** }
 228:Drivers/lvgl/lvgl/src/extra/widgets/tabview/../../../../src/core/lv_obj_style_gen.h **** 
 229:Drivers/lvgl/lvgl/src/extra/widgets/tabview/../../../../src/core/lv_obj_style_gen.h **** static inline bool lv_obj_get_style_bg_img_tiled(const struct _lv_obj_t * obj, uint32_t part)
 230:Drivers/lvgl/lvgl/src/extra/widgets/tabview/../../../../src/core/lv_obj_style_gen.h **** {
 231:Drivers/lvgl/lvgl/src/extra/widgets/tabview/../../../../src/core/lv_obj_style_gen.h ****     lv_style_value_t v = lv_obj_get_style_prop(obj, part, LV_STYLE_BG_IMG_TILED);
 232:Drivers/lvgl/lvgl/src/extra/widgets/tabview/../../../../src/core/lv_obj_style_gen.h ****     return (bool)v.num;
 233:Drivers/lvgl/lvgl/src/extra/widgets/tabview/../../../../src/core/lv_obj_style_gen.h **** }
 234:Drivers/lvgl/lvgl/src/extra/widgets/tabview/../../../../src/core/lv_obj_style_gen.h **** 
 235:Drivers/lvgl/lvgl/src/extra/widgets/tabview/../../../../src/core/lv_obj_style_gen.h **** static inline lv_color_t lv_obj_get_style_border_color(const struct _lv_obj_t * obj, uint32_t part)
 236:Drivers/lvgl/lvgl/src/extra/widgets/tabview/../../../../src/core/lv_obj_style_gen.h **** {
 237:Drivers/lvgl/lvgl/src/extra/widgets/tabview/../../../../src/core/lv_obj_style_gen.h ****     lv_style_value_t v = lv_obj_get_style_prop(obj, part, LV_STYLE_BORDER_COLOR);
 238:Drivers/lvgl/lvgl/src/extra/widgets/tabview/../../../../src/core/lv_obj_style_gen.h ****     return v.color;
 239:Drivers/lvgl/lvgl/src/extra/widgets/tabview/../../../../src/core/lv_obj_style_gen.h **** }
 240:Drivers/lvgl/lvgl/src/extra/widgets/tabview/../../../../src/core/lv_obj_style_gen.h **** 
 241:Drivers/lvgl/lvgl/src/extra/widgets/tabview/../../../../src/core/lv_obj_style_gen.h **** static inline lv_color_t lv_obj_get_style_border_color_filtered(const struct _lv_obj_t * obj, uint3
 242:Drivers/lvgl/lvgl/src/extra/widgets/tabview/../../../../src/core/lv_obj_style_gen.h **** {
 243:Drivers/lvgl/lvgl/src/extra/widgets/tabview/../../../../src/core/lv_obj_style_gen.h ****     lv_style_value_t v = _lv_obj_style_apply_color_filter(obj, part, lv_obj_get_style_prop(obj, par
 244:Drivers/lvgl/lvgl/src/extra/widgets/tabview/../../../../src/core/lv_obj_style_gen.h ****     return v.color;
 245:Drivers/lvgl/lvgl/src/extra/widgets/tabview/../../../../src/core/lv_obj_style_gen.h **** }
 246:Drivers/lvgl/lvgl/src/extra/widgets/tabview/../../../../src/core/lv_obj_style_gen.h **** 
 247:Drivers/lvgl/lvgl/src/extra/widgets/tabview/../../../../src/core/lv_obj_style_gen.h **** static inline lv_opa_t lv_obj_get_style_border_opa(const struct _lv_obj_t * obj, uint32_t part)
 248:Drivers/lvgl/lvgl/src/extra/widgets/tabview/../../../../src/core/lv_obj_style_gen.h **** {
 249:Drivers/lvgl/lvgl/src/extra/widgets/tabview/../../../../src/core/lv_obj_style_gen.h ****     lv_style_value_t v = lv_obj_get_style_prop(obj, part, LV_STYLE_BORDER_OPA);
ARM GAS  /tmp/ccEbr1hb.s 			page 23


 250:Drivers/lvgl/lvgl/src/extra/widgets/tabview/../../../../src/core/lv_obj_style_gen.h ****     return (lv_opa_t)v.num;
 251:Drivers/lvgl/lvgl/src/extra/widgets/tabview/../../../../src/core/lv_obj_style_gen.h **** }
 252:Drivers/lvgl/lvgl/src/extra/widgets/tabview/../../../../src/core/lv_obj_style_gen.h **** 
 253:Drivers/lvgl/lvgl/src/extra/widgets/tabview/../../../../src/core/lv_obj_style_gen.h **** static inline lv_coord_t lv_obj_get_style_border_width(const struct _lv_obj_t * obj, uint32_t part)
 254:Drivers/lvgl/lvgl/src/extra/widgets/tabview/../../../../src/core/lv_obj_style_gen.h **** {
 255:Drivers/lvgl/lvgl/src/extra/widgets/tabview/../../../../src/core/lv_obj_style_gen.h ****     lv_style_value_t v = lv_obj_get_style_prop(obj, part, LV_STYLE_BORDER_WIDTH);
 256:Drivers/lvgl/lvgl/src/extra/widgets/tabview/../../../../src/core/lv_obj_style_gen.h ****     return (lv_coord_t)v.num;
 257:Drivers/lvgl/lvgl/src/extra/widgets/tabview/../../../../src/core/lv_obj_style_gen.h **** }
 258:Drivers/lvgl/lvgl/src/extra/widgets/tabview/../../../../src/core/lv_obj_style_gen.h **** 
 259:Drivers/lvgl/lvgl/src/extra/widgets/tabview/../../../../src/core/lv_obj_style_gen.h **** static inline lv_border_side_t lv_obj_get_style_border_side(const struct _lv_obj_t * obj, uint32_t 
 260:Drivers/lvgl/lvgl/src/extra/widgets/tabview/../../../../src/core/lv_obj_style_gen.h **** {
 261:Drivers/lvgl/lvgl/src/extra/widgets/tabview/../../../../src/core/lv_obj_style_gen.h ****     lv_style_value_t v = lv_obj_get_style_prop(obj, part, LV_STYLE_BORDER_SIDE);
 262:Drivers/lvgl/lvgl/src/extra/widgets/tabview/../../../../src/core/lv_obj_style_gen.h ****     return (lv_border_side_t)v.num;
 263:Drivers/lvgl/lvgl/src/extra/widgets/tabview/../../../../src/core/lv_obj_style_gen.h **** }
 264:Drivers/lvgl/lvgl/src/extra/widgets/tabview/../../../../src/core/lv_obj_style_gen.h **** 
 265:Drivers/lvgl/lvgl/src/extra/widgets/tabview/../../../../src/core/lv_obj_style_gen.h **** static inline bool lv_obj_get_style_border_post(const struct _lv_obj_t * obj, uint32_t part)
 266:Drivers/lvgl/lvgl/src/extra/widgets/tabview/../../../../src/core/lv_obj_style_gen.h **** {
 267:Drivers/lvgl/lvgl/src/extra/widgets/tabview/../../../../src/core/lv_obj_style_gen.h ****     lv_style_value_t v = lv_obj_get_style_prop(obj, part, LV_STYLE_BORDER_POST);
 268:Drivers/lvgl/lvgl/src/extra/widgets/tabview/../../../../src/core/lv_obj_style_gen.h ****     return (bool)v.num;
 269:Drivers/lvgl/lvgl/src/extra/widgets/tabview/../../../../src/core/lv_obj_style_gen.h **** }
 270:Drivers/lvgl/lvgl/src/extra/widgets/tabview/../../../../src/core/lv_obj_style_gen.h **** 
 271:Drivers/lvgl/lvgl/src/extra/widgets/tabview/../../../../src/core/lv_obj_style_gen.h **** static inline lv_coord_t lv_obj_get_style_outline_width(const struct _lv_obj_t * obj, uint32_t part
 272:Drivers/lvgl/lvgl/src/extra/widgets/tabview/../../../../src/core/lv_obj_style_gen.h **** {
 273:Drivers/lvgl/lvgl/src/extra/widgets/tabview/../../../../src/core/lv_obj_style_gen.h ****     lv_style_value_t v = lv_obj_get_style_prop(obj, part, LV_STYLE_OUTLINE_WIDTH);
 274:Drivers/lvgl/lvgl/src/extra/widgets/tabview/../../../../src/core/lv_obj_style_gen.h ****     return (lv_coord_t)v.num;
 275:Drivers/lvgl/lvgl/src/extra/widgets/tabview/../../../../src/core/lv_obj_style_gen.h **** }
 276:Drivers/lvgl/lvgl/src/extra/widgets/tabview/../../../../src/core/lv_obj_style_gen.h **** 
 277:Drivers/lvgl/lvgl/src/extra/widgets/tabview/../../../../src/core/lv_obj_style_gen.h **** static inline lv_color_t lv_obj_get_style_outline_color(const struct _lv_obj_t * obj, uint32_t part
 278:Drivers/lvgl/lvgl/src/extra/widgets/tabview/../../../../src/core/lv_obj_style_gen.h **** {
 279:Drivers/lvgl/lvgl/src/extra/widgets/tabview/../../../../src/core/lv_obj_style_gen.h ****     lv_style_value_t v = lv_obj_get_style_prop(obj, part, LV_STYLE_OUTLINE_COLOR);
 280:Drivers/lvgl/lvgl/src/extra/widgets/tabview/../../../../src/core/lv_obj_style_gen.h ****     return v.color;
 281:Drivers/lvgl/lvgl/src/extra/widgets/tabview/../../../../src/core/lv_obj_style_gen.h **** }
 282:Drivers/lvgl/lvgl/src/extra/widgets/tabview/../../../../src/core/lv_obj_style_gen.h **** 
 283:Drivers/lvgl/lvgl/src/extra/widgets/tabview/../../../../src/core/lv_obj_style_gen.h **** static inline lv_color_t lv_obj_get_style_outline_color_filtered(const struct _lv_obj_t * obj, uint
 284:Drivers/lvgl/lvgl/src/extra/widgets/tabview/../../../../src/core/lv_obj_style_gen.h **** {
 285:Drivers/lvgl/lvgl/src/extra/widgets/tabview/../../../../src/core/lv_obj_style_gen.h ****     lv_style_value_t v = _lv_obj_style_apply_color_filter(obj, part, lv_obj_get_style_prop(obj, par
 286:Drivers/lvgl/lvgl/src/extra/widgets/tabview/../../../../src/core/lv_obj_style_gen.h ****     return v.color;
 287:Drivers/lvgl/lvgl/src/extra/widgets/tabview/../../../../src/core/lv_obj_style_gen.h **** }
 288:Drivers/lvgl/lvgl/src/extra/widgets/tabview/../../../../src/core/lv_obj_style_gen.h **** 
 289:Drivers/lvgl/lvgl/src/extra/widgets/tabview/../../../../src/core/lv_obj_style_gen.h **** static inline lv_opa_t lv_obj_get_style_outline_opa(const struct _lv_obj_t * obj, uint32_t part)
 290:Drivers/lvgl/lvgl/src/extra/widgets/tabview/../../../../src/core/lv_obj_style_gen.h **** {
 291:Drivers/lvgl/lvgl/src/extra/widgets/tabview/../../../../src/core/lv_obj_style_gen.h ****     lv_style_value_t v = lv_obj_get_style_prop(obj, part, LV_STYLE_OUTLINE_OPA);
 292:Drivers/lvgl/lvgl/src/extra/widgets/tabview/../../../../src/core/lv_obj_style_gen.h ****     return (lv_opa_t)v.num;
 293:Drivers/lvgl/lvgl/src/extra/widgets/tabview/../../../../src/core/lv_obj_style_gen.h **** }
 294:Drivers/lvgl/lvgl/src/extra/widgets/tabview/../../../../src/core/lv_obj_style_gen.h **** 
 295:Drivers/lvgl/lvgl/src/extra/widgets/tabview/../../../../src/core/lv_obj_style_gen.h **** static inline lv_coord_t lv_obj_get_style_outline_pad(const struct _lv_obj_t * obj, uint32_t part)
 296:Drivers/lvgl/lvgl/src/extra/widgets/tabview/../../../../src/core/lv_obj_style_gen.h **** {
 297:Drivers/lvgl/lvgl/src/extra/widgets/tabview/../../../../src/core/lv_obj_style_gen.h ****     lv_style_value_t v = lv_obj_get_style_prop(obj, part, LV_STYLE_OUTLINE_PAD);
 298:Drivers/lvgl/lvgl/src/extra/widgets/tabview/../../../../src/core/lv_obj_style_gen.h ****     return (lv_coord_t)v.num;
 299:Drivers/lvgl/lvgl/src/extra/widgets/tabview/../../../../src/core/lv_obj_style_gen.h **** }
 300:Drivers/lvgl/lvgl/src/extra/widgets/tabview/../../../../src/core/lv_obj_style_gen.h **** 
 301:Drivers/lvgl/lvgl/src/extra/widgets/tabview/../../../../src/core/lv_obj_style_gen.h **** static inline lv_coord_t lv_obj_get_style_shadow_width(const struct _lv_obj_t * obj, uint32_t part)
 302:Drivers/lvgl/lvgl/src/extra/widgets/tabview/../../../../src/core/lv_obj_style_gen.h **** {
 303:Drivers/lvgl/lvgl/src/extra/widgets/tabview/../../../../src/core/lv_obj_style_gen.h ****     lv_style_value_t v = lv_obj_get_style_prop(obj, part, LV_STYLE_SHADOW_WIDTH);
 304:Drivers/lvgl/lvgl/src/extra/widgets/tabview/../../../../src/core/lv_obj_style_gen.h ****     return (lv_coord_t)v.num;
 305:Drivers/lvgl/lvgl/src/extra/widgets/tabview/../../../../src/core/lv_obj_style_gen.h **** }
 306:Drivers/lvgl/lvgl/src/extra/widgets/tabview/../../../../src/core/lv_obj_style_gen.h **** 
ARM GAS  /tmp/ccEbr1hb.s 			page 24


 307:Drivers/lvgl/lvgl/src/extra/widgets/tabview/../../../../src/core/lv_obj_style_gen.h **** static inline lv_coord_t lv_obj_get_style_shadow_ofs_x(const struct _lv_obj_t * obj, uint32_t part)
 308:Drivers/lvgl/lvgl/src/extra/widgets/tabview/../../../../src/core/lv_obj_style_gen.h **** {
 309:Drivers/lvgl/lvgl/src/extra/widgets/tabview/../../../../src/core/lv_obj_style_gen.h ****     lv_style_value_t v = lv_obj_get_style_prop(obj, part, LV_STYLE_SHADOW_OFS_X);
 310:Drivers/lvgl/lvgl/src/extra/widgets/tabview/../../../../src/core/lv_obj_style_gen.h ****     return (lv_coord_t)v.num;
 311:Drivers/lvgl/lvgl/src/extra/widgets/tabview/../../../../src/core/lv_obj_style_gen.h **** }
 312:Drivers/lvgl/lvgl/src/extra/widgets/tabview/../../../../src/core/lv_obj_style_gen.h **** 
 313:Drivers/lvgl/lvgl/src/extra/widgets/tabview/../../../../src/core/lv_obj_style_gen.h **** static inline lv_coord_t lv_obj_get_style_shadow_ofs_y(const struct _lv_obj_t * obj, uint32_t part)
 314:Drivers/lvgl/lvgl/src/extra/widgets/tabview/../../../../src/core/lv_obj_style_gen.h **** {
 315:Drivers/lvgl/lvgl/src/extra/widgets/tabview/../../../../src/core/lv_obj_style_gen.h ****     lv_style_value_t v = lv_obj_get_style_prop(obj, part, LV_STYLE_SHADOW_OFS_Y);
 316:Drivers/lvgl/lvgl/src/extra/widgets/tabview/../../../../src/core/lv_obj_style_gen.h ****     return (lv_coord_t)v.num;
 317:Drivers/lvgl/lvgl/src/extra/widgets/tabview/../../../../src/core/lv_obj_style_gen.h **** }
 318:Drivers/lvgl/lvgl/src/extra/widgets/tabview/../../../../src/core/lv_obj_style_gen.h **** 
 319:Drivers/lvgl/lvgl/src/extra/widgets/tabview/../../../../src/core/lv_obj_style_gen.h **** static inline lv_coord_t lv_obj_get_style_shadow_spread(const struct _lv_obj_t * obj, uint32_t part
 320:Drivers/lvgl/lvgl/src/extra/widgets/tabview/../../../../src/core/lv_obj_style_gen.h **** {
 321:Drivers/lvgl/lvgl/src/extra/widgets/tabview/../../../../src/core/lv_obj_style_gen.h ****     lv_style_value_t v = lv_obj_get_style_prop(obj, part, LV_STYLE_SHADOW_SPREAD);
 322:Drivers/lvgl/lvgl/src/extra/widgets/tabview/../../../../src/core/lv_obj_style_gen.h ****     return (lv_coord_t)v.num;
 323:Drivers/lvgl/lvgl/src/extra/widgets/tabview/../../../../src/core/lv_obj_style_gen.h **** }
 324:Drivers/lvgl/lvgl/src/extra/widgets/tabview/../../../../src/core/lv_obj_style_gen.h **** 
 325:Drivers/lvgl/lvgl/src/extra/widgets/tabview/../../../../src/core/lv_obj_style_gen.h **** static inline lv_color_t lv_obj_get_style_shadow_color(const struct _lv_obj_t * obj, uint32_t part)
 326:Drivers/lvgl/lvgl/src/extra/widgets/tabview/../../../../src/core/lv_obj_style_gen.h **** {
 327:Drivers/lvgl/lvgl/src/extra/widgets/tabview/../../../../src/core/lv_obj_style_gen.h ****     lv_style_value_t v = lv_obj_get_style_prop(obj, part, LV_STYLE_SHADOW_COLOR);
 328:Drivers/lvgl/lvgl/src/extra/widgets/tabview/../../../../src/core/lv_obj_style_gen.h ****     return v.color;
 329:Drivers/lvgl/lvgl/src/extra/widgets/tabview/../../../../src/core/lv_obj_style_gen.h **** }
 330:Drivers/lvgl/lvgl/src/extra/widgets/tabview/../../../../src/core/lv_obj_style_gen.h **** 
 331:Drivers/lvgl/lvgl/src/extra/widgets/tabview/../../../../src/core/lv_obj_style_gen.h **** static inline lv_color_t lv_obj_get_style_shadow_color_filtered(const struct _lv_obj_t * obj, uint3
 332:Drivers/lvgl/lvgl/src/extra/widgets/tabview/../../../../src/core/lv_obj_style_gen.h **** {
 333:Drivers/lvgl/lvgl/src/extra/widgets/tabview/../../../../src/core/lv_obj_style_gen.h ****     lv_style_value_t v = _lv_obj_style_apply_color_filter(obj, part, lv_obj_get_style_prop(obj, par
 334:Drivers/lvgl/lvgl/src/extra/widgets/tabview/../../../../src/core/lv_obj_style_gen.h ****     return v.color;
 335:Drivers/lvgl/lvgl/src/extra/widgets/tabview/../../../../src/core/lv_obj_style_gen.h **** }
 336:Drivers/lvgl/lvgl/src/extra/widgets/tabview/../../../../src/core/lv_obj_style_gen.h **** 
 337:Drivers/lvgl/lvgl/src/extra/widgets/tabview/../../../../src/core/lv_obj_style_gen.h **** static inline lv_opa_t lv_obj_get_style_shadow_opa(const struct _lv_obj_t * obj, uint32_t part)
 338:Drivers/lvgl/lvgl/src/extra/widgets/tabview/../../../../src/core/lv_obj_style_gen.h **** {
 339:Drivers/lvgl/lvgl/src/extra/widgets/tabview/../../../../src/core/lv_obj_style_gen.h ****     lv_style_value_t v = lv_obj_get_style_prop(obj, part, LV_STYLE_SHADOW_OPA);
 340:Drivers/lvgl/lvgl/src/extra/widgets/tabview/../../../../src/core/lv_obj_style_gen.h ****     return (lv_opa_t)v.num;
 341:Drivers/lvgl/lvgl/src/extra/widgets/tabview/../../../../src/core/lv_obj_style_gen.h **** }
 342:Drivers/lvgl/lvgl/src/extra/widgets/tabview/../../../../src/core/lv_obj_style_gen.h **** 
 343:Drivers/lvgl/lvgl/src/extra/widgets/tabview/../../../../src/core/lv_obj_style_gen.h **** static inline lv_opa_t lv_obj_get_style_img_opa(const struct _lv_obj_t * obj, uint32_t part)
 344:Drivers/lvgl/lvgl/src/extra/widgets/tabview/../../../../src/core/lv_obj_style_gen.h **** {
 345:Drivers/lvgl/lvgl/src/extra/widgets/tabview/../../../../src/core/lv_obj_style_gen.h ****     lv_style_value_t v = lv_obj_get_style_prop(obj, part, LV_STYLE_IMG_OPA);
 346:Drivers/lvgl/lvgl/src/extra/widgets/tabview/../../../../src/core/lv_obj_style_gen.h ****     return (lv_opa_t)v.num;
 347:Drivers/lvgl/lvgl/src/extra/widgets/tabview/../../../../src/core/lv_obj_style_gen.h **** }
 348:Drivers/lvgl/lvgl/src/extra/widgets/tabview/../../../../src/core/lv_obj_style_gen.h **** 
 349:Drivers/lvgl/lvgl/src/extra/widgets/tabview/../../../../src/core/lv_obj_style_gen.h **** static inline lv_color_t lv_obj_get_style_img_recolor(const struct _lv_obj_t * obj, uint32_t part)
 350:Drivers/lvgl/lvgl/src/extra/widgets/tabview/../../../../src/core/lv_obj_style_gen.h **** {
 351:Drivers/lvgl/lvgl/src/extra/widgets/tabview/../../../../src/core/lv_obj_style_gen.h ****     lv_style_value_t v = lv_obj_get_style_prop(obj, part, LV_STYLE_IMG_RECOLOR);
 352:Drivers/lvgl/lvgl/src/extra/widgets/tabview/../../../../src/core/lv_obj_style_gen.h ****     return v.color;
 353:Drivers/lvgl/lvgl/src/extra/widgets/tabview/../../../../src/core/lv_obj_style_gen.h **** }
 354:Drivers/lvgl/lvgl/src/extra/widgets/tabview/../../../../src/core/lv_obj_style_gen.h **** 
 355:Drivers/lvgl/lvgl/src/extra/widgets/tabview/../../../../src/core/lv_obj_style_gen.h **** static inline lv_color_t lv_obj_get_style_img_recolor_filtered(const struct _lv_obj_t * obj, uint32
 356:Drivers/lvgl/lvgl/src/extra/widgets/tabview/../../../../src/core/lv_obj_style_gen.h **** {
 357:Drivers/lvgl/lvgl/src/extra/widgets/tabview/../../../../src/core/lv_obj_style_gen.h ****     lv_style_value_t v = _lv_obj_style_apply_color_filter(obj, part, lv_obj_get_style_prop(obj, par
 358:Drivers/lvgl/lvgl/src/extra/widgets/tabview/../../../../src/core/lv_obj_style_gen.h ****     return v.color;
 359:Drivers/lvgl/lvgl/src/extra/widgets/tabview/../../../../src/core/lv_obj_style_gen.h **** }
 360:Drivers/lvgl/lvgl/src/extra/widgets/tabview/../../../../src/core/lv_obj_style_gen.h **** 
 361:Drivers/lvgl/lvgl/src/extra/widgets/tabview/../../../../src/core/lv_obj_style_gen.h **** static inline lv_opa_t lv_obj_get_style_img_recolor_opa(const struct _lv_obj_t * obj, uint32_t part
 362:Drivers/lvgl/lvgl/src/extra/widgets/tabview/../../../../src/core/lv_obj_style_gen.h **** {
 363:Drivers/lvgl/lvgl/src/extra/widgets/tabview/../../../../src/core/lv_obj_style_gen.h ****     lv_style_value_t v = lv_obj_get_style_prop(obj, part, LV_STYLE_IMG_RECOLOR_OPA);
ARM GAS  /tmp/ccEbr1hb.s 			page 25


 364:Drivers/lvgl/lvgl/src/extra/widgets/tabview/../../../../src/core/lv_obj_style_gen.h ****     return (lv_opa_t)v.num;
 365:Drivers/lvgl/lvgl/src/extra/widgets/tabview/../../../../src/core/lv_obj_style_gen.h **** }
 366:Drivers/lvgl/lvgl/src/extra/widgets/tabview/../../../../src/core/lv_obj_style_gen.h **** 
 367:Drivers/lvgl/lvgl/src/extra/widgets/tabview/../../../../src/core/lv_obj_style_gen.h **** static inline lv_coord_t lv_obj_get_style_line_width(const struct _lv_obj_t * obj, uint32_t part)
 368:Drivers/lvgl/lvgl/src/extra/widgets/tabview/../../../../src/core/lv_obj_style_gen.h **** {
 369:Drivers/lvgl/lvgl/src/extra/widgets/tabview/../../../../src/core/lv_obj_style_gen.h ****     lv_style_value_t v = lv_obj_get_style_prop(obj, part, LV_STYLE_LINE_WIDTH);
 370:Drivers/lvgl/lvgl/src/extra/widgets/tabview/../../../../src/core/lv_obj_style_gen.h ****     return (lv_coord_t)v.num;
 371:Drivers/lvgl/lvgl/src/extra/widgets/tabview/../../../../src/core/lv_obj_style_gen.h **** }
 372:Drivers/lvgl/lvgl/src/extra/widgets/tabview/../../../../src/core/lv_obj_style_gen.h **** 
 373:Drivers/lvgl/lvgl/src/extra/widgets/tabview/../../../../src/core/lv_obj_style_gen.h **** static inline lv_coord_t lv_obj_get_style_line_dash_width(const struct _lv_obj_t * obj, uint32_t pa
 374:Drivers/lvgl/lvgl/src/extra/widgets/tabview/../../../../src/core/lv_obj_style_gen.h **** {
 375:Drivers/lvgl/lvgl/src/extra/widgets/tabview/../../../../src/core/lv_obj_style_gen.h ****     lv_style_value_t v = lv_obj_get_style_prop(obj, part, LV_STYLE_LINE_DASH_WIDTH);
 376:Drivers/lvgl/lvgl/src/extra/widgets/tabview/../../../../src/core/lv_obj_style_gen.h ****     return (lv_coord_t)v.num;
 377:Drivers/lvgl/lvgl/src/extra/widgets/tabview/../../../../src/core/lv_obj_style_gen.h **** }
 378:Drivers/lvgl/lvgl/src/extra/widgets/tabview/../../../../src/core/lv_obj_style_gen.h **** 
 379:Drivers/lvgl/lvgl/src/extra/widgets/tabview/../../../../src/core/lv_obj_style_gen.h **** static inline lv_coord_t lv_obj_get_style_line_dash_gap(const struct _lv_obj_t * obj, uint32_t part
 380:Drivers/lvgl/lvgl/src/extra/widgets/tabview/../../../../src/core/lv_obj_style_gen.h **** {
 381:Drivers/lvgl/lvgl/src/extra/widgets/tabview/../../../../src/core/lv_obj_style_gen.h ****     lv_style_value_t v = lv_obj_get_style_prop(obj, part, LV_STYLE_LINE_DASH_GAP);
 382:Drivers/lvgl/lvgl/src/extra/widgets/tabview/../../../../src/core/lv_obj_style_gen.h ****     return (lv_coord_t)v.num;
 383:Drivers/lvgl/lvgl/src/extra/widgets/tabview/../../../../src/core/lv_obj_style_gen.h **** }
 384:Drivers/lvgl/lvgl/src/extra/widgets/tabview/../../../../src/core/lv_obj_style_gen.h **** 
 385:Drivers/lvgl/lvgl/src/extra/widgets/tabview/../../../../src/core/lv_obj_style_gen.h **** static inline bool lv_obj_get_style_line_rounded(const struct _lv_obj_t * obj, uint32_t part)
 386:Drivers/lvgl/lvgl/src/extra/widgets/tabview/../../../../src/core/lv_obj_style_gen.h **** {
 387:Drivers/lvgl/lvgl/src/extra/widgets/tabview/../../../../src/core/lv_obj_style_gen.h ****     lv_style_value_t v = lv_obj_get_style_prop(obj, part, LV_STYLE_LINE_ROUNDED);
 388:Drivers/lvgl/lvgl/src/extra/widgets/tabview/../../../../src/core/lv_obj_style_gen.h ****     return (bool)v.num;
 389:Drivers/lvgl/lvgl/src/extra/widgets/tabview/../../../../src/core/lv_obj_style_gen.h **** }
 390:Drivers/lvgl/lvgl/src/extra/widgets/tabview/../../../../src/core/lv_obj_style_gen.h **** 
 391:Drivers/lvgl/lvgl/src/extra/widgets/tabview/../../../../src/core/lv_obj_style_gen.h **** static inline lv_color_t lv_obj_get_style_line_color(const struct _lv_obj_t * obj, uint32_t part)
 392:Drivers/lvgl/lvgl/src/extra/widgets/tabview/../../../../src/core/lv_obj_style_gen.h **** {
 393:Drivers/lvgl/lvgl/src/extra/widgets/tabview/../../../../src/core/lv_obj_style_gen.h ****     lv_style_value_t v = lv_obj_get_style_prop(obj, part, LV_STYLE_LINE_COLOR);
 394:Drivers/lvgl/lvgl/src/extra/widgets/tabview/../../../../src/core/lv_obj_style_gen.h ****     return v.color;
 395:Drivers/lvgl/lvgl/src/extra/widgets/tabview/../../../../src/core/lv_obj_style_gen.h **** }
 396:Drivers/lvgl/lvgl/src/extra/widgets/tabview/../../../../src/core/lv_obj_style_gen.h **** 
 397:Drivers/lvgl/lvgl/src/extra/widgets/tabview/../../../../src/core/lv_obj_style_gen.h **** static inline lv_color_t lv_obj_get_style_line_color_filtered(const struct _lv_obj_t * obj, uint32_
 398:Drivers/lvgl/lvgl/src/extra/widgets/tabview/../../../../src/core/lv_obj_style_gen.h **** {
 399:Drivers/lvgl/lvgl/src/extra/widgets/tabview/../../../../src/core/lv_obj_style_gen.h ****     lv_style_value_t v = _lv_obj_style_apply_color_filter(obj, part, lv_obj_get_style_prop(obj, par
 400:Drivers/lvgl/lvgl/src/extra/widgets/tabview/../../../../src/core/lv_obj_style_gen.h ****     return v.color;
 401:Drivers/lvgl/lvgl/src/extra/widgets/tabview/../../../../src/core/lv_obj_style_gen.h **** }
 402:Drivers/lvgl/lvgl/src/extra/widgets/tabview/../../../../src/core/lv_obj_style_gen.h **** 
 403:Drivers/lvgl/lvgl/src/extra/widgets/tabview/../../../../src/core/lv_obj_style_gen.h **** static inline lv_opa_t lv_obj_get_style_line_opa(const struct _lv_obj_t * obj, uint32_t part)
 404:Drivers/lvgl/lvgl/src/extra/widgets/tabview/../../../../src/core/lv_obj_style_gen.h **** {
 405:Drivers/lvgl/lvgl/src/extra/widgets/tabview/../../../../src/core/lv_obj_style_gen.h ****     lv_style_value_t v = lv_obj_get_style_prop(obj, part, LV_STYLE_LINE_OPA);
 406:Drivers/lvgl/lvgl/src/extra/widgets/tabview/../../../../src/core/lv_obj_style_gen.h ****     return (lv_opa_t)v.num;
 407:Drivers/lvgl/lvgl/src/extra/widgets/tabview/../../../../src/core/lv_obj_style_gen.h **** }
 408:Drivers/lvgl/lvgl/src/extra/widgets/tabview/../../../../src/core/lv_obj_style_gen.h **** 
 409:Drivers/lvgl/lvgl/src/extra/widgets/tabview/../../../../src/core/lv_obj_style_gen.h **** static inline lv_coord_t lv_obj_get_style_arc_width(const struct _lv_obj_t * obj, uint32_t part)
 410:Drivers/lvgl/lvgl/src/extra/widgets/tabview/../../../../src/core/lv_obj_style_gen.h **** {
 411:Drivers/lvgl/lvgl/src/extra/widgets/tabview/../../../../src/core/lv_obj_style_gen.h ****     lv_style_value_t v = lv_obj_get_style_prop(obj, part, LV_STYLE_ARC_WIDTH);
 412:Drivers/lvgl/lvgl/src/extra/widgets/tabview/../../../../src/core/lv_obj_style_gen.h ****     return (lv_coord_t)v.num;
 413:Drivers/lvgl/lvgl/src/extra/widgets/tabview/../../../../src/core/lv_obj_style_gen.h **** }
 414:Drivers/lvgl/lvgl/src/extra/widgets/tabview/../../../../src/core/lv_obj_style_gen.h **** 
 415:Drivers/lvgl/lvgl/src/extra/widgets/tabview/../../../../src/core/lv_obj_style_gen.h **** static inline bool lv_obj_get_style_arc_rounded(const struct _lv_obj_t * obj, uint32_t part)
 416:Drivers/lvgl/lvgl/src/extra/widgets/tabview/../../../../src/core/lv_obj_style_gen.h **** {
 417:Drivers/lvgl/lvgl/src/extra/widgets/tabview/../../../../src/core/lv_obj_style_gen.h ****     lv_style_value_t v = lv_obj_get_style_prop(obj, part, LV_STYLE_ARC_ROUNDED);
 418:Drivers/lvgl/lvgl/src/extra/widgets/tabview/../../../../src/core/lv_obj_style_gen.h ****     return (bool)v.num;
 419:Drivers/lvgl/lvgl/src/extra/widgets/tabview/../../../../src/core/lv_obj_style_gen.h **** }
 420:Drivers/lvgl/lvgl/src/extra/widgets/tabview/../../../../src/core/lv_obj_style_gen.h **** 
ARM GAS  /tmp/ccEbr1hb.s 			page 26


 421:Drivers/lvgl/lvgl/src/extra/widgets/tabview/../../../../src/core/lv_obj_style_gen.h **** static inline lv_color_t lv_obj_get_style_arc_color(const struct _lv_obj_t * obj, uint32_t part)
 422:Drivers/lvgl/lvgl/src/extra/widgets/tabview/../../../../src/core/lv_obj_style_gen.h **** {
 423:Drivers/lvgl/lvgl/src/extra/widgets/tabview/../../../../src/core/lv_obj_style_gen.h ****     lv_style_value_t v = lv_obj_get_style_prop(obj, part, LV_STYLE_ARC_COLOR);
 424:Drivers/lvgl/lvgl/src/extra/widgets/tabview/../../../../src/core/lv_obj_style_gen.h ****     return v.color;
 425:Drivers/lvgl/lvgl/src/extra/widgets/tabview/../../../../src/core/lv_obj_style_gen.h **** }
 426:Drivers/lvgl/lvgl/src/extra/widgets/tabview/../../../../src/core/lv_obj_style_gen.h **** 
 427:Drivers/lvgl/lvgl/src/extra/widgets/tabview/../../../../src/core/lv_obj_style_gen.h **** static inline lv_color_t lv_obj_get_style_arc_color_filtered(const struct _lv_obj_t * obj, uint32_t
 428:Drivers/lvgl/lvgl/src/extra/widgets/tabview/../../../../src/core/lv_obj_style_gen.h **** {
 429:Drivers/lvgl/lvgl/src/extra/widgets/tabview/../../../../src/core/lv_obj_style_gen.h ****     lv_style_value_t v = _lv_obj_style_apply_color_filter(obj, part, lv_obj_get_style_prop(obj, par
 430:Drivers/lvgl/lvgl/src/extra/widgets/tabview/../../../../src/core/lv_obj_style_gen.h ****     return v.color;
 431:Drivers/lvgl/lvgl/src/extra/widgets/tabview/../../../../src/core/lv_obj_style_gen.h **** }
 432:Drivers/lvgl/lvgl/src/extra/widgets/tabview/../../../../src/core/lv_obj_style_gen.h **** 
 433:Drivers/lvgl/lvgl/src/extra/widgets/tabview/../../../../src/core/lv_obj_style_gen.h **** static inline lv_opa_t lv_obj_get_style_arc_opa(const struct _lv_obj_t * obj, uint32_t part)
 434:Drivers/lvgl/lvgl/src/extra/widgets/tabview/../../../../src/core/lv_obj_style_gen.h **** {
 435:Drivers/lvgl/lvgl/src/extra/widgets/tabview/../../../../src/core/lv_obj_style_gen.h ****     lv_style_value_t v = lv_obj_get_style_prop(obj, part, LV_STYLE_ARC_OPA);
 436:Drivers/lvgl/lvgl/src/extra/widgets/tabview/../../../../src/core/lv_obj_style_gen.h ****     return (lv_opa_t)v.num;
 437:Drivers/lvgl/lvgl/src/extra/widgets/tabview/../../../../src/core/lv_obj_style_gen.h **** }
 438:Drivers/lvgl/lvgl/src/extra/widgets/tabview/../../../../src/core/lv_obj_style_gen.h **** 
 439:Drivers/lvgl/lvgl/src/extra/widgets/tabview/../../../../src/core/lv_obj_style_gen.h **** static inline const void * lv_obj_get_style_arc_img_src(const struct _lv_obj_t * obj, uint32_t part
 440:Drivers/lvgl/lvgl/src/extra/widgets/tabview/../../../../src/core/lv_obj_style_gen.h **** {
 441:Drivers/lvgl/lvgl/src/extra/widgets/tabview/../../../../src/core/lv_obj_style_gen.h ****     lv_style_value_t v = lv_obj_get_style_prop(obj, part, LV_STYLE_ARC_IMG_SRC);
 442:Drivers/lvgl/lvgl/src/extra/widgets/tabview/../../../../src/core/lv_obj_style_gen.h ****     return (const void *)v.ptr;
 443:Drivers/lvgl/lvgl/src/extra/widgets/tabview/../../../../src/core/lv_obj_style_gen.h **** }
 444:Drivers/lvgl/lvgl/src/extra/widgets/tabview/../../../../src/core/lv_obj_style_gen.h **** 
 445:Drivers/lvgl/lvgl/src/extra/widgets/tabview/../../../../src/core/lv_obj_style_gen.h **** static inline lv_color_t lv_obj_get_style_text_color(const struct _lv_obj_t * obj, uint32_t part)
 446:Drivers/lvgl/lvgl/src/extra/widgets/tabview/../../../../src/core/lv_obj_style_gen.h **** {
 447:Drivers/lvgl/lvgl/src/extra/widgets/tabview/../../../../src/core/lv_obj_style_gen.h ****     lv_style_value_t v = lv_obj_get_style_prop(obj, part, LV_STYLE_TEXT_COLOR);
 448:Drivers/lvgl/lvgl/src/extra/widgets/tabview/../../../../src/core/lv_obj_style_gen.h ****     return v.color;
 449:Drivers/lvgl/lvgl/src/extra/widgets/tabview/../../../../src/core/lv_obj_style_gen.h **** }
 450:Drivers/lvgl/lvgl/src/extra/widgets/tabview/../../../../src/core/lv_obj_style_gen.h **** 
 451:Drivers/lvgl/lvgl/src/extra/widgets/tabview/../../../../src/core/lv_obj_style_gen.h **** static inline lv_color_t lv_obj_get_style_text_color_filtered(const struct _lv_obj_t * obj, uint32_
 452:Drivers/lvgl/lvgl/src/extra/widgets/tabview/../../../../src/core/lv_obj_style_gen.h **** {
 453:Drivers/lvgl/lvgl/src/extra/widgets/tabview/../../../../src/core/lv_obj_style_gen.h ****     lv_style_value_t v = _lv_obj_style_apply_color_filter(obj, part, lv_obj_get_style_prop(obj, par
 454:Drivers/lvgl/lvgl/src/extra/widgets/tabview/../../../../src/core/lv_obj_style_gen.h ****     return v.color;
 455:Drivers/lvgl/lvgl/src/extra/widgets/tabview/../../../../src/core/lv_obj_style_gen.h **** }
 456:Drivers/lvgl/lvgl/src/extra/widgets/tabview/../../../../src/core/lv_obj_style_gen.h **** 
 457:Drivers/lvgl/lvgl/src/extra/widgets/tabview/../../../../src/core/lv_obj_style_gen.h **** static inline lv_opa_t lv_obj_get_style_text_opa(const struct _lv_obj_t * obj, uint32_t part)
 458:Drivers/lvgl/lvgl/src/extra/widgets/tabview/../../../../src/core/lv_obj_style_gen.h **** {
 459:Drivers/lvgl/lvgl/src/extra/widgets/tabview/../../../../src/core/lv_obj_style_gen.h ****     lv_style_value_t v = lv_obj_get_style_prop(obj, part, LV_STYLE_TEXT_OPA);
 460:Drivers/lvgl/lvgl/src/extra/widgets/tabview/../../../../src/core/lv_obj_style_gen.h ****     return (lv_opa_t)v.num;
 461:Drivers/lvgl/lvgl/src/extra/widgets/tabview/../../../../src/core/lv_obj_style_gen.h **** }
 462:Drivers/lvgl/lvgl/src/extra/widgets/tabview/../../../../src/core/lv_obj_style_gen.h **** 
 463:Drivers/lvgl/lvgl/src/extra/widgets/tabview/../../../../src/core/lv_obj_style_gen.h **** static inline const lv_font_t * lv_obj_get_style_text_font(const struct _lv_obj_t * obj, uint32_t p
 464:Drivers/lvgl/lvgl/src/extra/widgets/tabview/../../../../src/core/lv_obj_style_gen.h **** {
 465:Drivers/lvgl/lvgl/src/extra/widgets/tabview/../../../../src/core/lv_obj_style_gen.h ****     lv_style_value_t v = lv_obj_get_style_prop(obj, part, LV_STYLE_TEXT_FONT);
 466:Drivers/lvgl/lvgl/src/extra/widgets/tabview/../../../../src/core/lv_obj_style_gen.h ****     return (const lv_font_t *)v.ptr;
 467:Drivers/lvgl/lvgl/src/extra/widgets/tabview/../../../../src/core/lv_obj_style_gen.h **** }
 468:Drivers/lvgl/lvgl/src/extra/widgets/tabview/../../../../src/core/lv_obj_style_gen.h **** 
 469:Drivers/lvgl/lvgl/src/extra/widgets/tabview/../../../../src/core/lv_obj_style_gen.h **** static inline lv_coord_t lv_obj_get_style_text_letter_space(const struct _lv_obj_t * obj, uint32_t 
 470:Drivers/lvgl/lvgl/src/extra/widgets/tabview/../../../../src/core/lv_obj_style_gen.h **** {
 471:Drivers/lvgl/lvgl/src/extra/widgets/tabview/../../../../src/core/lv_obj_style_gen.h ****     lv_style_value_t v = lv_obj_get_style_prop(obj, part, LV_STYLE_TEXT_LETTER_SPACE);
 472:Drivers/lvgl/lvgl/src/extra/widgets/tabview/../../../../src/core/lv_obj_style_gen.h ****     return (lv_coord_t)v.num;
 473:Drivers/lvgl/lvgl/src/extra/widgets/tabview/../../../../src/core/lv_obj_style_gen.h **** }
 474:Drivers/lvgl/lvgl/src/extra/widgets/tabview/../../../../src/core/lv_obj_style_gen.h **** 
 475:Drivers/lvgl/lvgl/src/extra/widgets/tabview/../../../../src/core/lv_obj_style_gen.h **** static inline lv_coord_t lv_obj_get_style_text_line_space(const struct _lv_obj_t * obj, uint32_t pa
 476:Drivers/lvgl/lvgl/src/extra/widgets/tabview/../../../../src/core/lv_obj_style_gen.h **** {
 477:Drivers/lvgl/lvgl/src/extra/widgets/tabview/../../../../src/core/lv_obj_style_gen.h ****     lv_style_value_t v = lv_obj_get_style_prop(obj, part, LV_STYLE_TEXT_LINE_SPACE);
ARM GAS  /tmp/ccEbr1hb.s 			page 27


 478:Drivers/lvgl/lvgl/src/extra/widgets/tabview/../../../../src/core/lv_obj_style_gen.h ****     return (lv_coord_t)v.num;
 479:Drivers/lvgl/lvgl/src/extra/widgets/tabview/../../../../src/core/lv_obj_style_gen.h **** }
 480:Drivers/lvgl/lvgl/src/extra/widgets/tabview/../../../../src/core/lv_obj_style_gen.h **** 
 481:Drivers/lvgl/lvgl/src/extra/widgets/tabview/../../../../src/core/lv_obj_style_gen.h **** static inline lv_text_decor_t lv_obj_get_style_text_decor(const struct _lv_obj_t * obj, uint32_t pa
 482:Drivers/lvgl/lvgl/src/extra/widgets/tabview/../../../../src/core/lv_obj_style_gen.h **** {
 483:Drivers/lvgl/lvgl/src/extra/widgets/tabview/../../../../src/core/lv_obj_style_gen.h ****     lv_style_value_t v = lv_obj_get_style_prop(obj, part, LV_STYLE_TEXT_DECOR);
 484:Drivers/lvgl/lvgl/src/extra/widgets/tabview/../../../../src/core/lv_obj_style_gen.h ****     return (lv_text_decor_t)v.num;
 485:Drivers/lvgl/lvgl/src/extra/widgets/tabview/../../../../src/core/lv_obj_style_gen.h **** }
 486:Drivers/lvgl/lvgl/src/extra/widgets/tabview/../../../../src/core/lv_obj_style_gen.h **** 
 487:Drivers/lvgl/lvgl/src/extra/widgets/tabview/../../../../src/core/lv_obj_style_gen.h **** static inline lv_text_align_t lv_obj_get_style_text_align(const struct _lv_obj_t * obj, uint32_t pa
 488:Drivers/lvgl/lvgl/src/extra/widgets/tabview/../../../../src/core/lv_obj_style_gen.h **** {
 489:Drivers/lvgl/lvgl/src/extra/widgets/tabview/../../../../src/core/lv_obj_style_gen.h ****     lv_style_value_t v = lv_obj_get_style_prop(obj, part, LV_STYLE_TEXT_ALIGN);
 490:Drivers/lvgl/lvgl/src/extra/widgets/tabview/../../../../src/core/lv_obj_style_gen.h ****     return (lv_text_align_t)v.num;
 491:Drivers/lvgl/lvgl/src/extra/widgets/tabview/../../../../src/core/lv_obj_style_gen.h **** }
 492:Drivers/lvgl/lvgl/src/extra/widgets/tabview/../../../../src/core/lv_obj_style_gen.h **** 
 493:Drivers/lvgl/lvgl/src/extra/widgets/tabview/../../../../src/core/lv_obj_style_gen.h **** static inline lv_coord_t lv_obj_get_style_radius(const struct _lv_obj_t * obj, uint32_t part)
 494:Drivers/lvgl/lvgl/src/extra/widgets/tabview/../../../../src/core/lv_obj_style_gen.h **** {
 495:Drivers/lvgl/lvgl/src/extra/widgets/tabview/../../../../src/core/lv_obj_style_gen.h ****     lv_style_value_t v = lv_obj_get_style_prop(obj, part, LV_STYLE_RADIUS);
 496:Drivers/lvgl/lvgl/src/extra/widgets/tabview/../../../../src/core/lv_obj_style_gen.h ****     return (lv_coord_t)v.num;
 497:Drivers/lvgl/lvgl/src/extra/widgets/tabview/../../../../src/core/lv_obj_style_gen.h **** }
 498:Drivers/lvgl/lvgl/src/extra/widgets/tabview/../../../../src/core/lv_obj_style_gen.h **** 
 499:Drivers/lvgl/lvgl/src/extra/widgets/tabview/../../../../src/core/lv_obj_style_gen.h **** static inline bool lv_obj_get_style_clip_corner(const struct _lv_obj_t * obj, uint32_t part)
 500:Drivers/lvgl/lvgl/src/extra/widgets/tabview/../../../../src/core/lv_obj_style_gen.h **** {
 501:Drivers/lvgl/lvgl/src/extra/widgets/tabview/../../../../src/core/lv_obj_style_gen.h ****     lv_style_value_t v = lv_obj_get_style_prop(obj, part, LV_STYLE_CLIP_CORNER);
 502:Drivers/lvgl/lvgl/src/extra/widgets/tabview/../../../../src/core/lv_obj_style_gen.h ****     return (bool)v.num;
 503:Drivers/lvgl/lvgl/src/extra/widgets/tabview/../../../../src/core/lv_obj_style_gen.h **** }
 504:Drivers/lvgl/lvgl/src/extra/widgets/tabview/../../../../src/core/lv_obj_style_gen.h **** 
 505:Drivers/lvgl/lvgl/src/extra/widgets/tabview/../../../../src/core/lv_obj_style_gen.h **** static inline lv_opa_t lv_obj_get_style_opa(const struct _lv_obj_t * obj, uint32_t part)
 506:Drivers/lvgl/lvgl/src/extra/widgets/tabview/../../../../src/core/lv_obj_style_gen.h **** {
 507:Drivers/lvgl/lvgl/src/extra/widgets/tabview/../../../../src/core/lv_obj_style_gen.h ****     lv_style_value_t v = lv_obj_get_style_prop(obj, part, LV_STYLE_OPA);
 508:Drivers/lvgl/lvgl/src/extra/widgets/tabview/../../../../src/core/lv_obj_style_gen.h ****     return (lv_opa_t)v.num;
 509:Drivers/lvgl/lvgl/src/extra/widgets/tabview/../../../../src/core/lv_obj_style_gen.h **** }
 510:Drivers/lvgl/lvgl/src/extra/widgets/tabview/../../../../src/core/lv_obj_style_gen.h **** 
 511:Drivers/lvgl/lvgl/src/extra/widgets/tabview/../../../../src/core/lv_obj_style_gen.h **** static inline const lv_color_filter_dsc_t * lv_obj_get_style_color_filter_dsc(const struct _lv_obj_
 512:Drivers/lvgl/lvgl/src/extra/widgets/tabview/../../../../src/core/lv_obj_style_gen.h **** {
 513:Drivers/lvgl/lvgl/src/extra/widgets/tabview/../../../../src/core/lv_obj_style_gen.h ****     lv_style_value_t v = lv_obj_get_style_prop(obj, part, LV_STYLE_COLOR_FILTER_DSC);
 514:Drivers/lvgl/lvgl/src/extra/widgets/tabview/../../../../src/core/lv_obj_style_gen.h ****     return (const lv_color_filter_dsc_t *)v.ptr;
 515:Drivers/lvgl/lvgl/src/extra/widgets/tabview/../../../../src/core/lv_obj_style_gen.h **** }
 516:Drivers/lvgl/lvgl/src/extra/widgets/tabview/../../../../src/core/lv_obj_style_gen.h **** 
 517:Drivers/lvgl/lvgl/src/extra/widgets/tabview/../../../../src/core/lv_obj_style_gen.h **** static inline lv_opa_t lv_obj_get_style_color_filter_opa(const struct _lv_obj_t * obj, uint32_t par
 518:Drivers/lvgl/lvgl/src/extra/widgets/tabview/../../../../src/core/lv_obj_style_gen.h **** {
 519:Drivers/lvgl/lvgl/src/extra/widgets/tabview/../../../../src/core/lv_obj_style_gen.h ****     lv_style_value_t v = lv_obj_get_style_prop(obj, part, LV_STYLE_COLOR_FILTER_OPA);
 520:Drivers/lvgl/lvgl/src/extra/widgets/tabview/../../../../src/core/lv_obj_style_gen.h ****     return (lv_opa_t)v.num;
 521:Drivers/lvgl/lvgl/src/extra/widgets/tabview/../../../../src/core/lv_obj_style_gen.h **** }
 522:Drivers/lvgl/lvgl/src/extra/widgets/tabview/../../../../src/core/lv_obj_style_gen.h **** 
 523:Drivers/lvgl/lvgl/src/extra/widgets/tabview/../../../../src/core/lv_obj_style_gen.h **** static inline const lv_anim_t * lv_obj_get_style_anim(const struct _lv_obj_t * obj, uint32_t part)
 524:Drivers/lvgl/lvgl/src/extra/widgets/tabview/../../../../src/core/lv_obj_style_gen.h **** {
 525:Drivers/lvgl/lvgl/src/extra/widgets/tabview/../../../../src/core/lv_obj_style_gen.h ****     lv_style_value_t v = lv_obj_get_style_prop(obj, part, LV_STYLE_ANIM);
 526:Drivers/lvgl/lvgl/src/extra/widgets/tabview/../../../../src/core/lv_obj_style_gen.h ****     return (const lv_anim_t *)v.ptr;
 527:Drivers/lvgl/lvgl/src/extra/widgets/tabview/../../../../src/core/lv_obj_style_gen.h **** }
 528:Drivers/lvgl/lvgl/src/extra/widgets/tabview/../../../../src/core/lv_obj_style_gen.h **** 
 529:Drivers/lvgl/lvgl/src/extra/widgets/tabview/../../../../src/core/lv_obj_style_gen.h **** static inline uint32_t lv_obj_get_style_anim_time(const struct _lv_obj_t * obj, uint32_t part)
 530:Drivers/lvgl/lvgl/src/extra/widgets/tabview/../../../../src/core/lv_obj_style_gen.h **** {
 531:Drivers/lvgl/lvgl/src/extra/widgets/tabview/../../../../src/core/lv_obj_style_gen.h ****     lv_style_value_t v = lv_obj_get_style_prop(obj, part, LV_STYLE_ANIM_TIME);
 532:Drivers/lvgl/lvgl/src/extra/widgets/tabview/../../../../src/core/lv_obj_style_gen.h ****     return (uint32_t)v.num;
 533:Drivers/lvgl/lvgl/src/extra/widgets/tabview/../../../../src/core/lv_obj_style_gen.h **** }
 534:Drivers/lvgl/lvgl/src/extra/widgets/tabview/../../../../src/core/lv_obj_style_gen.h **** 
ARM GAS  /tmp/ccEbr1hb.s 			page 28


 535:Drivers/lvgl/lvgl/src/extra/widgets/tabview/../../../../src/core/lv_obj_style_gen.h **** static inline uint32_t lv_obj_get_style_anim_speed(const struct _lv_obj_t * obj, uint32_t part)
 536:Drivers/lvgl/lvgl/src/extra/widgets/tabview/../../../../src/core/lv_obj_style_gen.h **** {
 537:Drivers/lvgl/lvgl/src/extra/widgets/tabview/../../../../src/core/lv_obj_style_gen.h ****     lv_style_value_t v = lv_obj_get_style_prop(obj, part, LV_STYLE_ANIM_SPEED);
 538:Drivers/lvgl/lvgl/src/extra/widgets/tabview/../../../../src/core/lv_obj_style_gen.h ****     return (uint32_t)v.num;
 539:Drivers/lvgl/lvgl/src/extra/widgets/tabview/../../../../src/core/lv_obj_style_gen.h **** }
 540:Drivers/lvgl/lvgl/src/extra/widgets/tabview/../../../../src/core/lv_obj_style_gen.h **** 
 541:Drivers/lvgl/lvgl/src/extra/widgets/tabview/../../../../src/core/lv_obj_style_gen.h **** static inline const lv_style_transition_dsc_t * lv_obj_get_style_transition(const struct _lv_obj_t 
 542:Drivers/lvgl/lvgl/src/extra/widgets/tabview/../../../../src/core/lv_obj_style_gen.h **** {
 543:Drivers/lvgl/lvgl/src/extra/widgets/tabview/../../../../src/core/lv_obj_style_gen.h ****     lv_style_value_t v = lv_obj_get_style_prop(obj, part, LV_STYLE_TRANSITION);
 544:Drivers/lvgl/lvgl/src/extra/widgets/tabview/../../../../src/core/lv_obj_style_gen.h ****     return (const lv_style_transition_dsc_t *)v.ptr;
 545:Drivers/lvgl/lvgl/src/extra/widgets/tabview/../../../../src/core/lv_obj_style_gen.h **** }
 546:Drivers/lvgl/lvgl/src/extra/widgets/tabview/../../../../src/core/lv_obj_style_gen.h **** 
 547:Drivers/lvgl/lvgl/src/extra/widgets/tabview/../../../../src/core/lv_obj_style_gen.h **** static inline lv_blend_mode_t lv_obj_get_style_blend_mode(const struct _lv_obj_t * obj, uint32_t pa
 548:Drivers/lvgl/lvgl/src/extra/widgets/tabview/../../../../src/core/lv_obj_style_gen.h **** {
 549:Drivers/lvgl/lvgl/src/extra/widgets/tabview/../../../../src/core/lv_obj_style_gen.h ****     lv_style_value_t v = lv_obj_get_style_prop(obj, part, LV_STYLE_BLEND_MODE);
 550:Drivers/lvgl/lvgl/src/extra/widgets/tabview/../../../../src/core/lv_obj_style_gen.h ****     return (lv_blend_mode_t)v.num;
 551:Drivers/lvgl/lvgl/src/extra/widgets/tabview/../../../../src/core/lv_obj_style_gen.h **** }
 552:Drivers/lvgl/lvgl/src/extra/widgets/tabview/../../../../src/core/lv_obj_style_gen.h **** 
 553:Drivers/lvgl/lvgl/src/extra/widgets/tabview/../../../../src/core/lv_obj_style_gen.h **** static inline uint16_t lv_obj_get_style_layout(const struct _lv_obj_t * obj, uint32_t part)
 554:Drivers/lvgl/lvgl/src/extra/widgets/tabview/../../../../src/core/lv_obj_style_gen.h **** {
 555:Drivers/lvgl/lvgl/src/extra/widgets/tabview/../../../../src/core/lv_obj_style_gen.h ****     lv_style_value_t v = lv_obj_get_style_prop(obj, part, LV_STYLE_LAYOUT);
 556:Drivers/lvgl/lvgl/src/extra/widgets/tabview/../../../../src/core/lv_obj_style_gen.h ****     return (uint16_t)v.num;
 557:Drivers/lvgl/lvgl/src/extra/widgets/tabview/../../../../src/core/lv_obj_style_gen.h **** }
 558:Drivers/lvgl/lvgl/src/extra/widgets/tabview/../../../../src/core/lv_obj_style_gen.h **** 
 559:Drivers/lvgl/lvgl/src/extra/widgets/tabview/../../../../src/core/lv_obj_style_gen.h **** static inline lv_base_dir_t lv_obj_get_style_base_dir(const struct _lv_obj_t * obj, uint32_t part)
 560:Drivers/lvgl/lvgl/src/extra/widgets/tabview/../../../../src/core/lv_obj_style_gen.h **** {
 561:Drivers/lvgl/lvgl/src/extra/widgets/tabview/../../../../src/core/lv_obj_style_gen.h ****     lv_style_value_t v = lv_obj_get_style_prop(obj, part, LV_STYLE_BASE_DIR);
 655              		.loc 2 561 0
 656 0040 1622     		movs	r2, #22
 657 0042 0021     		movs	r1, #0
 658 0044 2046     		mov	r0, r4
 659 0046 FFF7FEFF 		bl	lv_obj_get_style_prop
 660              	.LVL92:
 562:Drivers/lvgl/lvgl/src/extra/widgets/tabview/../../../../src/core/lv_obj_style_gen.h ****     return (lv_base_dir_t)v.num;
 661              		.loc 2 562 0
 662 004a C0B2     		uxtb	r0, r0
 663              	.LVL93:
 664              	.LBE24:
 665              	.LBE23:
 156:Drivers/lvgl/lvgl/src/extra/widgets/tabview/lv_tabview.c ****             lv_obj_scroll_to_x(cont, id * (gap + w), anim_en);
 666              		.loc 1 156 0
 667 004c 0128     		cmp	r0, #1
 668 004e 09D0     		beq	.L46
 157:Drivers/lvgl/lvgl/src/extra/widgets/tabview/lv_tabview.c ****         }
 669              		.loc 1 157 0
 670 0050 07EB0901 		add	r1, r7, r9
 671 0054 11FB05F1 		smulbb	r1, r1, r5
 672 0058 4246     		mov	r2, r8
 673 005a 09B2     		sxth	r1, r1
 674 005c 3046     		mov	r0, r6
 675 005e FFF7FEFF 		bl	lv_obj_scroll_to_x
 676              	.LVL94:
 677 0062 19E0     		b	.L47
 678              	.L46:
 679              	.LBB25:
 160:Drivers/lvgl/lvgl/src/extra/widgets/tabview/lv_tabview.c ****             lv_obj_scroll_to_x(cont, (gap + w) * id_rtl, anim_en);
 680              		.loc 1 160 0
ARM GAS  /tmp/ccEbr1hb.s 			page 29


 681 0064 6942     		negs	r1, r5
 161:Drivers/lvgl/lvgl/src/extra/widgets/tabview/lv_tabview.c ****         }
 682              		.loc 1 161 0
 683 0066 4F44     		add	r7, r7, r9
 684 0068 17FB01F1 		smulbb	r1, r7, r1
 685 006c 4246     		mov	r2, r8
 686 006e 09B2     		sxth	r1, r1
 687 0070 3046     		mov	r0, r6
 688 0072 FFF7FEFF 		bl	lv_obj_scroll_to_x
 689              	.LVL95:
 690 0076 0FE0     		b	.L47
 691              	.LVL96:
 692              	.L45:
 693              	.LBE25:
 694              	.LBE20:
 695              	.LBB26:
 696              	.LBB27:
 697              	.LBB28:
 129:Drivers/lvgl/lvgl/src/extra/widgets/tabview/../../../../src/core/lv_obj_style_gen.h ****     return (lv_coord_t)v.num;
 698              		.loc 2 129 0
 699 0078 1422     		movs	r2, #20
 700 007a 0021     		movs	r1, #0
 701 007c FFF7FEFF 		bl	lv_obj_get_style_prop
 702              	.LVL97:
 130:Drivers/lvgl/lvgl/src/extra/widgets/tabview/../../../../src/core/lv_obj_style_gen.h **** }
 703              		.loc 2 130 0
 704 0080 07B2     		sxth	r7, r0
 705              	.LVL98:
 706              	.LBE28:
 707              	.LBE27:
 166:Drivers/lvgl/lvgl/src/extra/widgets/tabview/lv_tabview.c ****         lv_obj_scroll_to_y(cont, id * (gap + h), anim_en);
 708              		.loc 1 166 0
 709 0082 3046     		mov	r0, r6
 710 0084 FFF7FEFF 		bl	lv_obj_get_content_height
 711              	.LVL99:
 167:Drivers/lvgl/lvgl/src/extra/widgets/tabview/lv_tabview.c ****     }
 712              		.loc 1 167 0
 713 0088 3844     		add	r0, r0, r7
 714              	.LVL100:
 715 008a 10FB05F1 		smulbb	r1, r0, r5
 716 008e 4246     		mov	r2, r8
 717 0090 09B2     		sxth	r1, r1
 718 0092 3046     		mov	r0, r6
 719 0094 FFF7FEFF 		bl	lv_obj_scroll_to_y
 720              	.LVL101:
 721              	.L47:
 722              	.LBE26:
 170:Drivers/lvgl/lvgl/src/extra/widgets/tabview/lv_tabview.c ****     lv_btnmatrix_set_btn_ctrl(btns, id, LV_BTNMATRIX_CTRL_CHECKED);
 723              		.loc 1 170 0
 724 0098 2046     		mov	r0, r4
 725 009a FFF7FEFF 		bl	lv_tabview_get_tab_btns
 726              	.LVL102:
 171:Drivers/lvgl/lvgl/src/extra/widgets/tabview/lv_tabview.c ****     tabview->tab_cur = id;
 727              		.loc 1 171 0
 728 009e ADB2     		uxth	r5, r5
 729              	.LVL103:
 730 00a0 4FF48072 		mov	r2, #256
ARM GAS  /tmp/ccEbr1hb.s 			page 30


 731 00a4 2946     		mov	r1, r5
 732 00a6 FFF7FEFF 		bl	lv_btnmatrix_set_btn_ctrl
 733              	.LVL104:
 172:Drivers/lvgl/lvgl/src/extra/widgets/tabview/lv_tabview.c **** }
 734              		.loc 1 172 0
 735 00aa 6585     		strh	r5, [r4, #42]	@ movhi
 736              	.L42:
 173:Drivers/lvgl/lvgl/src/extra/widgets/tabview/lv_tabview.c **** 
 737              		.loc 1 173 0
 738 00ac BDE8F883 		pop	{r3, r4, r5, r6, r7, r8, r9, pc}
 739              		.cfi_endproc
 740              	.LFE205:
 742              		.section	.text.lv_tabview_event,"ax",%progbits
 743              		.align	1
 744              		.syntax unified
 745              		.thumb
 746              		.thumb_func
 747              		.fpu fpv5-d16
 749              	lv_tabview_event:
 750              	.LFB211:
 289:Drivers/lvgl/lvgl/src/extra/widgets/tabview/lv_tabview.c **** 
 290:Drivers/lvgl/lvgl/src/extra/widgets/tabview/lv_tabview.c **** static void lv_tabview_event(const lv_obj_class_t * class_p, lv_event_t * e)
 291:Drivers/lvgl/lvgl/src/extra/widgets/tabview/lv_tabview.c **** {
 751              		.loc 1 291 0
 752              		.cfi_startproc
 753              		@ args = 0, pretend = 0, frame = 0
 754              		@ frame_needed = 0, uses_anonymous_args = 0
 755              	.LVL105:
 756 0000 38B5     		push	{r3, r4, r5, lr}
 757              	.LCFI7:
 758              		.cfi_def_cfa_offset 16
 759              		.cfi_offset 3, -16
 760              		.cfi_offset 4, -12
 761              		.cfi_offset 5, -8
 762              		.cfi_offset 14, -4
 763 0002 0C46     		mov	r4, r1
 292:Drivers/lvgl/lvgl/src/extra/widgets/tabview/lv_tabview.c ****     LV_UNUSED(class_p);
 293:Drivers/lvgl/lvgl/src/extra/widgets/tabview/lv_tabview.c ****     lv_res_t res = lv_obj_event_base(&lv_tabview_class, e);
 764              		.loc 1 293 0
 765 0004 0B48     		ldr	r0, .L53
 766              	.LVL106:
 767 0006 FFF7FEFF 		bl	lv_obj_event_base
 768              	.LVL107:
 294:Drivers/lvgl/lvgl/src/extra/widgets/tabview/lv_tabview.c ****     if(res != LV_RES_OK) return;
 769              		.loc 1 294 0
 770 000a 0128     		cmp	r0, #1
 771 000c 00D0     		beq	.L52
 772              	.LVL108:
 773              	.L49:
 295:Drivers/lvgl/lvgl/src/extra/widgets/tabview/lv_tabview.c **** 
 296:Drivers/lvgl/lvgl/src/extra/widgets/tabview/lv_tabview.c ****     lv_event_code_t code = lv_event_get_code(e);
 297:Drivers/lvgl/lvgl/src/extra/widgets/tabview/lv_tabview.c ****     lv_obj_t * target = lv_event_get_target(e);
 298:Drivers/lvgl/lvgl/src/extra/widgets/tabview/lv_tabview.c **** 
 299:Drivers/lvgl/lvgl/src/extra/widgets/tabview/lv_tabview.c ****     if(code == LV_EVENT_SIZE_CHANGED) {
 300:Drivers/lvgl/lvgl/src/extra/widgets/tabview/lv_tabview.c ****         lv_tabview_set_act(target, lv_tabview_get_tab_act(target), LV_ANIM_OFF);
 301:Drivers/lvgl/lvgl/src/extra/widgets/tabview/lv_tabview.c ****     }
 302:Drivers/lvgl/lvgl/src/extra/widgets/tabview/lv_tabview.c **** }
ARM GAS  /tmp/ccEbr1hb.s 			page 31


 774              		.loc 1 302 0
 775 000e 38BD     		pop	{r3, r4, r5, pc}
 776              	.LVL109:
 777              	.L52:
 296:Drivers/lvgl/lvgl/src/extra/widgets/tabview/lv_tabview.c ****     lv_obj_t * target = lv_event_get_target(e);
 778              		.loc 1 296 0
 779 0010 2046     		mov	r0, r4
 780              	.LVL110:
 781 0012 FFF7FEFF 		bl	lv_event_get_code
 782              	.LVL111:
 783 0016 0546     		mov	r5, r0
 784              	.LVL112:
 297:Drivers/lvgl/lvgl/src/extra/widgets/tabview/lv_tabview.c **** 
 785              		.loc 1 297 0
 786 0018 2046     		mov	r0, r4
 787 001a FFF7FEFF 		bl	lv_event_get_target
 788              	.LVL113:
 789 001e 0446     		mov	r4, r0
 790              	.LVL114:
 299:Drivers/lvgl/lvgl/src/extra/widgets/tabview/lv_tabview.c ****         lv_tabview_set_act(target, lv_tabview_get_tab_act(target), LV_ANIM_OFF);
 791              		.loc 1 299 0
 792 0020 292D     		cmp	r5, #41
 793 0022 F4D1     		bne	.L49
 300:Drivers/lvgl/lvgl/src/extra/widgets/tabview/lv_tabview.c ****     }
 794              		.loc 1 300 0
 795 0024 FFF7FEFF 		bl	lv_tabview_get_tab_act
 796              	.LVL115:
 797 0028 0022     		movs	r2, #0
 798 002a 0146     		mov	r1, r0
 799 002c 2046     		mov	r0, r4
 800 002e FFF7FEFF 		bl	lv_tabview_set_act
 801              	.LVL116:
 802 0032 ECE7     		b	.L49
 803              	.L54:
 804              		.align	2
 805              	.L53:
 806 0034 00000000 		.word	.LANCHOR2
 807              		.cfi_endproc
 808              	.LFE211:
 810              		.section	.text.cont_scroll_end_event_cb,"ax",%progbits
 811              		.align	1
 812              		.syntax unified
 813              		.thumb
 814              		.thumb_func
 815              		.fpu fpv5-d16
 817              	cont_scroll_end_event_cb:
 818              	.LFB213:
 303:Drivers/lvgl/lvgl/src/extra/widgets/tabview/lv_tabview.c **** 
 304:Drivers/lvgl/lvgl/src/extra/widgets/tabview/lv_tabview.c **** 
 305:Drivers/lvgl/lvgl/src/extra/widgets/tabview/lv_tabview.c **** static void btns_value_changed_event_cb(lv_event_t * e)
 306:Drivers/lvgl/lvgl/src/extra/widgets/tabview/lv_tabview.c **** {
 307:Drivers/lvgl/lvgl/src/extra/widgets/tabview/lv_tabview.c ****     lv_obj_t * btns = lv_event_get_target(e);
 308:Drivers/lvgl/lvgl/src/extra/widgets/tabview/lv_tabview.c **** 
 309:Drivers/lvgl/lvgl/src/extra/widgets/tabview/lv_tabview.c ****     lv_obj_t * tv = lv_obj_get_parent(btns);
 310:Drivers/lvgl/lvgl/src/extra/widgets/tabview/lv_tabview.c ****     uint32_t id = lv_btnmatrix_get_selected_btn(btns);
 311:Drivers/lvgl/lvgl/src/extra/widgets/tabview/lv_tabview.c ****     lv_tabview_set_act(tv, id, LV_ANIM_ON);
 312:Drivers/lvgl/lvgl/src/extra/widgets/tabview/lv_tabview.c **** }
ARM GAS  /tmp/ccEbr1hb.s 			page 32


 313:Drivers/lvgl/lvgl/src/extra/widgets/tabview/lv_tabview.c **** 
 314:Drivers/lvgl/lvgl/src/extra/widgets/tabview/lv_tabview.c **** static void cont_scroll_end_event_cb(lv_event_t * e)
 315:Drivers/lvgl/lvgl/src/extra/widgets/tabview/lv_tabview.c **** {
 819              		.loc 1 315 0
 820              		.cfi_startproc
 821              		@ args = 0, pretend = 0, frame = 8
 822              		@ frame_needed = 0, uses_anonymous_args = 0
 823              	.LVL117:
 824 0000 70B5     		push	{r4, r5, r6, lr}
 825              	.LCFI8:
 826              		.cfi_def_cfa_offset 16
 827              		.cfi_offset 4, -16
 828              		.cfi_offset 5, -12
 829              		.cfi_offset 6, -8
 830              		.cfi_offset 14, -4
 831 0002 82B0     		sub	sp, sp, #8
 832              	.LCFI9:
 833              		.cfi_def_cfa_offset 24
 834 0004 0446     		mov	r4, r0
 316:Drivers/lvgl/lvgl/src/extra/widgets/tabview/lv_tabview.c ****     lv_obj_t * cont = lv_event_get_target(e);
 835              		.loc 1 316 0
 836 0006 FFF7FEFF 		bl	lv_event_get_target
 837              	.LVL118:
 838 000a 0546     		mov	r5, r0
 839              	.LVL119:
 317:Drivers/lvgl/lvgl/src/extra/widgets/tabview/lv_tabview.c ****     lv_event_code_t code = lv_event_get_code(e);
 840              		.loc 1 317 0
 841 000c 2046     		mov	r0, r4
 842              	.LVL120:
 843 000e FFF7FEFF 		bl	lv_event_get_code
 844              	.LVL121:
 845 0012 0446     		mov	r4, r0
 846              	.LVL122:
 318:Drivers/lvgl/lvgl/src/extra/widgets/tabview/lv_tabview.c **** 
 319:Drivers/lvgl/lvgl/src/extra/widgets/tabview/lv_tabview.c ****     lv_obj_t * tv = lv_obj_get_parent(cont);
 847              		.loc 1 319 0
 848 0014 2846     		mov	r0, r5
 849 0016 FFF7FEFF 		bl	lv_obj_get_parent
 850              	.LVL123:
 851 001a 0646     		mov	r6, r0
 852              	.LVL124:
 320:Drivers/lvgl/lvgl/src/extra/widgets/tabview/lv_tabview.c ****     lv_tabview_t * tv_obj = (lv_tabview_t *)tv;
 321:Drivers/lvgl/lvgl/src/extra/widgets/tabview/lv_tabview.c ****     if(code == LV_EVENT_LAYOUT_CHANGED) {
 853              		.loc 1 321 0
 854 001c 2B2C     		cmp	r4, #43
 855 001e 03D0     		beq	.L72
 322:Drivers/lvgl/lvgl/src/extra/widgets/tabview/lv_tabview.c ****         lv_tabview_set_act(tv, lv_tabview_get_tab_act(tv), LV_ANIM_OFF);
 323:Drivers/lvgl/lvgl/src/extra/widgets/tabview/lv_tabview.c ****     }
 324:Drivers/lvgl/lvgl/src/extra/widgets/tabview/lv_tabview.c ****     else if(code == LV_EVENT_SCROLL_END) {
 856              		.loc 1 324 0
 857 0020 0A2C     		cmp	r4, #10
 858 0022 09D0     		beq	.L73
 859              	.LVL125:
 860              	.L55:
 325:Drivers/lvgl/lvgl/src/extra/widgets/tabview/lv_tabview.c ****         lv_indev_t * indev = lv_indev_get_act();
 326:Drivers/lvgl/lvgl/src/extra/widgets/tabview/lv_tabview.c ****         if(indev && indev->proc.state == LV_INDEV_STATE_PRESSED) {
 327:Drivers/lvgl/lvgl/src/extra/widgets/tabview/lv_tabview.c ****             return;
ARM GAS  /tmp/ccEbr1hb.s 			page 33


 328:Drivers/lvgl/lvgl/src/extra/widgets/tabview/lv_tabview.c ****         }
 329:Drivers/lvgl/lvgl/src/extra/widgets/tabview/lv_tabview.c **** 
 330:Drivers/lvgl/lvgl/src/extra/widgets/tabview/lv_tabview.c ****         lv_point_t p;
 331:Drivers/lvgl/lvgl/src/extra/widgets/tabview/lv_tabview.c ****         lv_obj_get_scroll_end(cont, &p);
 332:Drivers/lvgl/lvgl/src/extra/widgets/tabview/lv_tabview.c **** 
 333:Drivers/lvgl/lvgl/src/extra/widgets/tabview/lv_tabview.c ****         lv_coord_t t;
 334:Drivers/lvgl/lvgl/src/extra/widgets/tabview/lv_tabview.c ****         if((tv_obj->tab_pos & LV_DIR_VER) != 0) {
 335:Drivers/lvgl/lvgl/src/extra/widgets/tabview/lv_tabview.c ****             lv_coord_t w = lv_obj_get_content_width(cont);
 336:Drivers/lvgl/lvgl/src/extra/widgets/tabview/lv_tabview.c ****             if(lv_obj_get_style_base_dir(tv, LV_PART_MAIN) == LV_BASE_DIR_RTL)  t = -(p.x - w / 2) 
 337:Drivers/lvgl/lvgl/src/extra/widgets/tabview/lv_tabview.c ****             else t = (p.x + w / 2) / w;
 338:Drivers/lvgl/lvgl/src/extra/widgets/tabview/lv_tabview.c ****         }
 339:Drivers/lvgl/lvgl/src/extra/widgets/tabview/lv_tabview.c ****         else {
 340:Drivers/lvgl/lvgl/src/extra/widgets/tabview/lv_tabview.c ****             lv_coord_t h = lv_obj_get_content_height(cont);
 341:Drivers/lvgl/lvgl/src/extra/widgets/tabview/lv_tabview.c ****             t = (p.y + h / 2) / h;
 342:Drivers/lvgl/lvgl/src/extra/widgets/tabview/lv_tabview.c ****         }
 343:Drivers/lvgl/lvgl/src/extra/widgets/tabview/lv_tabview.c **** 
 344:Drivers/lvgl/lvgl/src/extra/widgets/tabview/lv_tabview.c ****         if(t < 0) t = 0;
 345:Drivers/lvgl/lvgl/src/extra/widgets/tabview/lv_tabview.c ****         bool new_tab = false;
 346:Drivers/lvgl/lvgl/src/extra/widgets/tabview/lv_tabview.c ****         if(t != lv_tabview_get_tab_act(tv)) new_tab = true;
 347:Drivers/lvgl/lvgl/src/extra/widgets/tabview/lv_tabview.c ****         lv_tabview_set_act(tv, t, LV_ANIM_ON);
 348:Drivers/lvgl/lvgl/src/extra/widgets/tabview/lv_tabview.c **** 
 349:Drivers/lvgl/lvgl/src/extra/widgets/tabview/lv_tabview.c ****         if(new_tab) lv_event_send(tv, LV_EVENT_VALUE_CHANGED, NULL);
 350:Drivers/lvgl/lvgl/src/extra/widgets/tabview/lv_tabview.c ****     }
 351:Drivers/lvgl/lvgl/src/extra/widgets/tabview/lv_tabview.c **** }
 861              		.loc 1 351 0
 862 0024 02B0     		add	sp, sp, #8
 863              	.LCFI10:
 864              		.cfi_remember_state
 865              		.cfi_def_cfa_offset 16
 866              		@ sp needed
 867 0026 70BD     		pop	{r4, r5, r6, pc}
 868              	.LVL126:
 869              	.L72:
 870              	.LCFI11:
 871              		.cfi_restore_state
 322:Drivers/lvgl/lvgl/src/extra/widgets/tabview/lv_tabview.c ****         lv_tabview_set_act(tv, lv_tabview_get_tab_act(tv), LV_ANIM_OFF);
 872              		.loc 1 322 0
 873 0028 FFF7FEFF 		bl	lv_tabview_get_tab_act
 874              	.LVL127:
 875 002c 0022     		movs	r2, #0
 876 002e 0146     		mov	r1, r0
 877 0030 3046     		mov	r0, r6
 878 0032 FFF7FEFF 		bl	lv_tabview_set_act
 879              	.LVL128:
 880 0036 F5E7     		b	.L55
 881              	.LVL129:
 882              	.L73:
 883              	.LBB29:
 325:Drivers/lvgl/lvgl/src/extra/widgets/tabview/lv_tabview.c ****         lv_indev_t * indev = lv_indev_get_act();
 884              		.loc 1 325 0
 885 0038 FFF7FEFF 		bl	lv_indev_get_act
 886              	.LVL130:
 326:Drivers/lvgl/lvgl/src/extra/widgets/tabview/lv_tabview.c ****             return;
 887              		.loc 1 326 0
 888 003c 10B1     		cbz	r0, .L58
 326:Drivers/lvgl/lvgl/src/extra/widgets/tabview/lv_tabview.c ****             return;
 889              		.loc 1 326 0 is_stmt 0 discriminator 1
ARM GAS  /tmp/ccEbr1hb.s 			page 34


 890 003e 0379     		ldrb	r3, [r0, #4]	@ zero_extendqisi2
 891 0040 012B     		cmp	r3, #1
 892 0042 EFD0     		beq	.L55
 893              	.L58:
 331:Drivers/lvgl/lvgl/src/extra/widgets/tabview/lv_tabview.c **** 
 894              		.loc 1 331 0 is_stmt 1
 895 0044 01A9     		add	r1, sp, #4
 896 0046 2846     		mov	r0, r5
 897              	.LVL131:
 898 0048 FFF7FEFF 		bl	lv_obj_get_scroll_end
 899              	.LVL132:
 334:Drivers/lvgl/lvgl/src/extra/widgets/tabview/lv_tabview.c ****             lv_coord_t w = lv_obj_get_content_width(cont);
 900              		.loc 1 334 0
 901 004c 96F82C30 		ldrb	r3, [r6, #44]	@ zero_extendqisi2
 902 0050 13F00C0F 		tst	r3, #12
 903 0054 27D0     		beq	.L60
 904              	.LBB30:
 335:Drivers/lvgl/lvgl/src/extra/widgets/tabview/lv_tabview.c ****             if(lv_obj_get_style_base_dir(tv, LV_PART_MAIN) == LV_BASE_DIR_RTL)  t = -(p.x - w / 2) 
 905              		.loc 1 335 0
 906 0056 2846     		mov	r0, r5
 907 0058 FFF7FEFF 		bl	lv_obj_get_content_width
 908              	.LVL133:
 909 005c 0546     		mov	r5, r0
 910              	.LVL134:
 911              	.LBB31:
 912              	.LBB32:
 561:Drivers/lvgl/lvgl/src/extra/widgets/tabview/../../../../src/core/lv_obj_style_gen.h ****     return (lv_base_dir_t)v.num;
 913              		.loc 2 561 0
 914 005e 1622     		movs	r2, #22
 915 0060 0021     		movs	r1, #0
 916 0062 3046     		mov	r0, r6
 917 0064 FFF7FEFF 		bl	lv_obj_get_style_prop
 918              	.LVL135:
 919              		.loc 2 562 0
 920 0068 C0B2     		uxtb	r0, r0
 921              	.LVL136:
 922              	.LBE32:
 923              	.LBE31:
 336:Drivers/lvgl/lvgl/src/extra/widgets/tabview/lv_tabview.c ****             else t = (p.x + w / 2) / w;
 924              		.loc 1 336 0
 925 006a 0128     		cmp	r0, #1
 926 006c 0BD0     		beq	.L74
 337:Drivers/lvgl/lvgl/src/extra/widgets/tabview/lv_tabview.c ****         }
 927              		.loc 1 337 0
 928 006e BDF90440 		ldrsh	r4, [sp, #4]
 929              	.LVL137:
 930 0072 2B46     		mov	r3, r5
 931 0074 002D     		cmp	r5, #0
 932 0076 14DB     		blt	.L75
 933              	.L64:
 934 0078 43F34F03 		sbfx	r3, r3, #1, #16
 935 007c 1C44     		add	r4, r4, r3
 936 007e 94FBF5F4 		sdiv	r4, r4, r5
 937 0082 24B2     		sxth	r4, r4
 938              	.LVL138:
 939 0084 1DE0     		b	.L63
 940              	.LVL139:
ARM GAS  /tmp/ccEbr1hb.s 			page 35


 941              	.L74:
 336:Drivers/lvgl/lvgl/src/extra/widgets/tabview/lv_tabview.c ****             else t = (p.x + w / 2) / w;
 942              		.loc 1 336 0 discriminator 1
 943 0086 2B46     		mov	r3, r5
 944 0088 002D     		cmp	r5, #0
 945 008a 08DB     		blt	.L76
 946              	.L62:
 947 008c 43F34F03 		sbfx	r3, r3, #1, #16
 948 0090 BDF90440 		ldrsh	r4, [sp, #4]
 949              	.LVL140:
 950 0094 1C1B     		subs	r4, r3, r4
 951 0096 94FBF5F4 		sdiv	r4, r4, r5
 952 009a 24B2     		sxth	r4, r4
 953              	.LVL141:
 954 009c 11E0     		b	.L63
 955              	.LVL142:
 956              	.L76:
 957 009e 6B1C     		adds	r3, r5, #1
 958 00a0 F4E7     		b	.L62
 959              	.LVL143:
 960              	.L75:
 337:Drivers/lvgl/lvgl/src/extra/widgets/tabview/lv_tabview.c ****         }
 961              		.loc 1 337 0
 962 00a2 6B1C     		adds	r3, r5, #1
 963 00a4 E8E7     		b	.L64
 964              	.LVL144:
 965              	.L60:
 966              	.LBE30:
 967              	.LBB33:
 340:Drivers/lvgl/lvgl/src/extra/widgets/tabview/lv_tabview.c ****             t = (p.y + h / 2) / h;
 968              		.loc 1 340 0
 969 00a6 2846     		mov	r0, r5
 970 00a8 FFF7FEFF 		bl	lv_obj_get_content_height
 971              	.LVL145:
 341:Drivers/lvgl/lvgl/src/extra/widgets/tabview/lv_tabview.c ****         }
 972              		.loc 1 341 0
 973 00ac BDF90640 		ldrsh	r4, [sp, #6]
 974              	.LVL146:
 975 00b0 0346     		mov	r3, r0
 976 00b2 0028     		cmp	r0, #0
 977 00b4 1ADB     		blt	.L77
 978              	.L65:
 979 00b6 43F34F03 		sbfx	r3, r3, #1, #16
 980 00ba 1C44     		add	r4, r4, r3
 981 00bc 94FBF0F4 		sdiv	r4, r4, r0
 982 00c0 24B2     		sxth	r4, r4
 983              	.LVL147:
 984              	.L63:
 985              	.LBE33:
 344:Drivers/lvgl/lvgl/src/extra/widgets/tabview/lv_tabview.c ****         bool new_tab = false;
 986              		.loc 1 344 0
 987 00c2 002C     		cmp	r4, #0
 988 00c4 14DB     		blt	.L78
 989              	.LVL148:
 990              	.L66:
 346:Drivers/lvgl/lvgl/src/extra/widgets/tabview/lv_tabview.c ****         lv_tabview_set_act(tv, t, LV_ANIM_ON);
 991              		.loc 1 346 0
ARM GAS  /tmp/ccEbr1hb.s 			page 36


 992 00c6 3046     		mov	r0, r6
 993 00c8 FFF7FEFF 		bl	lv_tabview_get_tab_act
 994              	.LVL149:
 995 00cc 8442     		cmp	r4, r0
 996 00ce 11D0     		beq	.L79
 997 00d0 0125     		movs	r5, #1
 998              	.L67:
 999              	.LVL150:
 347:Drivers/lvgl/lvgl/src/extra/widgets/tabview/lv_tabview.c **** 
 1000              		.loc 1 347 0
 1001 00d2 0122     		movs	r2, #1
 1002 00d4 2146     		mov	r1, r4
 1003 00d6 3046     		mov	r0, r6
 1004 00d8 FFF7FEFF 		bl	lv_tabview_set_act
 1005              	.LVL151:
 349:Drivers/lvgl/lvgl/src/extra/widgets/tabview/lv_tabview.c ****     }
 1006              		.loc 1 349 0
 1007 00dc 002D     		cmp	r5, #0
 1008 00de A1D0     		beq	.L55
 349:Drivers/lvgl/lvgl/src/extra/widgets/tabview/lv_tabview.c ****     }
 1009              		.loc 1 349 0 is_stmt 0 discriminator 1
 1010 00e0 0022     		movs	r2, #0
 1011 00e2 1C21     		movs	r1, #28
 1012 00e4 3046     		mov	r0, r6
 1013 00e6 FFF7FEFF 		bl	lv_event_send
 1014              	.LVL152:
 1015 00ea 9BE7     		b	.L55
 1016              	.LVL153:
 1017              	.L77:
 1018              	.LBB34:
 341:Drivers/lvgl/lvgl/src/extra/widgets/tabview/lv_tabview.c ****         }
 1019              		.loc 1 341 0 is_stmt 1
 1020 00ec 431C     		adds	r3, r0, #1
 1021 00ee E2E7     		b	.L65
 1022              	.LVL154:
 1023              	.L78:
 1024              	.LBE34:
 344:Drivers/lvgl/lvgl/src/extra/widgets/tabview/lv_tabview.c ****         bool new_tab = false;
 1025              		.loc 1 344 0
 1026 00f0 0024     		movs	r4, #0
 1027              	.LVL155:
 1028 00f2 E8E7     		b	.L66
 1029              	.LVL156:
 1030              	.L79:
 345:Drivers/lvgl/lvgl/src/extra/widgets/tabview/lv_tabview.c ****         if(t != lv_tabview_get_tab_act(tv)) new_tab = true;
 1031              		.loc 1 345 0
 1032 00f4 0025     		movs	r5, #0
 1033 00f6 ECE7     		b	.L67
 1034              	.LBE29:
 1035              		.cfi_endproc
 1036              	.LFE213:
 1038              		.section	.text.btns_value_changed_event_cb,"ax",%progbits
 1039              		.align	1
 1040              		.syntax unified
 1041              		.thumb
 1042              		.thumb_func
 1043              		.fpu fpv5-d16
ARM GAS  /tmp/ccEbr1hb.s 			page 37


 1045              	btns_value_changed_event_cb:
 1046              	.LFB212:
 306:Drivers/lvgl/lvgl/src/extra/widgets/tabview/lv_tabview.c ****     lv_obj_t * btns = lv_event_get_target(e);
 1047              		.loc 1 306 0
 1048              		.cfi_startproc
 1049              		@ args = 0, pretend = 0, frame = 0
 1050              		@ frame_needed = 0, uses_anonymous_args = 0
 1051              	.LVL157:
 1052 0000 38B5     		push	{r3, r4, r5, lr}
 1053              	.LCFI12:
 1054              		.cfi_def_cfa_offset 16
 1055              		.cfi_offset 3, -16
 1056              		.cfi_offset 4, -12
 1057              		.cfi_offset 5, -8
 1058              		.cfi_offset 14, -4
 307:Drivers/lvgl/lvgl/src/extra/widgets/tabview/lv_tabview.c **** 
 1059              		.loc 1 307 0
 1060 0002 FFF7FEFF 		bl	lv_event_get_target
 1061              	.LVL158:
 1062 0006 0546     		mov	r5, r0
 1063              	.LVL159:
 309:Drivers/lvgl/lvgl/src/extra/widgets/tabview/lv_tabview.c ****     uint32_t id = lv_btnmatrix_get_selected_btn(btns);
 1064              		.loc 1 309 0
 1065 0008 FFF7FEFF 		bl	lv_obj_get_parent
 1066              	.LVL160:
 1067 000c 0446     		mov	r4, r0
 1068              	.LVL161:
 310:Drivers/lvgl/lvgl/src/extra/widgets/tabview/lv_tabview.c ****     lv_tabview_set_act(tv, id, LV_ANIM_ON);
 1069              		.loc 1 310 0
 1070 000e 2846     		mov	r0, r5
 1071              	.LVL162:
 1072 0010 FFF7FEFF 		bl	lv_btnmatrix_get_selected_btn
 1073              	.LVL163:
 311:Drivers/lvgl/lvgl/src/extra/widgets/tabview/lv_tabview.c **** }
 1074              		.loc 1 311 0
 1075 0014 0122     		movs	r2, #1
 1076 0016 0146     		mov	r1, r0
 1077 0018 2046     		mov	r0, r4
 1078              	.LVL164:
 1079 001a FFF7FEFF 		bl	lv_tabview_set_act
 1080              	.LVL165:
 312:Drivers/lvgl/lvgl/src/extra/widgets/tabview/lv_tabview.c **** 
 1081              		.loc 1 312 0
 1082 001e 38BD     		pop	{r3, r4, r5, pc}
 1083              		.cfi_endproc
 1084              	.LFE212:
 1086              		.section	.text.lv_tabview_add_tab,"ax",%progbits
 1087              		.align	1
 1088              		.global	lv_tabview_add_tab
 1089              		.syntax unified
 1090              		.thumb
 1091              		.thumb_func
 1092              		.fpu fpv5-d16
 1094              	lv_tabview_add_tab:
 1095              	.LFB203:
  68:Drivers/lvgl/lvgl/src/extra/widgets/tabview/lv_tabview.c ****     LV_ASSERT_OBJ(obj, MY_CLASS);
 1096              		.loc 1 68 0
ARM GAS  /tmp/ccEbr1hb.s 			page 38


 1097              		.cfi_startproc
 1098              		@ args = 0, pretend = 0, frame = 8
 1099              		@ frame_needed = 0, uses_anonymous_args = 0
 1100              	.LVL166:
 1101 0000 2DE9F04F 		push	{r4, r5, r6, r7, r8, r9, r10, fp, lr}
 1102              	.LCFI13:
 1103              		.cfi_def_cfa_offset 36
 1104              		.cfi_offset 4, -36
 1105              		.cfi_offset 5, -32
 1106              		.cfi_offset 6, -28
 1107              		.cfi_offset 7, -24
 1108              		.cfi_offset 8, -20
 1109              		.cfi_offset 9, -16
 1110              		.cfi_offset 10, -12
 1111              		.cfi_offset 11, -8
 1112              		.cfi_offset 14, -4
 1113 0004 83B0     		sub	sp, sp, #12
 1114              	.LCFI14:
 1115              		.cfi_def_cfa_offset 48
 1116 0006 0446     		mov	r4, r0
 1117 0008 8A46     		mov	r10, r1
 1118              	.LVL167:
  71:Drivers/lvgl/lvgl/src/extra/widgets/tabview/lv_tabview.c **** 
 1119              		.loc 1 71 0
 1120 000a FFF7FEFF 		bl	lv_tabview_get_content
 1121              	.LVL168:
 1122 000e 0546     		mov	r5, r0
 1123              	.LVL169:
  73:Drivers/lvgl/lvgl/src/extra/widgets/tabview/lv_tabview.c ****     lv_obj_set_size(page, LV_PCT(100), LV_PCT(100));
 1124              		.loc 1 73 0
 1125 0010 FFF7FEFF 		bl	lv_obj_create
 1126              	.LVL170:
 1127 0014 0646     		mov	r6, r0
 1128 0016 0190     		str	r0, [sp, #4]
 1129              	.LVL171:
  74:Drivers/lvgl/lvgl/src/extra/widgets/tabview/lv_tabview.c ****     lv_obj_clear_flag(page, LV_OBJ_FLAG_CLICK_FOCUSABLE);
 1130              		.loc 1 74 0
 1131 0018 42F26402 		movw	r2, #8292
 1132 001c 1146     		mov	r1, r2
 1133 001e FFF7FEFF 		bl	lv_obj_set_size
 1134              	.LVL172:
  75:Drivers/lvgl/lvgl/src/extra/widgets/tabview/lv_tabview.c ****     uint32_t tab_id = lv_obj_get_child_cnt(cont);
 1135              		.loc 1 75 0
 1136 0022 0421     		movs	r1, #4
 1137 0024 3046     		mov	r0, r6
 1138 0026 FFF7FEFF 		bl	lv_obj_clear_flag
 1139              	.LVL173:
  76:Drivers/lvgl/lvgl/src/extra/widgets/tabview/lv_tabview.c **** 
 1140              		.loc 1 76 0
 1141 002a 2846     		mov	r0, r5
 1142 002c FFF7FEFF 		bl	lv_obj_get_child_cnt
 1143              	.LVL174:
 1144 0030 0746     		mov	r7, r0
 1145              	.LVL175:
  78:Drivers/lvgl/lvgl/src/extra/widgets/tabview/lv_tabview.c **** 
 1146              		.loc 1 78 0
 1147 0032 2046     		mov	r0, r4
ARM GAS  /tmp/ccEbr1hb.s 			page 39


 1148              	.LVL176:
 1149 0034 FFF7FEFF 		bl	lv_tabview_get_tab_btns
 1150              	.LVL177:
 1151 0038 0646     		mov	r6, r0
 1152              	.LVL178:
  80:Drivers/lvgl/lvgl/src/extra/widgets/tabview/lv_tabview.c ****     char ** new_map;
 1153              		.loc 1 80 0
 1154 003a D4F82490 		ldr	r9, [r4, #36]
 1155              	.LVL179:
  84:Drivers/lvgl/lvgl/src/extra/widgets/tabview/lv_tabview.c ****         new_map = lv_mem_alloc((tab_id + 1) * sizeof(const char *));
 1156              		.loc 1 84 0
 1157 003e 94F82C30 		ldrb	r3, [r4, #44]	@ zero_extendqisi2
 1158 0042 13F00C0F 		tst	r3, #12
 1159 0046 3ED0     		beq	.L83
  85:Drivers/lvgl/lvgl/src/extra/widgets/tabview/lv_tabview.c ****         lv_memcpy_small(new_map, old_map, sizeof(const char *) * (tab_id - 1));
 1160              		.loc 1 85 0
 1161 0048 781C     		adds	r0, r7, #1
 1162              	.LVL180:
 1163 004a 8000     		lsls	r0, r0, #2
 1164 004c FFF7FEFF 		bl	lv_mem_alloc
 1165              	.LVL181:
 1166 0050 0546     		mov	r5, r0
 1167              	.LVL182:
  86:Drivers/lvgl/lvgl/src/extra/widgets/tabview/lv_tabview.c ****         new_map[tab_id - 1] = lv_mem_alloc(strlen(name) + 1);
 1168              		.loc 1 86 0
 1169 0052 6FF0404B 		mvn	fp, #-1073741824
 1170 0056 BB44     		add	fp, fp, r7
 1171              	.LVL183:
 1172              	.LBB35:
 1173              	.LBB36:
 1174              		.file 3 "Drivers/lvgl/lvgl/src/extra/widgets/tabview/../../../../src/misc/lv_mem.h"
   1:Drivers/lvgl/lvgl/src/extra/widgets/tabview/../../../../src/misc/lv_mem.h **** /**
   2:Drivers/lvgl/lvgl/src/extra/widgets/tabview/../../../../src/misc/lv_mem.h ****  * @file lv_mem.h
   3:Drivers/lvgl/lvgl/src/extra/widgets/tabview/../../../../src/misc/lv_mem.h ****  *
   4:Drivers/lvgl/lvgl/src/extra/widgets/tabview/../../../../src/misc/lv_mem.h ****  */
   5:Drivers/lvgl/lvgl/src/extra/widgets/tabview/../../../../src/misc/lv_mem.h **** 
   6:Drivers/lvgl/lvgl/src/extra/widgets/tabview/../../../../src/misc/lv_mem.h **** #ifndef LV_MEM_H
   7:Drivers/lvgl/lvgl/src/extra/widgets/tabview/../../../../src/misc/lv_mem.h **** #define LV_MEM_H
   8:Drivers/lvgl/lvgl/src/extra/widgets/tabview/../../../../src/misc/lv_mem.h **** 
   9:Drivers/lvgl/lvgl/src/extra/widgets/tabview/../../../../src/misc/lv_mem.h **** #ifdef __cplusplus
  10:Drivers/lvgl/lvgl/src/extra/widgets/tabview/../../../../src/misc/lv_mem.h **** extern "C" {
  11:Drivers/lvgl/lvgl/src/extra/widgets/tabview/../../../../src/misc/lv_mem.h **** #endif
  12:Drivers/lvgl/lvgl/src/extra/widgets/tabview/../../../../src/misc/lv_mem.h **** 
  13:Drivers/lvgl/lvgl/src/extra/widgets/tabview/../../../../src/misc/lv_mem.h **** /*********************
  14:Drivers/lvgl/lvgl/src/extra/widgets/tabview/../../../../src/misc/lv_mem.h ****  *      INCLUDES
  15:Drivers/lvgl/lvgl/src/extra/widgets/tabview/../../../../src/misc/lv_mem.h ****  *********************/
  16:Drivers/lvgl/lvgl/src/extra/widgets/tabview/../../../../src/misc/lv_mem.h **** #include "../lv_conf_internal.h"
  17:Drivers/lvgl/lvgl/src/extra/widgets/tabview/../../../../src/misc/lv_mem.h **** 
  18:Drivers/lvgl/lvgl/src/extra/widgets/tabview/../../../../src/misc/lv_mem.h **** #include <stdint.h>
  19:Drivers/lvgl/lvgl/src/extra/widgets/tabview/../../../../src/misc/lv_mem.h **** #include <stddef.h>
  20:Drivers/lvgl/lvgl/src/extra/widgets/tabview/../../../../src/misc/lv_mem.h **** #include <string.h>
  21:Drivers/lvgl/lvgl/src/extra/widgets/tabview/../../../../src/misc/lv_mem.h **** 
  22:Drivers/lvgl/lvgl/src/extra/widgets/tabview/../../../../src/misc/lv_mem.h **** #include "lv_types.h"
  23:Drivers/lvgl/lvgl/src/extra/widgets/tabview/../../../../src/misc/lv_mem.h **** 
  24:Drivers/lvgl/lvgl/src/extra/widgets/tabview/../../../../src/misc/lv_mem.h **** /*********************
  25:Drivers/lvgl/lvgl/src/extra/widgets/tabview/../../../../src/misc/lv_mem.h ****  *      DEFINES
  26:Drivers/lvgl/lvgl/src/extra/widgets/tabview/../../../../src/misc/lv_mem.h ****  *********************/
ARM GAS  /tmp/ccEbr1hb.s 			page 40


  27:Drivers/lvgl/lvgl/src/extra/widgets/tabview/../../../../src/misc/lv_mem.h **** 
  28:Drivers/lvgl/lvgl/src/extra/widgets/tabview/../../../../src/misc/lv_mem.h **** /**********************
  29:Drivers/lvgl/lvgl/src/extra/widgets/tabview/../../../../src/misc/lv_mem.h ****  *      TYPEDEFS
  30:Drivers/lvgl/lvgl/src/extra/widgets/tabview/../../../../src/misc/lv_mem.h ****  **********************/
  31:Drivers/lvgl/lvgl/src/extra/widgets/tabview/../../../../src/misc/lv_mem.h **** 
  32:Drivers/lvgl/lvgl/src/extra/widgets/tabview/../../../../src/misc/lv_mem.h **** /**
  33:Drivers/lvgl/lvgl/src/extra/widgets/tabview/../../../../src/misc/lv_mem.h ****  * Heap information structure.
  34:Drivers/lvgl/lvgl/src/extra/widgets/tabview/../../../../src/misc/lv_mem.h ****  */
  35:Drivers/lvgl/lvgl/src/extra/widgets/tabview/../../../../src/misc/lv_mem.h **** typedef struct {
  36:Drivers/lvgl/lvgl/src/extra/widgets/tabview/../../../../src/misc/lv_mem.h ****     uint32_t total_size; /**< Total heap size*/
  37:Drivers/lvgl/lvgl/src/extra/widgets/tabview/../../../../src/misc/lv_mem.h ****     uint32_t free_cnt;
  38:Drivers/lvgl/lvgl/src/extra/widgets/tabview/../../../../src/misc/lv_mem.h ****     uint32_t free_size; /**< Size of available memory*/
  39:Drivers/lvgl/lvgl/src/extra/widgets/tabview/../../../../src/misc/lv_mem.h ****     uint32_t free_biggest_size;
  40:Drivers/lvgl/lvgl/src/extra/widgets/tabview/../../../../src/misc/lv_mem.h ****     uint32_t used_cnt;
  41:Drivers/lvgl/lvgl/src/extra/widgets/tabview/../../../../src/misc/lv_mem.h ****     uint32_t max_used; /**< Max size of Heap memory used*/
  42:Drivers/lvgl/lvgl/src/extra/widgets/tabview/../../../../src/misc/lv_mem.h ****     uint8_t used_pct; /**< Percentage used*/
  43:Drivers/lvgl/lvgl/src/extra/widgets/tabview/../../../../src/misc/lv_mem.h ****     uint8_t frag_pct; /**< Amount of fragmentation*/
  44:Drivers/lvgl/lvgl/src/extra/widgets/tabview/../../../../src/misc/lv_mem.h **** } lv_mem_monitor_t;
  45:Drivers/lvgl/lvgl/src/extra/widgets/tabview/../../../../src/misc/lv_mem.h **** 
  46:Drivers/lvgl/lvgl/src/extra/widgets/tabview/../../../../src/misc/lv_mem.h **** typedef struct {
  47:Drivers/lvgl/lvgl/src/extra/widgets/tabview/../../../../src/misc/lv_mem.h ****     void * p;
  48:Drivers/lvgl/lvgl/src/extra/widgets/tabview/../../../../src/misc/lv_mem.h ****     uint16_t size;
  49:Drivers/lvgl/lvgl/src/extra/widgets/tabview/../../../../src/misc/lv_mem.h ****     uint8_t used : 1;
  50:Drivers/lvgl/lvgl/src/extra/widgets/tabview/../../../../src/misc/lv_mem.h **** } lv_mem_buf_t;
  51:Drivers/lvgl/lvgl/src/extra/widgets/tabview/../../../../src/misc/lv_mem.h **** 
  52:Drivers/lvgl/lvgl/src/extra/widgets/tabview/../../../../src/misc/lv_mem.h **** typedef lv_mem_buf_t lv_mem_buf_arr_t[LV_MEM_BUF_MAX_NUM];
  53:Drivers/lvgl/lvgl/src/extra/widgets/tabview/../../../../src/misc/lv_mem.h **** 
  54:Drivers/lvgl/lvgl/src/extra/widgets/tabview/../../../../src/misc/lv_mem.h **** /**********************
  55:Drivers/lvgl/lvgl/src/extra/widgets/tabview/../../../../src/misc/lv_mem.h ****  * GLOBAL PROTOTYPES
  56:Drivers/lvgl/lvgl/src/extra/widgets/tabview/../../../../src/misc/lv_mem.h ****  **********************/
  57:Drivers/lvgl/lvgl/src/extra/widgets/tabview/../../../../src/misc/lv_mem.h **** 
  58:Drivers/lvgl/lvgl/src/extra/widgets/tabview/../../../../src/misc/lv_mem.h **** /**
  59:Drivers/lvgl/lvgl/src/extra/widgets/tabview/../../../../src/misc/lv_mem.h ****  * Initialize the dyn_mem module (work memory and other variables)
  60:Drivers/lvgl/lvgl/src/extra/widgets/tabview/../../../../src/misc/lv_mem.h ****  */
  61:Drivers/lvgl/lvgl/src/extra/widgets/tabview/../../../../src/misc/lv_mem.h **** void lv_mem_init(void);
  62:Drivers/lvgl/lvgl/src/extra/widgets/tabview/../../../../src/misc/lv_mem.h **** 
  63:Drivers/lvgl/lvgl/src/extra/widgets/tabview/../../../../src/misc/lv_mem.h **** /**
  64:Drivers/lvgl/lvgl/src/extra/widgets/tabview/../../../../src/misc/lv_mem.h ****  * Clean up the memory buffer which frees all the allocated memories.
  65:Drivers/lvgl/lvgl/src/extra/widgets/tabview/../../../../src/misc/lv_mem.h ****  * @note It work only if `LV_MEM_CUSTOM == 0`
  66:Drivers/lvgl/lvgl/src/extra/widgets/tabview/../../../../src/misc/lv_mem.h ****  */
  67:Drivers/lvgl/lvgl/src/extra/widgets/tabview/../../../../src/misc/lv_mem.h **** void lv_mem_deinit(void);
  68:Drivers/lvgl/lvgl/src/extra/widgets/tabview/../../../../src/misc/lv_mem.h **** 
  69:Drivers/lvgl/lvgl/src/extra/widgets/tabview/../../../../src/misc/lv_mem.h **** /**
  70:Drivers/lvgl/lvgl/src/extra/widgets/tabview/../../../../src/misc/lv_mem.h ****  * Allocate a memory dynamically
  71:Drivers/lvgl/lvgl/src/extra/widgets/tabview/../../../../src/misc/lv_mem.h ****  * @param size size of the memory to allocate in bytes
  72:Drivers/lvgl/lvgl/src/extra/widgets/tabview/../../../../src/misc/lv_mem.h ****  * @return pointer to the allocated memory
  73:Drivers/lvgl/lvgl/src/extra/widgets/tabview/../../../../src/misc/lv_mem.h ****  */
  74:Drivers/lvgl/lvgl/src/extra/widgets/tabview/../../../../src/misc/lv_mem.h **** void * lv_mem_alloc(size_t size);
  75:Drivers/lvgl/lvgl/src/extra/widgets/tabview/../../../../src/misc/lv_mem.h **** 
  76:Drivers/lvgl/lvgl/src/extra/widgets/tabview/../../../../src/misc/lv_mem.h **** /**
  77:Drivers/lvgl/lvgl/src/extra/widgets/tabview/../../../../src/misc/lv_mem.h ****  * Free an allocated data
  78:Drivers/lvgl/lvgl/src/extra/widgets/tabview/../../../../src/misc/lv_mem.h ****  * @param data pointer to an allocated memory
  79:Drivers/lvgl/lvgl/src/extra/widgets/tabview/../../../../src/misc/lv_mem.h ****  */
  80:Drivers/lvgl/lvgl/src/extra/widgets/tabview/../../../../src/misc/lv_mem.h **** void lv_mem_free(void * data);
  81:Drivers/lvgl/lvgl/src/extra/widgets/tabview/../../../../src/misc/lv_mem.h **** 
  82:Drivers/lvgl/lvgl/src/extra/widgets/tabview/../../../../src/misc/lv_mem.h **** /**
  83:Drivers/lvgl/lvgl/src/extra/widgets/tabview/../../../../src/misc/lv_mem.h ****  * Reallocate a memory with a new size. The old content will be kept.
ARM GAS  /tmp/ccEbr1hb.s 			page 41


  84:Drivers/lvgl/lvgl/src/extra/widgets/tabview/../../../../src/misc/lv_mem.h ****  * @param data pointer to an allocated memory.
  85:Drivers/lvgl/lvgl/src/extra/widgets/tabview/../../../../src/misc/lv_mem.h ****  * Its content will be copied to the new memory block and freed
  86:Drivers/lvgl/lvgl/src/extra/widgets/tabview/../../../../src/misc/lv_mem.h ****  * @param new_size the desired new size in byte
  87:Drivers/lvgl/lvgl/src/extra/widgets/tabview/../../../../src/misc/lv_mem.h ****  * @return pointer to the new memory, NULL on failure
  88:Drivers/lvgl/lvgl/src/extra/widgets/tabview/../../../../src/misc/lv_mem.h ****  */
  89:Drivers/lvgl/lvgl/src/extra/widgets/tabview/../../../../src/misc/lv_mem.h **** void * lv_mem_realloc(void * data_p, size_t new_size);
  90:Drivers/lvgl/lvgl/src/extra/widgets/tabview/../../../../src/misc/lv_mem.h **** 
  91:Drivers/lvgl/lvgl/src/extra/widgets/tabview/../../../../src/misc/lv_mem.h **** /**
  92:Drivers/lvgl/lvgl/src/extra/widgets/tabview/../../../../src/misc/lv_mem.h ****  *
  93:Drivers/lvgl/lvgl/src/extra/widgets/tabview/../../../../src/misc/lv_mem.h ****  * @return
  94:Drivers/lvgl/lvgl/src/extra/widgets/tabview/../../../../src/misc/lv_mem.h ****  */
  95:Drivers/lvgl/lvgl/src/extra/widgets/tabview/../../../../src/misc/lv_mem.h **** lv_res_t lv_mem_test(void);
  96:Drivers/lvgl/lvgl/src/extra/widgets/tabview/../../../../src/misc/lv_mem.h **** 
  97:Drivers/lvgl/lvgl/src/extra/widgets/tabview/../../../../src/misc/lv_mem.h **** /**
  98:Drivers/lvgl/lvgl/src/extra/widgets/tabview/../../../../src/misc/lv_mem.h ****  * Give information about the work memory of dynamic allocation
  99:Drivers/lvgl/lvgl/src/extra/widgets/tabview/../../../../src/misc/lv_mem.h ****  * @param mon_p pointer to a lv_mem_monitor_t variable,
 100:Drivers/lvgl/lvgl/src/extra/widgets/tabview/../../../../src/misc/lv_mem.h ****  *              the result of the analysis will be stored here
 101:Drivers/lvgl/lvgl/src/extra/widgets/tabview/../../../../src/misc/lv_mem.h ****  */
 102:Drivers/lvgl/lvgl/src/extra/widgets/tabview/../../../../src/misc/lv_mem.h **** void lv_mem_monitor(lv_mem_monitor_t * mon_p);
 103:Drivers/lvgl/lvgl/src/extra/widgets/tabview/../../../../src/misc/lv_mem.h **** 
 104:Drivers/lvgl/lvgl/src/extra/widgets/tabview/../../../../src/misc/lv_mem.h **** 
 105:Drivers/lvgl/lvgl/src/extra/widgets/tabview/../../../../src/misc/lv_mem.h **** /**
 106:Drivers/lvgl/lvgl/src/extra/widgets/tabview/../../../../src/misc/lv_mem.h ****  * Get a temporal buffer with the given size.
 107:Drivers/lvgl/lvgl/src/extra/widgets/tabview/../../../../src/misc/lv_mem.h ****  * @param size the required size
 108:Drivers/lvgl/lvgl/src/extra/widgets/tabview/../../../../src/misc/lv_mem.h ****  */
 109:Drivers/lvgl/lvgl/src/extra/widgets/tabview/../../../../src/misc/lv_mem.h **** void * lv_mem_buf_get(uint32_t size);
 110:Drivers/lvgl/lvgl/src/extra/widgets/tabview/../../../../src/misc/lv_mem.h **** 
 111:Drivers/lvgl/lvgl/src/extra/widgets/tabview/../../../../src/misc/lv_mem.h **** /**
 112:Drivers/lvgl/lvgl/src/extra/widgets/tabview/../../../../src/misc/lv_mem.h ****  * Release a memory buffer
 113:Drivers/lvgl/lvgl/src/extra/widgets/tabview/../../../../src/misc/lv_mem.h ****  * @param p buffer to release
 114:Drivers/lvgl/lvgl/src/extra/widgets/tabview/../../../../src/misc/lv_mem.h ****  */
 115:Drivers/lvgl/lvgl/src/extra/widgets/tabview/../../../../src/misc/lv_mem.h **** void lv_mem_buf_release(void * p);
 116:Drivers/lvgl/lvgl/src/extra/widgets/tabview/../../../../src/misc/lv_mem.h **** 
 117:Drivers/lvgl/lvgl/src/extra/widgets/tabview/../../../../src/misc/lv_mem.h **** /**
 118:Drivers/lvgl/lvgl/src/extra/widgets/tabview/../../../../src/misc/lv_mem.h ****  * Free all memory buffers
 119:Drivers/lvgl/lvgl/src/extra/widgets/tabview/../../../../src/misc/lv_mem.h ****  */
 120:Drivers/lvgl/lvgl/src/extra/widgets/tabview/../../../../src/misc/lv_mem.h **** void lv_mem_buf_free_all(void);
 121:Drivers/lvgl/lvgl/src/extra/widgets/tabview/../../../../src/misc/lv_mem.h **** 
 122:Drivers/lvgl/lvgl/src/extra/widgets/tabview/../../../../src/misc/lv_mem.h **** //! @cond Doxygen_Suppress
 123:Drivers/lvgl/lvgl/src/extra/widgets/tabview/../../../../src/misc/lv_mem.h **** 
 124:Drivers/lvgl/lvgl/src/extra/widgets/tabview/../../../../src/misc/lv_mem.h **** #if LV_MEMCPY_MEMSET_STD
 125:Drivers/lvgl/lvgl/src/extra/widgets/tabview/../../../../src/misc/lv_mem.h **** 
 126:Drivers/lvgl/lvgl/src/extra/widgets/tabview/../../../../src/misc/lv_mem.h **** /**
 127:Drivers/lvgl/lvgl/src/extra/widgets/tabview/../../../../src/misc/lv_mem.h ****  * Wrapper for the standard memcpy
 128:Drivers/lvgl/lvgl/src/extra/widgets/tabview/../../../../src/misc/lv_mem.h ****  * @param dst pointer to the destination buffer
 129:Drivers/lvgl/lvgl/src/extra/widgets/tabview/../../../../src/misc/lv_mem.h ****  * @param src pointer to the source buffer
 130:Drivers/lvgl/lvgl/src/extra/widgets/tabview/../../../../src/misc/lv_mem.h ****  * @param len number of byte to copy
 131:Drivers/lvgl/lvgl/src/extra/widgets/tabview/../../../../src/misc/lv_mem.h ****  */
 132:Drivers/lvgl/lvgl/src/extra/widgets/tabview/../../../../src/misc/lv_mem.h **** static inline void * lv_memcpy(void * dst, const void * src, size_t len)
 133:Drivers/lvgl/lvgl/src/extra/widgets/tabview/../../../../src/misc/lv_mem.h **** {
 134:Drivers/lvgl/lvgl/src/extra/widgets/tabview/../../../../src/misc/lv_mem.h ****     return memcpy(dst, src, len);
 135:Drivers/lvgl/lvgl/src/extra/widgets/tabview/../../../../src/misc/lv_mem.h **** }
 136:Drivers/lvgl/lvgl/src/extra/widgets/tabview/../../../../src/misc/lv_mem.h **** 
 137:Drivers/lvgl/lvgl/src/extra/widgets/tabview/../../../../src/misc/lv_mem.h **** /**
 138:Drivers/lvgl/lvgl/src/extra/widgets/tabview/../../../../src/misc/lv_mem.h ****  * Wrapper for the standard memcpy
 139:Drivers/lvgl/lvgl/src/extra/widgets/tabview/../../../../src/misc/lv_mem.h ****  * @param dst pointer to the destination buffer
 140:Drivers/lvgl/lvgl/src/extra/widgets/tabview/../../../../src/misc/lv_mem.h ****  * @param src pointer to the source buffer
ARM GAS  /tmp/ccEbr1hb.s 			page 42


 141:Drivers/lvgl/lvgl/src/extra/widgets/tabview/../../../../src/misc/lv_mem.h ****  * @param len number of byte to copy
 142:Drivers/lvgl/lvgl/src/extra/widgets/tabview/../../../../src/misc/lv_mem.h ****  */
 143:Drivers/lvgl/lvgl/src/extra/widgets/tabview/../../../../src/misc/lv_mem.h **** static inline void * lv_memcpy_small(void * dst, const void * src, size_t len)
 144:Drivers/lvgl/lvgl/src/extra/widgets/tabview/../../../../src/misc/lv_mem.h **** {
 145:Drivers/lvgl/lvgl/src/extra/widgets/tabview/../../../../src/misc/lv_mem.h ****     return memcpy(dst, src, len);
 146:Drivers/lvgl/lvgl/src/extra/widgets/tabview/../../../../src/misc/lv_mem.h **** }
 147:Drivers/lvgl/lvgl/src/extra/widgets/tabview/../../../../src/misc/lv_mem.h **** 
 148:Drivers/lvgl/lvgl/src/extra/widgets/tabview/../../../../src/misc/lv_mem.h **** /**
 149:Drivers/lvgl/lvgl/src/extra/widgets/tabview/../../../../src/misc/lv_mem.h ****  * Wrapper for the standard memset
 150:Drivers/lvgl/lvgl/src/extra/widgets/tabview/../../../../src/misc/lv_mem.h ****  * @param dst pointer to the destination buffer
 151:Drivers/lvgl/lvgl/src/extra/widgets/tabview/../../../../src/misc/lv_mem.h ****  * @param v value to set [0..255]
 152:Drivers/lvgl/lvgl/src/extra/widgets/tabview/../../../../src/misc/lv_mem.h ****  * @param len number of byte to set
 153:Drivers/lvgl/lvgl/src/extra/widgets/tabview/../../../../src/misc/lv_mem.h ****  */
 154:Drivers/lvgl/lvgl/src/extra/widgets/tabview/../../../../src/misc/lv_mem.h **** static inline void lv_memset(void * dst, uint8_t v, size_t len)
 155:Drivers/lvgl/lvgl/src/extra/widgets/tabview/../../../../src/misc/lv_mem.h **** {
 156:Drivers/lvgl/lvgl/src/extra/widgets/tabview/../../../../src/misc/lv_mem.h ****     memset(dst, v, len);
 157:Drivers/lvgl/lvgl/src/extra/widgets/tabview/../../../../src/misc/lv_mem.h **** }
 158:Drivers/lvgl/lvgl/src/extra/widgets/tabview/../../../../src/misc/lv_mem.h **** 
 159:Drivers/lvgl/lvgl/src/extra/widgets/tabview/../../../../src/misc/lv_mem.h **** /**
 160:Drivers/lvgl/lvgl/src/extra/widgets/tabview/../../../../src/misc/lv_mem.h ****  * Wrapper for the standard memset with fixed 0x00 value
 161:Drivers/lvgl/lvgl/src/extra/widgets/tabview/../../../../src/misc/lv_mem.h ****  * @param dst pointer to the destination buffer
 162:Drivers/lvgl/lvgl/src/extra/widgets/tabview/../../../../src/misc/lv_mem.h ****  * @param len number of byte to set
 163:Drivers/lvgl/lvgl/src/extra/widgets/tabview/../../../../src/misc/lv_mem.h ****  */
 164:Drivers/lvgl/lvgl/src/extra/widgets/tabview/../../../../src/misc/lv_mem.h **** static inline void lv_memset_00(void * dst, size_t len)
 165:Drivers/lvgl/lvgl/src/extra/widgets/tabview/../../../../src/misc/lv_mem.h **** {
 166:Drivers/lvgl/lvgl/src/extra/widgets/tabview/../../../../src/misc/lv_mem.h ****     memset(dst, 0x00, len);
 167:Drivers/lvgl/lvgl/src/extra/widgets/tabview/../../../../src/misc/lv_mem.h **** }
 168:Drivers/lvgl/lvgl/src/extra/widgets/tabview/../../../../src/misc/lv_mem.h **** 
 169:Drivers/lvgl/lvgl/src/extra/widgets/tabview/../../../../src/misc/lv_mem.h **** /**
 170:Drivers/lvgl/lvgl/src/extra/widgets/tabview/../../../../src/misc/lv_mem.h ****  * Wrapper for the standard memset with fixed 0xFF value
 171:Drivers/lvgl/lvgl/src/extra/widgets/tabview/../../../../src/misc/lv_mem.h ****  * @param dst pointer to the destination buffer
 172:Drivers/lvgl/lvgl/src/extra/widgets/tabview/../../../../src/misc/lv_mem.h ****  * @param len number of byte to set
 173:Drivers/lvgl/lvgl/src/extra/widgets/tabview/../../../../src/misc/lv_mem.h ****  */
 174:Drivers/lvgl/lvgl/src/extra/widgets/tabview/../../../../src/misc/lv_mem.h **** static inline void lv_memset_ff(void * dst, size_t len)
 175:Drivers/lvgl/lvgl/src/extra/widgets/tabview/../../../../src/misc/lv_mem.h **** {
 176:Drivers/lvgl/lvgl/src/extra/widgets/tabview/../../../../src/misc/lv_mem.h ****     memset(dst, 0xFF, len);
 177:Drivers/lvgl/lvgl/src/extra/widgets/tabview/../../../../src/misc/lv_mem.h **** }
 178:Drivers/lvgl/lvgl/src/extra/widgets/tabview/../../../../src/misc/lv_mem.h **** 
 179:Drivers/lvgl/lvgl/src/extra/widgets/tabview/../../../../src/misc/lv_mem.h **** #else
 180:Drivers/lvgl/lvgl/src/extra/widgets/tabview/../../../../src/misc/lv_mem.h **** /**
 181:Drivers/lvgl/lvgl/src/extra/widgets/tabview/../../../../src/misc/lv_mem.h ****  * Same as `memcpy` but optimized for 4 byte operation.
 182:Drivers/lvgl/lvgl/src/extra/widgets/tabview/../../../../src/misc/lv_mem.h ****  * @param dst pointer to the destination buffer
 183:Drivers/lvgl/lvgl/src/extra/widgets/tabview/../../../../src/misc/lv_mem.h ****  * @param src pointer to the source buffer
 184:Drivers/lvgl/lvgl/src/extra/widgets/tabview/../../../../src/misc/lv_mem.h ****  * @param len number of byte to copy
 185:Drivers/lvgl/lvgl/src/extra/widgets/tabview/../../../../src/misc/lv_mem.h ****  */
 186:Drivers/lvgl/lvgl/src/extra/widgets/tabview/../../../../src/misc/lv_mem.h **** LV_ATTRIBUTE_FAST_MEM void * lv_memcpy(void * dst, const void * src, size_t len);
 187:Drivers/lvgl/lvgl/src/extra/widgets/tabview/../../../../src/misc/lv_mem.h **** 
 188:Drivers/lvgl/lvgl/src/extra/widgets/tabview/../../../../src/misc/lv_mem.h **** /**
 189:Drivers/lvgl/lvgl/src/extra/widgets/tabview/../../../../src/misc/lv_mem.h ****  * Same as `memcpy` but optimized to copy only a few bytes.
 190:Drivers/lvgl/lvgl/src/extra/widgets/tabview/../../../../src/misc/lv_mem.h ****  * @param dst pointer to the destination buffer
 191:Drivers/lvgl/lvgl/src/extra/widgets/tabview/../../../../src/misc/lv_mem.h ****  * @param src pointer to the source buffer
 192:Drivers/lvgl/lvgl/src/extra/widgets/tabview/../../../../src/misc/lv_mem.h ****  * @param len number of byte to copy
 193:Drivers/lvgl/lvgl/src/extra/widgets/tabview/../../../../src/misc/lv_mem.h ****  */
 194:Drivers/lvgl/lvgl/src/extra/widgets/tabview/../../../../src/misc/lv_mem.h **** LV_ATTRIBUTE_FAST_MEM static inline void * lv_memcpy_small(void * dst, const void * src, size_t len
 195:Drivers/lvgl/lvgl/src/extra/widgets/tabview/../../../../src/misc/lv_mem.h **** {
 196:Drivers/lvgl/lvgl/src/extra/widgets/tabview/../../../../src/misc/lv_mem.h ****     uint8_t * d8 = (uint8_t *)dst;
 197:Drivers/lvgl/lvgl/src/extra/widgets/tabview/../../../../src/misc/lv_mem.h ****     const uint8_t * s8 = (const uint8_t *)src;
ARM GAS  /tmp/ccEbr1hb.s 			page 43


 1175              		.loc 3 197 0
 1176 0058 4946     		mov	r1, r9
 196:Drivers/lvgl/lvgl/src/extra/widgets/tabview/../../../../src/misc/lv_mem.h ****     const uint8_t * s8 = (const uint8_t *)src;
 1177              		.loc 3 196 0
 1178 005a 0246     		mov	r2, r0
 1179              	.LBE36:
 1180              	.LBE35:
  86:Drivers/lvgl/lvgl/src/extra/widgets/tabview/lv_tabview.c ****         new_map[tab_id - 1] = lv_mem_alloc(strlen(name) + 1);
 1181              		.loc 1 86 0
 1182 005c 4FEA8B03 		lsl	r3, fp, #2
 1183              	.LVL184:
 1184 0060 04E0     		b	.L84
 1185              	.LVL185:
 1186              	.L85:
 1187              	.LBB38:
 1188              	.LBB37:
 198:Drivers/lvgl/lvgl/src/extra/widgets/tabview/../../../../src/misc/lv_mem.h **** 
 199:Drivers/lvgl/lvgl/src/extra/widgets/tabview/../../../../src/misc/lv_mem.h ****     while(len) {
 200:Drivers/lvgl/lvgl/src/extra/widgets/tabview/../../../../src/misc/lv_mem.h ****         *d8 = *s8;
 1189              		.loc 3 200 0
 1190 0062 11F8010B 		ldrb	r0, [r1], #1	@ zero_extendqisi2
 1191              	.LVL186:
 1192 0066 02F8010B 		strb	r0, [r2], #1
 1193              	.LVL187:
 201:Drivers/lvgl/lvgl/src/extra/widgets/tabview/../../../../src/misc/lv_mem.h ****         d8++;
 202:Drivers/lvgl/lvgl/src/extra/widgets/tabview/../../../../src/misc/lv_mem.h ****         s8++;
 203:Drivers/lvgl/lvgl/src/extra/widgets/tabview/../../../../src/misc/lv_mem.h ****         len--;
 1194              		.loc 3 203 0
 1195 006a 013B     		subs	r3, r3, #1
 1196              	.LVL188:
 1197              	.L84:
 199:Drivers/lvgl/lvgl/src/extra/widgets/tabview/../../../../src/misc/lv_mem.h ****         *d8 = *s8;
 1198              		.loc 3 199 0
 1199 006c 002B     		cmp	r3, #0
 1200 006e F8D1     		bne	.L85
 1201              	.LVL189:
 1202              	.LBE37:
 1203              	.LBE38:
  87:Drivers/lvgl/lvgl/src/extra/widgets/tabview/lv_tabview.c ****         strcpy((char *)new_map[tab_id - 1], name);
 1204              		.loc 1 87 0
 1205 0070 5046     		mov	r0, r10
 1206 0072 FFF7FEFF 		bl	strlen
 1207              	.LVL190:
 1208 0076 0130     		adds	r0, r0, #1
 1209 0078 FFF7FEFF 		bl	lv_mem_alloc
 1210              	.LVL191:
 1211 007c 45F82B00 		str	r0, [r5, fp, lsl #2]
  88:Drivers/lvgl/lvgl/src/extra/widgets/tabview/lv_tabview.c ****         new_map[tab_id] = "";
 1212              		.loc 1 88 0
 1213 0080 5146     		mov	r1, r10
 1214 0082 FFF7FEFF 		bl	strcpy
 1215              	.LVL192:
  89:Drivers/lvgl/lvgl/src/extra/widgets/tabview/lv_tabview.c ****     }
 1216              		.loc 1 89 0
 1217 0086 314B     		ldr	r3, .L93
 1218 0088 45F82730 		str	r3, [r5, r7, lsl #2]
 1219              	.L86:
ARM GAS  /tmp/ccEbr1hb.s 			page 44


 107:Drivers/lvgl/lvgl/src/extra/widgets/tabview/lv_tabview.c ****     lv_btnmatrix_set_map(btns, (const char **)new_map);
 1220              		.loc 1 107 0
 1221 008c 6562     		str	r5, [r4, #36]
 108:Drivers/lvgl/lvgl/src/extra/widgets/tabview/lv_tabview.c ****     lv_mem_free(old_map);
 1222              		.loc 1 108 0
 1223 008e 2946     		mov	r1, r5
 1224 0090 3046     		mov	r0, r6
 1225 0092 FFF7FEFF 		bl	lv_btnmatrix_set_map
 1226              	.LVL193:
 109:Drivers/lvgl/lvgl/src/extra/widgets/tabview/lv_tabview.c **** 
 1227              		.loc 1 109 0
 1228 0096 4846     		mov	r0, r9
 1229 0098 FFF7FEFF 		bl	lv_mem_free
 1230              	.LVL194:
 111:Drivers/lvgl/lvgl/src/extra/widgets/tabview/lv_tabview.c ****                                   LV_BTNMATRIX_CTRL_NO_REPEAT);
 1231              		.loc 1 111 0
 1232 009c 4FF42871 		mov	r1, #672
 1233 00a0 3046     		mov	r0, r6
 1234 00a2 FFF7FEFF 		bl	lv_btnmatrix_set_btn_ctrl_all
 1235              	.LVL195:
 114:Drivers/lvgl/lvgl/src/extra/widgets/tabview/lv_tabview.c ****     if(tabview->tab_cnt == 1) {
 1236              		.loc 1 114 0
 1237 00a6 238D     		ldrh	r3, [r4, #40]
 1238 00a8 0133     		adds	r3, r3, #1
 1239 00aa 9BB2     		uxth	r3, r3
 1240 00ac 2385     		strh	r3, [r4, #40]	@ movhi
 115:Drivers/lvgl/lvgl/src/extra/widgets/tabview/lv_tabview.c ****         lv_tabview_set_act(obj, 0, LV_ANIM_OFF);
 1241              		.loc 1 115 0
 1242 00ae 012B     		cmp	r3, #1
 1243 00b0 45D0     		beq	.L92
 1244              	.L90:
 119:Drivers/lvgl/lvgl/src/extra/widgets/tabview/lv_tabview.c **** 
 1245              		.loc 1 119 0
 1246 00b2 4FF48072 		mov	r2, #256
 1247 00b6 618D     		ldrh	r1, [r4, #42]
 1248 00b8 3046     		mov	r0, r6
 1249 00ba FFF7FEFF 		bl	lv_btnmatrix_set_btn_ctrl
 1250              	.LVL196:
 122:Drivers/lvgl/lvgl/src/extra/widgets/tabview/lv_tabview.c **** 
 1251              		.loc 1 122 0
 1252 00be 0198     		ldr	r0, [sp, #4]
 1253 00c0 03B0     		add	sp, sp, #12
 1254              	.LCFI15:
 1255              		.cfi_remember_state
 1256              		.cfi_def_cfa_offset 36
 1257              		@ sp needed
 1258 00c2 BDE8F08F 		pop	{r4, r5, r6, r7, r8, r9, r10, fp, pc}
 1259              	.LVL197:
 1260              	.L83:
 1261              	.LCFI16:
 1262              		.cfi_restore_state
  93:Drivers/lvgl/lvgl/src/extra/widgets/tabview/lv_tabview.c ****         lv_memcpy_small(new_map, old_map, sizeof(const char *) * (tab_id - 1) * 2);
 1263              		.loc 1 93 0
 1264 00c6 4FEAC708 		lsl	r8, r7, #3
 1265 00ca 4046     		mov	r0, r8
 1266              	.LVL198:
 1267 00cc FFF7FEFF 		bl	lv_mem_alloc
ARM GAS  /tmp/ccEbr1hb.s 			page 45


 1268              	.LVL199:
 1269 00d0 0546     		mov	r5, r0
 1270              	.LVL200:
  94:Drivers/lvgl/lvgl/src/extra/widgets/tabview/lv_tabview.c ****         if(tabview->tab_cnt == 0) {
 1271              		.loc 1 94 0
 1272 00d2 6FF04043 		mvn	r3, #-1073741824
 1273 00d6 3B44     		add	r3, r3, r7
 1274 00d8 DB00     		lsls	r3, r3, #3
 1275              	.LVL201:
 1276              	.LBB39:
 1277              	.LBB40:
 197:Drivers/lvgl/lvgl/src/extra/widgets/tabview/../../../../src/misc/lv_mem.h **** 
 1278              		.loc 3 197 0
 1279 00da 4946     		mov	r1, r9
 196:Drivers/lvgl/lvgl/src/extra/widgets/tabview/../../../../src/misc/lv_mem.h ****     const uint8_t * s8 = (const uint8_t *)src;
 1280              		.loc 3 196 0
 1281 00dc 0246     		mov	r2, r0
 1282 00de 04E0     		b	.L87
 1283              	.LVL202:
 1284              	.L88:
 200:Drivers/lvgl/lvgl/src/extra/widgets/tabview/../../../../src/misc/lv_mem.h ****         d8++;
 1285              		.loc 3 200 0
 1286 00e0 11F8010B 		ldrb	r0, [r1], #1	@ zero_extendqisi2
 1287              	.LVL203:
 1288 00e4 02F8010B 		strb	r0, [r2], #1
 1289              	.LVL204:
 1290              		.loc 3 203 0
 1291 00e8 013B     		subs	r3, r3, #1
 1292              	.LVL205:
 1293              	.L87:
 199:Drivers/lvgl/lvgl/src/extra/widgets/tabview/../../../../src/misc/lv_mem.h ****         *d8 = *s8;
 1294              		.loc 3 199 0
 1295 00ea 002B     		cmp	r3, #0
 1296 00ec F8D1     		bne	.L88
 1297              	.LVL206:
 1298              	.LBE40:
 1299              	.LBE39:
  95:Drivers/lvgl/lvgl/src/extra/widgets/tabview/lv_tabview.c ****             new_map[0] = lv_mem_alloc(strlen(name) + 1);
 1300              		.loc 1 95 0
 1301 00ee 238D     		ldrh	r3, [r4, #40]
 1302 00f0 63B9     		cbnz	r3, .L89
  96:Drivers/lvgl/lvgl/src/extra/widgets/tabview/lv_tabview.c ****             strcpy((char *)new_map[0], name);
 1303              		.loc 1 96 0
 1304 00f2 5046     		mov	r0, r10
 1305 00f4 FFF7FEFF 		bl	strlen
 1306              	.LVL207:
 1307 00f8 0130     		adds	r0, r0, #1
 1308 00fa FFF7FEFF 		bl	lv_mem_alloc
 1309              	.LVL208:
 1310 00fe 2860     		str	r0, [r5]
  97:Drivers/lvgl/lvgl/src/extra/widgets/tabview/lv_tabview.c ****             new_map[1] = "";
 1311              		.loc 1 97 0
 1312 0100 5146     		mov	r1, r10
 1313 0102 FFF7FEFF 		bl	strcpy
 1314              	.LVL209:
  98:Drivers/lvgl/lvgl/src/extra/widgets/tabview/lv_tabview.c ****         }
 1315              		.loc 1 98 0
ARM GAS  /tmp/ccEbr1hb.s 			page 46


 1316 0106 114B     		ldr	r3, .L93
 1317 0108 6B60     		str	r3, [r5, #4]
 1318 010a BFE7     		b	.L86
 1319              	.L89:
 101:Drivers/lvgl/lvgl/src/extra/widgets/tabview/lv_tabview.c ****             new_map[tab_id * 2 - 2] = lv_mem_alloc(strlen(name) + 1);
 1320              		.loc 1 101 0
 1321 010c A8F10C03 		sub	r3, r8, #12
 1322 0110 0F4A     		ldr	r2, .L93+4
 1323 0112 EA50     		str	r2, [r5, r3]
 102:Drivers/lvgl/lvgl/src/extra/widgets/tabview/lv_tabview.c ****             new_map[tab_id * 2 - 1] = "";
 1324              		.loc 1 102 0
 1325 0114 5046     		mov	r0, r10
 1326 0116 FFF7FEFF 		bl	strlen
 1327              	.LVL210:
 1328 011a 6FF0604B 		mvn	fp, #-536870912
 1329 011e BB44     		add	fp, fp, r7
 1330 0120 0130     		adds	r0, r0, #1
 1331 0122 FFF7FEFF 		bl	lv_mem_alloc
 1332              	.LVL211:
 1333 0126 45F83B00 		str	r0, [r5, fp, lsl #3]
 103:Drivers/lvgl/lvgl/src/extra/widgets/tabview/lv_tabview.c ****             strcpy((char *)new_map[(tab_id * 2) - 2], name);
 1334              		.loc 1 103 0
 1335 012a A8F10403 		sub	r3, r8, #4
 1336 012e 074A     		ldr	r2, .L93
 1337 0130 EA50     		str	r2, [r5, r3]
 104:Drivers/lvgl/lvgl/src/extra/widgets/tabview/lv_tabview.c ****         }
 1338              		.loc 1 104 0
 1339 0132 5146     		mov	r1, r10
 1340 0134 55F83B00 		ldr	r0, [r5, fp, lsl #3]
 1341 0138 FFF7FEFF 		bl	strcpy
 1342              	.LVL212:
 1343 013c A6E7     		b	.L86
 1344              	.L92:
 116:Drivers/lvgl/lvgl/src/extra/widgets/tabview/lv_tabview.c ****     }
 1345              		.loc 1 116 0
 1346 013e 0022     		movs	r2, #0
 1347 0140 1146     		mov	r1, r2
 1348 0142 2046     		mov	r0, r4
 1349 0144 FFF7FEFF 		bl	lv_tabview_set_act
 1350              	.LVL213:
 1351 0148 B3E7     		b	.L90
 1352              	.L94:
 1353 014a 00BF     		.align	2
 1354              	.L93:
 1355 014c 00000000 		.word	.LC0
 1356 0150 00000000 		.word	.LC1
 1357              		.cfi_endproc
 1358              	.LFE203:
 1360              		.global	lv_tabview_class
 1361              		.section	.bss.tabpos_create,"aw",%nobits
 1362              		.set	.LANCHOR0,. + 0
 1365              	tabpos_create:
 1366 0000 00       		.space	1
 1367              		.section	.bss.tabsize_create,"aw",%nobits
 1368              		.align	1
 1369              		.set	.LANCHOR1,. + 0
 1372              	tabsize_create:
ARM GAS  /tmp/ccEbr1hb.s 			page 47


 1373 0000 0000     		.space	2
 1374              		.section	.rodata.lv_tabview_add_tab.str1.4,"aMS",%progbits,1
 1375              		.align	2
 1376              	.LC1:
 1377 0000 0A00     		.ascii	"\012\000"
 1378              		.section	.rodata.lv_tabview_class,"a",%progbits
 1379              		.align	2
 1380              		.set	.LANCHOR2,. + 0
 1383              	lv_tabview_class:
 1384 0000 00000000 		.word	lv_obj_class
 1385 0004 00000000 		.word	lv_tabview_constructor
 1386 0008 00000000 		.word	lv_tabview_destructor
 1387 000c 00000000 		.space	4
 1388 0010 00000000 		.word	lv_tabview_event
 1389 0014 6420     		.short	8292
 1390 0016 6420     		.short	8292
 1391 0018 00       		.byte	0
 1392 0019 03       		.byte	3
 1393 001a 00       		.byte	0
 1394 001b 00       		.space	1
 1395              		.section	.rodata.lv_tabview_constructor.str1.4,"aMS",%progbits,1
 1396              		.align	2
 1397              	.LC0:
 1398 0000 00       		.ascii	"\000"
 1399              		.text
 1400              	.Letext0:
 1401              		.file 4 "/opt/gcc-arm-none-eabi-7-2017-q4-major/arm-none-eabi/include/machine/_default_types.h"
 1402              		.file 5 "/opt/gcc-arm-none-eabi-7-2017-q4-major/arm-none-eabi/include/sys/_stdint.h"
 1403              		.file 6 "Drivers/lvgl/lvgl/src/extra/widgets/tabview/../../../../src/misc/lv_types.h"
 1404              		.file 7 "Drivers/lvgl/lvgl/src/extra/widgets/tabview/../../../../src/misc/lv_timer.h"
 1405              		.file 8 "/opt/gcc-arm-none-eabi-7-2017-q4-major/lib/gcc/arm-none-eabi/7.2.1/include/stddef.h"
 1406              		.file 9 "/opt/gcc-arm-none-eabi-7-2017-q4-major/arm-none-eabi/include/sys/lock.h"
 1407              		.file 10 "/opt/gcc-arm-none-eabi-7-2017-q4-major/arm-none-eabi/include/sys/_types.h"
 1408              		.file 11 "/opt/gcc-arm-none-eabi-7-2017-q4-major/arm-none-eabi/include/sys/reent.h"
 1409              		.file 12 "Drivers/lvgl/lvgl/src/extra/widgets/tabview/../../../../src/misc/lv_anim.h"
 1410              		.file 13 "Drivers/lvgl/lvgl/src/extra/widgets/tabview/../../../../src/hal/../draw/../misc/../font/
 1411              		.file 14 "Drivers/lvgl/lvgl/src/extra/widgets/tabview/../../../../src/hal/../draw/../misc/../font/
 1412              		.file 15 "Drivers/lvgl/lvgl/src/extra/widgets/tabview/../../../../src/hal/../draw/../misc/lv_color
 1413              		.file 16 "Drivers/lvgl/lvgl/src/extra/widgets/tabview/../../../../src/hal/../draw/../misc/lv_txt.h
 1414              		.file 17 "Drivers/lvgl/lvgl/src/extra/widgets/tabview/../../../../src/hal/../draw/../misc/lv_bidi.
 1415              		.file 18 "Drivers/lvgl/lvgl/src/extra/widgets/tabview/../../../../src/hal/../draw/../misc/lv_style
 1416              		.file 19 "Drivers/lvgl/lvgl/src/extra/widgets/tabview/../../../../src/hal/../draw/lv_img_buf.h"
 1417              		.file 20 "Drivers/lvgl/lvgl/src/extra/widgets/tabview/../../../../src/core/lv_obj.h"
 1418              		.file 21 "Drivers/lvgl/lvgl/src/extra/widgets/tabview/../../../../src/hal/../draw/lv_draw_rect.h"
 1419              		.file 22 "Drivers/lvgl/lvgl/src/extra/widgets/tabview/../../../../src/hal/../draw/lv_draw_label.h"
 1420              		.file 23 "Drivers/lvgl/lvgl/src/extra/widgets/tabview/../../../../src/hal/../draw/lv_draw_img.h"
 1421              		.file 24 "Drivers/lvgl/lvgl/src/extra/widgets/tabview/../../../../src/hal/../draw/lv_draw_line.h"
 1422              		.file 25 "Drivers/lvgl/lvgl/src/extra/widgets/tabview/../../../../src/hal/../draw/lv_draw_arc.h"
 1423              		.file 26 "Drivers/lvgl/lvgl/src/extra/widgets/tabview/../../../../src/hal/../draw/lv_draw_layer.h"
 1424              		.file 27 "Drivers/lvgl/lvgl/src/extra/widgets/tabview/../../../../src/hal/../draw/lv_draw.h"
 1425              		.file 28 "Drivers/lvgl/lvgl/src/extra/widgets/tabview/../../../../src/hal/../misc/lv_ll.h"
 1426              		.file 29 "Drivers/lvgl/lvgl/src/extra/widgets/tabview/../../../../src/hal/lv_hal_disp.h"
 1427              		.file 30 "Drivers/lvgl/lvgl/src/extra/widgets/tabview/../../../../src/core/lv_theme.h"
 1428              		.file 31 "Drivers/lvgl/lvgl/src/extra/widgets/tabview/../../../../src/hal/lv_hal_indev.h"
 1429              		.file 32 "Drivers/lvgl/lvgl/src/extra/widgets/tabview/../../../../src/core/lv_group.h"
 1430              		.file 33 "Drivers/lvgl/lvgl/src/extra/widgets/tabview/../../../../src/core/lv_obj_scroll.h"
 1431              		.file 34 "Drivers/lvgl/lvgl/src/extra/widgets/tabview/../../../../src/core/lv_obj_style.h"
ARM GAS  /tmp/ccEbr1hb.s 			page 48


 1432              		.file 35 "Drivers/lvgl/lvgl/src/extra/widgets/tabview/../../../../src/core/lv_obj_class.h"
 1433              		.file 36 "Drivers/lvgl/lvgl/src/extra/widgets/tabview/../../../../src/core/lv_event.h"
 1434              		.file 37 "Drivers/lvgl/lvgl/src/extra/widgets/tabview/../../../../src/widgets/lv_arc.h"
 1435              		.file 38 "Drivers/lvgl/lvgl/src/extra/widgets/tabview/../../../../src/widgets/lv_btn.h"
 1436              		.file 39 "Drivers/lvgl/lvgl/src/extra/widgets/tabview/../../../../src/widgets/lv_img.h"
 1437              		.file 40 "Drivers/lvgl/lvgl/src/extra/widgets/tabview/../../../../src/widgets/lv_label.h"
 1438              		.file 41 "Drivers/lvgl/lvgl/src/extra/widgets/tabview/../../../../src/widgets/lv_line.h"
 1439              		.file 42 "Drivers/lvgl/lvgl/src/extra/widgets/tabview/../../../../src/widgets/lv_table.h"
 1440              		.file 43 "Drivers/lvgl/lvgl/src/extra/widgets/tabview/../../../../src/widgets/lv_checkbox.h"
 1441              		.file 44 "Drivers/lvgl/lvgl/src/extra/widgets/tabview/../../../../src/widgets/lv_bar.h"
 1442              		.file 45 "Drivers/lvgl/lvgl/src/extra/widgets/tabview/../../../../src/widgets/lv_slider.h"
 1443              		.file 46 "Drivers/lvgl/lvgl/src/extra/widgets/tabview/../../../../src/widgets/lv_btnmatrix.h"
 1444              		.file 47 "Drivers/lvgl/lvgl/src/extra/widgets/tabview/../../../../src/widgets/lv_dropdown.h"
 1445              		.file 48 "Drivers/lvgl/lvgl/src/extra/widgets/tabview/../../../../src/widgets/lv_roller.h"
 1446              		.file 49 "Drivers/lvgl/lvgl/src/extra/widgets/tabview/../../../../src/widgets/lv_textarea.h"
 1447              		.file 50 "Drivers/lvgl/lvgl/src/extra/widgets/tabview/../../../../src/widgets/lv_canvas.h"
 1448              		.file 51 "Drivers/lvgl/lvgl/src/extra/widgets/tabview/../../../../src/widgets/lv_switch.h"
 1449              		.file 52 "Drivers/lvgl/lvgl/src/extra/widgets/tabview/../../../../src/extra/layouts/flex/lv_flex.h
 1450              		.file 53 "Drivers/lvgl/lvgl/src/extra/widgets/tabview/../../../../src/extra/layouts/grid/lv_grid.h
 1451              		.file 54 "Drivers/lvgl/lvgl/src/extra/widgets/tabview/../../../../src/extra/widgets/animimg/lv_ani
 1452              		.file 55 "Drivers/lvgl/lvgl/src/extra/widgets/tabview/../../../../src/extra/widgets/calendar/lv_ca
 1453              		.file 56 "Drivers/lvgl/lvgl/src/extra/widgets/tabview/../../../../src/extra/widgets/calendar/lv_ca
 1454              		.file 57 "Drivers/lvgl/lvgl/src/extra/widgets/tabview/../../../../src/extra/widgets/calendar/lv_ca
 1455              		.file 58 "Drivers/lvgl/lvgl/src/extra/widgets/tabview/../../../../src/extra/widgets/chart/lv_chart
 1456              		.file 59 "Drivers/lvgl/lvgl/src/extra/widgets/tabview/../../../../src/extra/widgets/keyboard/lv_ke
 1457              		.file 60 "Drivers/lvgl/lvgl/src/extra/widgets/tabview/../../../../src/extra/widgets/list/lv_list.h
 1458              		.file 61 "Drivers/lvgl/lvgl/src/extra/widgets/tabview/../../../../src/extra/widgets/menu/lv_menu.h
 1459              		.file 62 "Drivers/lvgl/lvgl/src/extra/widgets/tabview/../../../../src/extra/widgets/msgbox/lv_msgb
 1460              		.file 63 "Drivers/lvgl/lvgl/src/extra/widgets/tabview/../../../../src/extra/widgets/meter/lv_meter
 1461              		.file 64 "Drivers/lvgl/lvgl/src/extra/widgets/tabview/../../../../src/extra/widgets/spinbox/lv_spi
 1462              		.file 65 "Drivers/lvgl/lvgl/src/extra/widgets/tabview/../../../../src/extra/widgets/spinner/lv_spi
 1463              		.file 66 "Drivers/lvgl/lvgl/src/extra/widgets/tabview/../../../../src/extra/widgets/tileview/lv_ti
 1464              		.file 67 "Drivers/lvgl/lvgl/src/extra/widgets/tabview/../../../../src/extra/widgets/win/lv_win.h"
 1465              		.file 68 "Drivers/lvgl/lvgl/src/extra/widgets/tabview/../../../../src/extra/widgets/colorwheel/lv_
 1466              		.file 69 "Drivers/lvgl/lvgl/src/extra/widgets/tabview/../../../../src/extra/widgets/led/lv_led.h"
 1467              		.file 70 "Drivers/lvgl/lvgl/src/extra/widgets/tabview/../../../../src/extra/widgets/imgbtn/lv_imgb
 1468              		.file 71 "Drivers/lvgl/lvgl/src/extra/widgets/tabview/../../../../src/extra/widgets/span/lv_span.h
 1469              		.file 72 "Drivers/lvgl/lvgl/src/extra/widgets/tabview/lv_tabview.h"
 1470              		.file 73 "Drivers/lvgl/lvgl/src/extra/widgets/tabview/../../../../src/hal/../draw/sw/../../core/lv
 1471              		.file 74 "Drivers/lvgl/lvgl/src/extra/widgets/tabview/../../../../src/core/lv_indev.h"
 1472              		.file 75 "Drivers/lvgl/lvgl/src/extra/widgets/tabview/../../../../src/core/lv_obj_tree.h"
 1473              		.file 76 "/opt/gcc-arm-none-eabi-7-2017-q4-major/arm-none-eabi/include/string.h"
ARM GAS  /tmp/ccEbr1hb.s 			page 49

