ARM GAS  /tmp/cclhTXU2.s 			page 1


   1              		.cpu cortex-m7
   2              		.eabi_attribute 28, 1
   3              		.eabi_attribute 20, 1
   4              		.eabi_attribute 21, 1
   5              		.eabi_attribute 23, 3
   6              		.eabi_attribute 24, 1
   7              		.eabi_attribute 25, 1
   8              		.eabi_attribute 26, 1
   9              		.eabi_attribute 30, 1
  10              		.eabi_attribute 34, 1
  11              		.eabi_attribute 18, 4
  12              		.file	"lv_tileview.c"
  13              		.text
  14              	.Ltext0:
  15              		.cfi_sections	.debug_frame
  16              		.section	.text.lv_tileview_constructor,"ax",%progbits
  17              		.align	1
  18              		.syntax unified
  19              		.thumb
  20              		.thumb_func
  21              		.fpu fpv5-d16
  23              	lv_tileview_constructor:
  24              	.LFB164:
  25              		.file 1 "Drivers/lvgl/lvgl/src/extra/widgets/tileview/lv_tileview.c"
   1:Drivers/lvgl/lvgl/src/extra/widgets/tileview/lv_tileview.c **** /**
   2:Drivers/lvgl/lvgl/src/extra/widgets/tileview/lv_tileview.c ****  * @file lv_tileview.c
   3:Drivers/lvgl/lvgl/src/extra/widgets/tileview/lv_tileview.c ****  *
   4:Drivers/lvgl/lvgl/src/extra/widgets/tileview/lv_tileview.c ****  */
   5:Drivers/lvgl/lvgl/src/extra/widgets/tileview/lv_tileview.c **** 
   6:Drivers/lvgl/lvgl/src/extra/widgets/tileview/lv_tileview.c **** /*********************
   7:Drivers/lvgl/lvgl/src/extra/widgets/tileview/lv_tileview.c ****  *      INCLUDES
   8:Drivers/lvgl/lvgl/src/extra/widgets/tileview/lv_tileview.c ****  *********************/
   9:Drivers/lvgl/lvgl/src/extra/widgets/tileview/lv_tileview.c **** #include "lv_tileview.h"
  10:Drivers/lvgl/lvgl/src/extra/widgets/tileview/lv_tileview.c **** #include "../../../core/lv_indev.h"
  11:Drivers/lvgl/lvgl/src/extra/widgets/tileview/lv_tileview.c **** #if LV_USE_TILEVIEW
  12:Drivers/lvgl/lvgl/src/extra/widgets/tileview/lv_tileview.c **** 
  13:Drivers/lvgl/lvgl/src/extra/widgets/tileview/lv_tileview.c **** /*********************
  14:Drivers/lvgl/lvgl/src/extra/widgets/tileview/lv_tileview.c ****  *      DEFINES
  15:Drivers/lvgl/lvgl/src/extra/widgets/tileview/lv_tileview.c ****  *********************/
  16:Drivers/lvgl/lvgl/src/extra/widgets/tileview/lv_tileview.c **** 
  17:Drivers/lvgl/lvgl/src/extra/widgets/tileview/lv_tileview.c **** /**********************
  18:Drivers/lvgl/lvgl/src/extra/widgets/tileview/lv_tileview.c ****  *      TYPEDEFS
  19:Drivers/lvgl/lvgl/src/extra/widgets/tileview/lv_tileview.c ****  **********************/
  20:Drivers/lvgl/lvgl/src/extra/widgets/tileview/lv_tileview.c **** 
  21:Drivers/lvgl/lvgl/src/extra/widgets/tileview/lv_tileview.c **** /**********************
  22:Drivers/lvgl/lvgl/src/extra/widgets/tileview/lv_tileview.c ****  *  STATIC PROTOTYPES
  23:Drivers/lvgl/lvgl/src/extra/widgets/tileview/lv_tileview.c ****  **********************/
  24:Drivers/lvgl/lvgl/src/extra/widgets/tileview/lv_tileview.c **** static void lv_tileview_constructor(const lv_obj_class_t * class_p, lv_obj_t * obj);
  25:Drivers/lvgl/lvgl/src/extra/widgets/tileview/lv_tileview.c **** static void lv_tileview_tile_constructor(const lv_obj_class_t * class_p, lv_obj_t * obj);
  26:Drivers/lvgl/lvgl/src/extra/widgets/tileview/lv_tileview.c **** static void tileview_event_cb(lv_event_t * e);
  27:Drivers/lvgl/lvgl/src/extra/widgets/tileview/lv_tileview.c **** 
  28:Drivers/lvgl/lvgl/src/extra/widgets/tileview/lv_tileview.c **** /**********************
  29:Drivers/lvgl/lvgl/src/extra/widgets/tileview/lv_tileview.c ****  *  STATIC VARIABLES
  30:Drivers/lvgl/lvgl/src/extra/widgets/tileview/lv_tileview.c ****  **********************/
  31:Drivers/lvgl/lvgl/src/extra/widgets/tileview/lv_tileview.c **** 
  32:Drivers/lvgl/lvgl/src/extra/widgets/tileview/lv_tileview.c **** const lv_obj_class_t lv_tileview_class = {.constructor_cb = lv_tileview_constructor,
  33:Drivers/lvgl/lvgl/src/extra/widgets/tileview/lv_tileview.c ****                                           .base_class = &lv_obj_class,
ARM GAS  /tmp/cclhTXU2.s 			page 2


  34:Drivers/lvgl/lvgl/src/extra/widgets/tileview/lv_tileview.c ****                                           .instance_size = sizeof(lv_tileview_t)
  35:Drivers/lvgl/lvgl/src/extra/widgets/tileview/lv_tileview.c ****                                          };
  36:Drivers/lvgl/lvgl/src/extra/widgets/tileview/lv_tileview.c **** 
  37:Drivers/lvgl/lvgl/src/extra/widgets/tileview/lv_tileview.c **** const lv_obj_class_t lv_tileview_tile_class = {.constructor_cb = lv_tileview_tile_constructor,
  38:Drivers/lvgl/lvgl/src/extra/widgets/tileview/lv_tileview.c ****                                                .base_class = &lv_obj_class,
  39:Drivers/lvgl/lvgl/src/extra/widgets/tileview/lv_tileview.c ****                                                .instance_size = sizeof(lv_tileview_tile_t)
  40:Drivers/lvgl/lvgl/src/extra/widgets/tileview/lv_tileview.c ****                                               };
  41:Drivers/lvgl/lvgl/src/extra/widgets/tileview/lv_tileview.c **** 
  42:Drivers/lvgl/lvgl/src/extra/widgets/tileview/lv_tileview.c **** static lv_dir_t create_dir;
  43:Drivers/lvgl/lvgl/src/extra/widgets/tileview/lv_tileview.c **** static uint32_t create_col_id;
  44:Drivers/lvgl/lvgl/src/extra/widgets/tileview/lv_tileview.c **** static uint32_t create_row_id;
  45:Drivers/lvgl/lvgl/src/extra/widgets/tileview/lv_tileview.c **** 
  46:Drivers/lvgl/lvgl/src/extra/widgets/tileview/lv_tileview.c **** /**********************
  47:Drivers/lvgl/lvgl/src/extra/widgets/tileview/lv_tileview.c ****  *      MACROS
  48:Drivers/lvgl/lvgl/src/extra/widgets/tileview/lv_tileview.c ****  **********************/
  49:Drivers/lvgl/lvgl/src/extra/widgets/tileview/lv_tileview.c **** 
  50:Drivers/lvgl/lvgl/src/extra/widgets/tileview/lv_tileview.c **** /**********************
  51:Drivers/lvgl/lvgl/src/extra/widgets/tileview/lv_tileview.c ****  *   GLOBAL FUNCTIONS
  52:Drivers/lvgl/lvgl/src/extra/widgets/tileview/lv_tileview.c ****  **********************/
  53:Drivers/lvgl/lvgl/src/extra/widgets/tileview/lv_tileview.c **** 
  54:Drivers/lvgl/lvgl/src/extra/widgets/tileview/lv_tileview.c **** lv_obj_t * lv_tileview_create(lv_obj_t * parent)
  55:Drivers/lvgl/lvgl/src/extra/widgets/tileview/lv_tileview.c **** {
  56:Drivers/lvgl/lvgl/src/extra/widgets/tileview/lv_tileview.c ****     LV_LOG_INFO("begin");
  57:Drivers/lvgl/lvgl/src/extra/widgets/tileview/lv_tileview.c ****     lv_obj_t * obj = lv_obj_class_create_obj(&lv_tileview_class, parent);
  58:Drivers/lvgl/lvgl/src/extra/widgets/tileview/lv_tileview.c ****     lv_obj_class_init_obj(obj);
  59:Drivers/lvgl/lvgl/src/extra/widgets/tileview/lv_tileview.c ****     return obj;
  60:Drivers/lvgl/lvgl/src/extra/widgets/tileview/lv_tileview.c **** }
  61:Drivers/lvgl/lvgl/src/extra/widgets/tileview/lv_tileview.c **** 
  62:Drivers/lvgl/lvgl/src/extra/widgets/tileview/lv_tileview.c **** /*======================
  63:Drivers/lvgl/lvgl/src/extra/widgets/tileview/lv_tileview.c ****  * Add/remove functions
  64:Drivers/lvgl/lvgl/src/extra/widgets/tileview/lv_tileview.c ****  *=====================*/
  65:Drivers/lvgl/lvgl/src/extra/widgets/tileview/lv_tileview.c **** 
  66:Drivers/lvgl/lvgl/src/extra/widgets/tileview/lv_tileview.c **** lv_obj_t * lv_tileview_add_tile(lv_obj_t * tv, uint8_t col_id, uint8_t row_id, lv_dir_t dir)
  67:Drivers/lvgl/lvgl/src/extra/widgets/tileview/lv_tileview.c **** {
  68:Drivers/lvgl/lvgl/src/extra/widgets/tileview/lv_tileview.c ****     LV_LOG_INFO("begin");
  69:Drivers/lvgl/lvgl/src/extra/widgets/tileview/lv_tileview.c ****     create_dir = dir;
  70:Drivers/lvgl/lvgl/src/extra/widgets/tileview/lv_tileview.c ****     create_col_id = col_id;
  71:Drivers/lvgl/lvgl/src/extra/widgets/tileview/lv_tileview.c ****     create_row_id = row_id;
  72:Drivers/lvgl/lvgl/src/extra/widgets/tileview/lv_tileview.c **** 
  73:Drivers/lvgl/lvgl/src/extra/widgets/tileview/lv_tileview.c ****     lv_obj_t * obj = lv_obj_class_create_obj(&lv_tileview_tile_class, tv);
  74:Drivers/lvgl/lvgl/src/extra/widgets/tileview/lv_tileview.c ****     lv_obj_class_init_obj(obj);
  75:Drivers/lvgl/lvgl/src/extra/widgets/tileview/lv_tileview.c ****     return obj;
  76:Drivers/lvgl/lvgl/src/extra/widgets/tileview/lv_tileview.c **** }
  77:Drivers/lvgl/lvgl/src/extra/widgets/tileview/lv_tileview.c **** 
  78:Drivers/lvgl/lvgl/src/extra/widgets/tileview/lv_tileview.c **** void lv_obj_set_tile(lv_obj_t * obj, lv_obj_t * tile_obj, lv_anim_enable_t anim_en)
  79:Drivers/lvgl/lvgl/src/extra/widgets/tileview/lv_tileview.c **** {
  80:Drivers/lvgl/lvgl/src/extra/widgets/tileview/lv_tileview.c ****     lv_coord_t tx = lv_obj_get_x(tile_obj);
  81:Drivers/lvgl/lvgl/src/extra/widgets/tileview/lv_tileview.c ****     lv_coord_t ty = lv_obj_get_y(tile_obj);
  82:Drivers/lvgl/lvgl/src/extra/widgets/tileview/lv_tileview.c **** 
  83:Drivers/lvgl/lvgl/src/extra/widgets/tileview/lv_tileview.c ****     lv_tileview_tile_t * tile = (lv_tileview_tile_t *)tile_obj;
  84:Drivers/lvgl/lvgl/src/extra/widgets/tileview/lv_tileview.c ****     lv_tileview_t * tv = (lv_tileview_t *) obj;
  85:Drivers/lvgl/lvgl/src/extra/widgets/tileview/lv_tileview.c ****     tv->tile_act = (lv_obj_t *)tile;
  86:Drivers/lvgl/lvgl/src/extra/widgets/tileview/lv_tileview.c **** 
  87:Drivers/lvgl/lvgl/src/extra/widgets/tileview/lv_tileview.c ****     lv_obj_set_scroll_dir(obj, tile->dir);
  88:Drivers/lvgl/lvgl/src/extra/widgets/tileview/lv_tileview.c ****     lv_obj_scroll_to(obj, tx, ty, anim_en);
  89:Drivers/lvgl/lvgl/src/extra/widgets/tileview/lv_tileview.c **** }
  90:Drivers/lvgl/lvgl/src/extra/widgets/tileview/lv_tileview.c **** 
ARM GAS  /tmp/cclhTXU2.s 			page 3


  91:Drivers/lvgl/lvgl/src/extra/widgets/tileview/lv_tileview.c **** void lv_obj_set_tile_id(lv_obj_t * tv, uint32_t col_id, uint32_t row_id, lv_anim_enable_t anim_en)
  92:Drivers/lvgl/lvgl/src/extra/widgets/tileview/lv_tileview.c **** {
  93:Drivers/lvgl/lvgl/src/extra/widgets/tileview/lv_tileview.c ****     lv_obj_update_layout(tv);
  94:Drivers/lvgl/lvgl/src/extra/widgets/tileview/lv_tileview.c **** 
  95:Drivers/lvgl/lvgl/src/extra/widgets/tileview/lv_tileview.c ****     lv_coord_t w = lv_obj_get_content_width(tv);
  96:Drivers/lvgl/lvgl/src/extra/widgets/tileview/lv_tileview.c ****     lv_coord_t h = lv_obj_get_content_height(tv);
  97:Drivers/lvgl/lvgl/src/extra/widgets/tileview/lv_tileview.c **** 
  98:Drivers/lvgl/lvgl/src/extra/widgets/tileview/lv_tileview.c ****     lv_coord_t tx = col_id * w;
  99:Drivers/lvgl/lvgl/src/extra/widgets/tileview/lv_tileview.c ****     lv_coord_t ty = row_id * h;
 100:Drivers/lvgl/lvgl/src/extra/widgets/tileview/lv_tileview.c **** 
 101:Drivers/lvgl/lvgl/src/extra/widgets/tileview/lv_tileview.c ****     uint32_t i;
 102:Drivers/lvgl/lvgl/src/extra/widgets/tileview/lv_tileview.c ****     for(i = 0; i < lv_obj_get_child_cnt(tv); i++) {
 103:Drivers/lvgl/lvgl/src/extra/widgets/tileview/lv_tileview.c ****         lv_obj_t * tile_obj = lv_obj_get_child(tv, i);
 104:Drivers/lvgl/lvgl/src/extra/widgets/tileview/lv_tileview.c ****         lv_coord_t x = lv_obj_get_x(tile_obj);
 105:Drivers/lvgl/lvgl/src/extra/widgets/tileview/lv_tileview.c ****         lv_coord_t y = lv_obj_get_y(tile_obj);
 106:Drivers/lvgl/lvgl/src/extra/widgets/tileview/lv_tileview.c ****         if(x == tx && y == ty) {
 107:Drivers/lvgl/lvgl/src/extra/widgets/tileview/lv_tileview.c ****             lv_obj_set_tile(tv, tile_obj, anim_en);
 108:Drivers/lvgl/lvgl/src/extra/widgets/tileview/lv_tileview.c ****             return;
 109:Drivers/lvgl/lvgl/src/extra/widgets/tileview/lv_tileview.c ****         }
 110:Drivers/lvgl/lvgl/src/extra/widgets/tileview/lv_tileview.c ****     }
 111:Drivers/lvgl/lvgl/src/extra/widgets/tileview/lv_tileview.c **** 
 112:Drivers/lvgl/lvgl/src/extra/widgets/tileview/lv_tileview.c ****     LV_LOG_WARN("No tile found with at (%d,%d) index", (int)col_id, (int)row_id);
 113:Drivers/lvgl/lvgl/src/extra/widgets/tileview/lv_tileview.c **** }
 114:Drivers/lvgl/lvgl/src/extra/widgets/tileview/lv_tileview.c **** 
 115:Drivers/lvgl/lvgl/src/extra/widgets/tileview/lv_tileview.c **** lv_obj_t * lv_tileview_get_tile_act(lv_obj_t * obj)
 116:Drivers/lvgl/lvgl/src/extra/widgets/tileview/lv_tileview.c **** {
 117:Drivers/lvgl/lvgl/src/extra/widgets/tileview/lv_tileview.c ****     lv_tileview_t * tv = (lv_tileview_t *) obj;
 118:Drivers/lvgl/lvgl/src/extra/widgets/tileview/lv_tileview.c ****     return tv->tile_act;
 119:Drivers/lvgl/lvgl/src/extra/widgets/tileview/lv_tileview.c **** }
 120:Drivers/lvgl/lvgl/src/extra/widgets/tileview/lv_tileview.c **** 
 121:Drivers/lvgl/lvgl/src/extra/widgets/tileview/lv_tileview.c **** /**********************
 122:Drivers/lvgl/lvgl/src/extra/widgets/tileview/lv_tileview.c ****  *   STATIC FUNCTIONS
 123:Drivers/lvgl/lvgl/src/extra/widgets/tileview/lv_tileview.c ****  **********************/
 124:Drivers/lvgl/lvgl/src/extra/widgets/tileview/lv_tileview.c **** 
 125:Drivers/lvgl/lvgl/src/extra/widgets/tileview/lv_tileview.c **** static void lv_tileview_constructor(const lv_obj_class_t * class_p, lv_obj_t * obj)
 126:Drivers/lvgl/lvgl/src/extra/widgets/tileview/lv_tileview.c **** {
  26              		.loc 1 126 0
  27              		.cfi_startproc
  28              		@ args = 0, pretend = 0, frame = 0
  29              		@ frame_needed = 0, uses_anonymous_args = 0
  30              	.LVL0:
  31 0000 10B5     		push	{r4, lr}
  32              	.LCFI0:
  33              		.cfi_def_cfa_offset 8
  34              		.cfi_offset 4, -8
  35              		.cfi_offset 14, -4
  36 0002 0C46     		mov	r4, r1
 127:Drivers/lvgl/lvgl/src/extra/widgets/tileview/lv_tileview.c ****     LV_UNUSED(class_p);
 128:Drivers/lvgl/lvgl/src/extra/widgets/tileview/lv_tileview.c ****     lv_obj_set_size(obj, LV_PCT(100), LV_PCT(100));
  37              		.loc 1 128 0
  38 0004 42F26402 		movw	r2, #8292
  39 0008 1146     		mov	r1, r2
  40              	.LVL1:
  41 000a 2046     		mov	r0, r4
  42              	.LVL2:
  43 000c FFF7FEFF 		bl	lv_obj_set_size
  44              	.LVL3:
ARM GAS  /tmp/cclhTXU2.s 			page 4


 129:Drivers/lvgl/lvgl/src/extra/widgets/tileview/lv_tileview.c ****     lv_obj_add_event_cb(obj, tileview_event_cb, LV_EVENT_ALL, NULL);
  45              		.loc 1 129 0
  46 0010 0023     		movs	r3, #0
  47 0012 1A46     		mov	r2, r3
  48 0014 0849     		ldr	r1, .L3
  49 0016 2046     		mov	r0, r4
  50 0018 FFF7FEFF 		bl	lv_obj_add_event_cb
  51              	.LVL4:
 130:Drivers/lvgl/lvgl/src/extra/widgets/tileview/lv_tileview.c ****     lv_obj_add_flag(obj, LV_OBJ_FLAG_SCROLL_ONE);
  52              		.loc 1 130 0
  53 001c 8021     		movs	r1, #128
  54 001e 2046     		mov	r0, r4
  55 0020 FFF7FEFF 		bl	lv_obj_add_flag
  56              	.LVL5:
 131:Drivers/lvgl/lvgl/src/extra/widgets/tileview/lv_tileview.c ****     lv_obj_set_scroll_snap_x(obj, LV_SCROLL_SNAP_CENTER);
  57              		.loc 1 131 0
  58 0024 0321     		movs	r1, #3
  59 0026 2046     		mov	r0, r4
  60 0028 FFF7FEFF 		bl	lv_obj_set_scroll_snap_x
  61              	.LVL6:
 132:Drivers/lvgl/lvgl/src/extra/widgets/tileview/lv_tileview.c ****     lv_obj_set_scroll_snap_y(obj, LV_SCROLL_SNAP_CENTER);
  62              		.loc 1 132 0
  63 002c 0321     		movs	r1, #3
  64 002e 2046     		mov	r0, r4
  65 0030 FFF7FEFF 		bl	lv_obj_set_scroll_snap_y
  66              	.LVL7:
 133:Drivers/lvgl/lvgl/src/extra/widgets/tileview/lv_tileview.c **** 
 134:Drivers/lvgl/lvgl/src/extra/widgets/tileview/lv_tileview.c **** }
  67              		.loc 1 134 0
  68 0034 10BD     		pop	{r4, pc}
  69              	.LVL8:
  70              	.L4:
  71 0036 00BF     		.align	2
  72              	.L3:
  73 0038 00000000 		.word	tileview_event_cb
  74              		.cfi_endproc
  75              	.LFE164:
  77              		.section	.text.tileview_event_cb,"ax",%progbits
  78              		.align	1
  79              		.syntax unified
  80              		.thumb
  81              		.thumb_func
  82              		.fpu fpv5-d16
  84              	tileview_event_cb:
  85              	.LFB166:
 135:Drivers/lvgl/lvgl/src/extra/widgets/tileview/lv_tileview.c **** 
 136:Drivers/lvgl/lvgl/src/extra/widgets/tileview/lv_tileview.c **** static void lv_tileview_tile_constructor(const lv_obj_class_t * class_p, lv_obj_t * obj)
 137:Drivers/lvgl/lvgl/src/extra/widgets/tileview/lv_tileview.c **** {
 138:Drivers/lvgl/lvgl/src/extra/widgets/tileview/lv_tileview.c **** 
 139:Drivers/lvgl/lvgl/src/extra/widgets/tileview/lv_tileview.c ****     LV_UNUSED(class_p);
 140:Drivers/lvgl/lvgl/src/extra/widgets/tileview/lv_tileview.c ****     lv_obj_t * parent = lv_obj_get_parent(obj);
 141:Drivers/lvgl/lvgl/src/extra/widgets/tileview/lv_tileview.c ****     lv_obj_set_size(obj, LV_PCT(100), LV_PCT(100));
 142:Drivers/lvgl/lvgl/src/extra/widgets/tileview/lv_tileview.c ****     lv_obj_update_layout(obj);  /*Be sure the size is correct*/
 143:Drivers/lvgl/lvgl/src/extra/widgets/tileview/lv_tileview.c ****     lv_obj_set_pos(obj, create_col_id * lv_obj_get_content_width(parent),
 144:Drivers/lvgl/lvgl/src/extra/widgets/tileview/lv_tileview.c ****                    create_row_id * lv_obj_get_content_height(parent));
 145:Drivers/lvgl/lvgl/src/extra/widgets/tileview/lv_tileview.c **** 
 146:Drivers/lvgl/lvgl/src/extra/widgets/tileview/lv_tileview.c ****     lv_tileview_tile_t * tile = (lv_tileview_tile_t *)obj;
ARM GAS  /tmp/cclhTXU2.s 			page 5


 147:Drivers/lvgl/lvgl/src/extra/widgets/tileview/lv_tileview.c ****     tile->dir = create_dir;
 148:Drivers/lvgl/lvgl/src/extra/widgets/tileview/lv_tileview.c **** 
 149:Drivers/lvgl/lvgl/src/extra/widgets/tileview/lv_tileview.c ****     if(create_col_id == 0 && create_row_id == 0) {
 150:Drivers/lvgl/lvgl/src/extra/widgets/tileview/lv_tileview.c ****         lv_obj_set_scroll_dir(parent, create_dir);
 151:Drivers/lvgl/lvgl/src/extra/widgets/tileview/lv_tileview.c ****     }
 152:Drivers/lvgl/lvgl/src/extra/widgets/tileview/lv_tileview.c **** }
 153:Drivers/lvgl/lvgl/src/extra/widgets/tileview/lv_tileview.c **** 
 154:Drivers/lvgl/lvgl/src/extra/widgets/tileview/lv_tileview.c **** static void tileview_event_cb(lv_event_t * e)
 155:Drivers/lvgl/lvgl/src/extra/widgets/tileview/lv_tileview.c **** {
  86              		.loc 1 155 0
  87              		.cfi_startproc
  88              		@ args = 0, pretend = 0, frame = 8
  89              		@ frame_needed = 0, uses_anonymous_args = 0
  90              	.LVL9:
  91 0000 2DE9F043 		push	{r4, r5, r6, r7, r8, r9, lr}
  92              	.LCFI1:
  93              		.cfi_def_cfa_offset 28
  94              		.cfi_offset 4, -28
  95              		.cfi_offset 5, -24
  96              		.cfi_offset 6, -20
  97              		.cfi_offset 7, -16
  98              		.cfi_offset 8, -12
  99              		.cfi_offset 9, -8
 100              		.cfi_offset 14, -4
 101 0004 83B0     		sub	sp, sp, #12
 102              	.LCFI2:
 103              		.cfi_def_cfa_offset 40
 104 0006 0546     		mov	r5, r0
 156:Drivers/lvgl/lvgl/src/extra/widgets/tileview/lv_tileview.c ****     lv_event_code_t code = lv_event_get_code(e);
 105              		.loc 1 156 0
 106 0008 FFF7FEFF 		bl	lv_event_get_code
 107              	.LVL10:
 108 000c 0446     		mov	r4, r0
 109              	.LVL11:
 157:Drivers/lvgl/lvgl/src/extra/widgets/tileview/lv_tileview.c ****     lv_obj_t * obj = lv_event_get_target(e);
 110              		.loc 1 157 0
 111 000e 2846     		mov	r0, r5
 112 0010 FFF7FEFF 		bl	lv_event_get_target
 113              	.LVL12:
 158:Drivers/lvgl/lvgl/src/extra/widgets/tileview/lv_tileview.c ****     lv_tileview_t * tv = (lv_tileview_t *) obj;
 159:Drivers/lvgl/lvgl/src/extra/widgets/tileview/lv_tileview.c **** 
 160:Drivers/lvgl/lvgl/src/extra/widgets/tileview/lv_tileview.c ****     if(code == LV_EVENT_SCROLL_END) {
 114              		.loc 1 160 0
 115 0014 0A2C     		cmp	r4, #10
 116 0016 02D0     		beq	.L16
 117              	.LVL13:
 118              	.L5:
 161:Drivers/lvgl/lvgl/src/extra/widgets/tileview/lv_tileview.c ****         lv_indev_t * indev = lv_indev_get_act();
 162:Drivers/lvgl/lvgl/src/extra/widgets/tileview/lv_tileview.c ****         if(indev && indev->proc.state == LV_INDEV_STATE_PRESSED) {
 163:Drivers/lvgl/lvgl/src/extra/widgets/tileview/lv_tileview.c ****             return;
 164:Drivers/lvgl/lvgl/src/extra/widgets/tileview/lv_tileview.c ****         }
 165:Drivers/lvgl/lvgl/src/extra/widgets/tileview/lv_tileview.c **** 
 166:Drivers/lvgl/lvgl/src/extra/widgets/tileview/lv_tileview.c ****         lv_coord_t w = lv_obj_get_content_width(obj);
 167:Drivers/lvgl/lvgl/src/extra/widgets/tileview/lv_tileview.c ****         lv_coord_t h = lv_obj_get_content_height(obj);
 168:Drivers/lvgl/lvgl/src/extra/widgets/tileview/lv_tileview.c **** 
 169:Drivers/lvgl/lvgl/src/extra/widgets/tileview/lv_tileview.c ****         lv_point_t scroll_end;
 170:Drivers/lvgl/lvgl/src/extra/widgets/tileview/lv_tileview.c ****         lv_obj_get_scroll_end(obj, &scroll_end);
ARM GAS  /tmp/cclhTXU2.s 			page 6


 171:Drivers/lvgl/lvgl/src/extra/widgets/tileview/lv_tileview.c ****         lv_coord_t left = scroll_end.x;
 172:Drivers/lvgl/lvgl/src/extra/widgets/tileview/lv_tileview.c ****         lv_coord_t top = scroll_end.y;
 173:Drivers/lvgl/lvgl/src/extra/widgets/tileview/lv_tileview.c **** 
 174:Drivers/lvgl/lvgl/src/extra/widgets/tileview/lv_tileview.c ****         lv_coord_t tx = ((left + (w / 2)) / w) * w;
 175:Drivers/lvgl/lvgl/src/extra/widgets/tileview/lv_tileview.c ****         lv_coord_t ty = ((top + (h / 2)) / h) * h;
 176:Drivers/lvgl/lvgl/src/extra/widgets/tileview/lv_tileview.c **** 
 177:Drivers/lvgl/lvgl/src/extra/widgets/tileview/lv_tileview.c ****         lv_dir_t dir = LV_DIR_ALL;
 178:Drivers/lvgl/lvgl/src/extra/widgets/tileview/lv_tileview.c ****         uint32_t i;
 179:Drivers/lvgl/lvgl/src/extra/widgets/tileview/lv_tileview.c ****         for(i = 0; i < lv_obj_get_child_cnt(obj); i++) {
 180:Drivers/lvgl/lvgl/src/extra/widgets/tileview/lv_tileview.c ****             lv_obj_t * tile_obj = lv_obj_get_child(obj, i);
 181:Drivers/lvgl/lvgl/src/extra/widgets/tileview/lv_tileview.c ****             lv_coord_t x = lv_obj_get_x(tile_obj);
 182:Drivers/lvgl/lvgl/src/extra/widgets/tileview/lv_tileview.c ****             lv_coord_t y = lv_obj_get_y(tile_obj);
 183:Drivers/lvgl/lvgl/src/extra/widgets/tileview/lv_tileview.c ****             if(x == tx && y == ty) {
 184:Drivers/lvgl/lvgl/src/extra/widgets/tileview/lv_tileview.c ****                 lv_tileview_tile_t * tile = (lv_tileview_tile_t *)tile_obj;
 185:Drivers/lvgl/lvgl/src/extra/widgets/tileview/lv_tileview.c ****                 tv->tile_act = (lv_obj_t *)tile;
 186:Drivers/lvgl/lvgl/src/extra/widgets/tileview/lv_tileview.c ****                 dir = tile->dir;
 187:Drivers/lvgl/lvgl/src/extra/widgets/tileview/lv_tileview.c ****                 lv_event_send(obj, LV_EVENT_VALUE_CHANGED, NULL);
 188:Drivers/lvgl/lvgl/src/extra/widgets/tileview/lv_tileview.c ****                 break;
 189:Drivers/lvgl/lvgl/src/extra/widgets/tileview/lv_tileview.c ****             }
 190:Drivers/lvgl/lvgl/src/extra/widgets/tileview/lv_tileview.c ****         }
 191:Drivers/lvgl/lvgl/src/extra/widgets/tileview/lv_tileview.c ****         lv_obj_set_scroll_dir(obj, dir);
 192:Drivers/lvgl/lvgl/src/extra/widgets/tileview/lv_tileview.c ****     }
 193:Drivers/lvgl/lvgl/src/extra/widgets/tileview/lv_tileview.c **** }
 119              		.loc 1 193 0
 120 0018 03B0     		add	sp, sp, #12
 121              	.LCFI3:
 122              		.cfi_remember_state
 123              		.cfi_def_cfa_offset 28
 124              		@ sp needed
 125 001a BDE8F083 		pop	{r4, r5, r6, r7, r8, r9, pc}
 126              	.LVL14:
 127              	.L16:
 128              	.LCFI4:
 129              		.cfi_restore_state
 130 001e 0546     		mov	r5, r0
 131              	.LVL15:
 132              	.LBB2:
 161:Drivers/lvgl/lvgl/src/extra/widgets/tileview/lv_tileview.c ****         lv_indev_t * indev = lv_indev_get_act();
 133              		.loc 1 161 0
 134 0020 FFF7FEFF 		bl	lv_indev_get_act
 135              	.LVL16:
 162:Drivers/lvgl/lvgl/src/extra/widgets/tileview/lv_tileview.c ****             return;
 136              		.loc 1 162 0
 137 0024 10B1     		cbz	r0, .L7
 162:Drivers/lvgl/lvgl/src/extra/widgets/tileview/lv_tileview.c ****             return;
 138              		.loc 1 162 0 is_stmt 0 discriminator 1
 139 0026 0379     		ldrb	r3, [r0, #4]	@ zero_extendqisi2
 140 0028 012B     		cmp	r3, #1
 141 002a F5D0     		beq	.L5
 142              	.L7:
 166:Drivers/lvgl/lvgl/src/extra/widgets/tileview/lv_tileview.c ****         lv_coord_t h = lv_obj_get_content_height(obj);
 143              		.loc 1 166 0 is_stmt 1
 144 002c 2846     		mov	r0, r5
 145              	.LVL17:
 146 002e FFF7FEFF 		bl	lv_obj_get_content_width
 147              	.LVL18:
 148 0032 8046     		mov	r8, r0
ARM GAS  /tmp/cclhTXU2.s 			page 7


 149              	.LVL19:
 167:Drivers/lvgl/lvgl/src/extra/widgets/tileview/lv_tileview.c **** 
 150              		.loc 1 167 0
 151 0034 2846     		mov	r0, r5
 152 0036 FFF7FEFF 		bl	lv_obj_get_content_height
 153              	.LVL20:
 154 003a 0446     		mov	r4, r0
 155              	.LVL21:
 170:Drivers/lvgl/lvgl/src/extra/widgets/tileview/lv_tileview.c ****         lv_coord_t left = scroll_end.x;
 156              		.loc 1 170 0
 157 003c 01A9     		add	r1, sp, #4
 158 003e 2846     		mov	r0, r5
 159 0040 FFF7FEFF 		bl	lv_obj_get_scroll_end
 160              	.LVL22:
 171:Drivers/lvgl/lvgl/src/extra/widgets/tileview/lv_tileview.c ****         lv_coord_t top = scroll_end.y;
 161              		.loc 1 171 0
 162 0044 BDF90470 		ldrsh	r7, [sp, #4]
 163              	.LVL23:
 172:Drivers/lvgl/lvgl/src/extra/widgets/tileview/lv_tileview.c **** 
 164              		.loc 1 172 0
 165 0048 BDF90660 		ldrsh	r6, [sp, #6]
 166              	.LVL24:
 174:Drivers/lvgl/lvgl/src/extra/widgets/tileview/lv_tileview.c ****         lv_coord_t ty = ((top + (h / 2)) / h) * h;
 167              		.loc 1 174 0
 168 004c 4346     		mov	r3, r8
 169 004e B8F1000F 		cmp	r8, #0
 170 0052 29DB     		blt	.L17
 171              	.L9:
 172 0054 43F34F03 		sbfx	r3, r3, #1, #16
 173 0058 1F44     		add	r7, r7, r3
 174              	.LVL25:
 175 005a 97FBF8F7 		sdiv	r7, r7, r8
 176 005e 17FB08F7 		smulbb	r7, r7, r8
 177 0062 3FB2     		sxth	r7, r7
 178              	.LVL26:
 175:Drivers/lvgl/lvgl/src/extra/widgets/tileview/lv_tileview.c **** 
 179              		.loc 1 175 0
 180 0064 2346     		mov	r3, r4
 181 0066 002C     		cmp	r4, #0
 182 0068 21DB     		blt	.L18
 183              	.L10:
 184 006a 43F34F03 		sbfx	r3, r3, #1, #16
 185 006e 1E44     		add	r6, r6, r3
 186              	.LVL27:
 187 0070 96FBF4F6 		sdiv	r6, r6, r4
 188 0074 16FB04F6 		smulbb	r6, r6, r4
 189 0078 36B2     		sxth	r6, r6
 190              	.LVL28:
 179:Drivers/lvgl/lvgl/src/extra/widgets/tileview/lv_tileview.c ****             lv_obj_t * tile_obj = lv_obj_get_child(obj, i);
 191              		.loc 1 179 0
 192 007a 0024     		movs	r4, #0
 193              	.LVL29:
 194              	.L11:
 179:Drivers/lvgl/lvgl/src/extra/widgets/tileview/lv_tileview.c ****             lv_obj_t * tile_obj = lv_obj_get_child(obj, i);
 195              		.loc 1 179 0 is_stmt 0 discriminator 1
 196 007c 2846     		mov	r0, r5
 197 007e FFF7FEFF 		bl	lv_obj_get_child_cnt
ARM GAS  /tmp/cclhTXU2.s 			page 8


 198              	.LVL30:
 199 0082 A042     		cmp	r0, r4
 200 0084 1FD9     		bls	.L19
 201              	.LBB3:
 180:Drivers/lvgl/lvgl/src/extra/widgets/tileview/lv_tileview.c ****             lv_coord_t x = lv_obj_get_x(tile_obj);
 202              		.loc 1 180 0 is_stmt 1
 203 0086 2146     		mov	r1, r4
 204 0088 2846     		mov	r0, r5
 205 008a FFF7FEFF 		bl	lv_obj_get_child
 206              	.LVL31:
 207 008e 8046     		mov	r8, r0
 208              	.LVL32:
 181:Drivers/lvgl/lvgl/src/extra/widgets/tileview/lv_tileview.c ****             lv_coord_t y = lv_obj_get_y(tile_obj);
 209              		.loc 1 181 0
 210 0090 FFF7FEFF 		bl	lv_obj_get_x
 211              	.LVL33:
 212 0094 8146     		mov	r9, r0
 213              	.LVL34:
 182:Drivers/lvgl/lvgl/src/extra/widgets/tileview/lv_tileview.c ****             if(x == tx && y == ty) {
 214              		.loc 1 182 0
 215 0096 4046     		mov	r0, r8
 216 0098 FFF7FEFF 		bl	lv_obj_get_y
 217              	.LVL35:
 183:Drivers/lvgl/lvgl/src/extra/widgets/tileview/lv_tileview.c ****                 lv_tileview_tile_t * tile = (lv_tileview_tile_t *)tile_obj;
 218              		.loc 1 183 0
 219 009c 4F45     		cmp	r7, r9
 220 009e 08BF     		it	eq
 221 00a0 8642     		cmpeq	r6, r0
 222 00a2 06D0     		beq	.L20
 223              	.LBE3:
 179:Drivers/lvgl/lvgl/src/extra/widgets/tileview/lv_tileview.c ****             lv_obj_t * tile_obj = lv_obj_get_child(obj, i);
 224              		.loc 1 179 0 discriminator 2
 225 00a4 0134     		adds	r4, r4, #1
 226              	.LVL36:
 227 00a6 E9E7     		b	.L11
 228              	.LVL37:
 229              	.L17:
 174:Drivers/lvgl/lvgl/src/extra/widgets/tileview/lv_tileview.c ****         lv_coord_t ty = ((top + (h / 2)) / h) * h;
 230              		.loc 1 174 0
 231 00a8 08F10103 		add	r3, r8, #1
 232 00ac D2E7     		b	.L9
 233              	.LVL38:
 234              	.L18:
 175:Drivers/lvgl/lvgl/src/extra/widgets/tileview/lv_tileview.c **** 
 235              		.loc 1 175 0
 236 00ae 631C     		adds	r3, r4, #1
 237 00b0 DBE7     		b	.L10
 238              	.LVL39:
 239              	.L20:
 240              	.LBB5:
 241              	.LBB4:
 185:Drivers/lvgl/lvgl/src/extra/widgets/tileview/lv_tileview.c ****                 dir = tile->dir;
 242              		.loc 1 185 0
 243 00b2 C5F82480 		str	r8, [r5, #36]
 186:Drivers/lvgl/lvgl/src/extra/widgets/tileview/lv_tileview.c ****                 lv_event_send(obj, LV_EVENT_VALUE_CHANGED, NULL);
 244              		.loc 1 186 0
 245 00b6 98F82440 		ldrb	r4, [r8, #36]	@ zero_extendqisi2
ARM GAS  /tmp/cclhTXU2.s 			page 9


 246              	.LVL40:
 187:Drivers/lvgl/lvgl/src/extra/widgets/tileview/lv_tileview.c ****                 break;
 247              		.loc 1 187 0
 248 00ba 0022     		movs	r2, #0
 249 00bc 1C21     		movs	r1, #28
 250 00be 2846     		mov	r0, r5
 251              	.LVL41:
 252 00c0 FFF7FEFF 		bl	lv_event_send
 253              	.LVL42:
 188:Drivers/lvgl/lvgl/src/extra/widgets/tileview/lv_tileview.c ****             }
 254              		.loc 1 188 0
 255 00c4 00E0     		b	.L13
 256              	.LVL43:
 257              	.L19:
 258              	.LBE4:
 259              	.LBE5:
 177:Drivers/lvgl/lvgl/src/extra/widgets/tileview/lv_tileview.c ****         uint32_t i;
 260              		.loc 1 177 0
 261 00c6 0F24     		movs	r4, #15
 262              	.LVL44:
 263              	.L13:
 191:Drivers/lvgl/lvgl/src/extra/widgets/tileview/lv_tileview.c ****     }
 264              		.loc 1 191 0
 265 00c8 2146     		mov	r1, r4
 266 00ca 2846     		mov	r0, r5
 267 00cc FFF7FEFF 		bl	lv_obj_set_scroll_dir
 268              	.LVL45:
 269 00d0 A2E7     		b	.L5
 270              	.LBE2:
 271              		.cfi_endproc
 272              	.LFE166:
 274              		.section	.text.lv_tileview_tile_constructor,"ax",%progbits
 275              		.align	1
 276              		.syntax unified
 277              		.thumb
 278              		.thumb_func
 279              		.fpu fpv5-d16
 281              	lv_tileview_tile_constructor:
 282              	.LFB165:
 137:Drivers/lvgl/lvgl/src/extra/widgets/tileview/lv_tileview.c **** 
 283              		.loc 1 137 0
 284              		.cfi_startproc
 285              		@ args = 0, pretend = 0, frame = 0
 286              		@ frame_needed = 0, uses_anonymous_args = 0
 287              	.LVL46:
 288 0000 F8B5     		push	{r3, r4, r5, r6, r7, lr}
 289              	.LCFI5:
 290              		.cfi_def_cfa_offset 24
 291              		.cfi_offset 3, -24
 292              		.cfi_offset 4, -20
 293              		.cfi_offset 5, -16
 294              		.cfi_offset 6, -12
 295              		.cfi_offset 7, -8
 296              		.cfi_offset 14, -4
 297 0002 0C46     		mov	r4, r1
 140:Drivers/lvgl/lvgl/src/extra/widgets/tileview/lv_tileview.c ****     lv_obj_set_size(obj, LV_PCT(100), LV_PCT(100));
 298              		.loc 1 140 0
ARM GAS  /tmp/cclhTXU2.s 			page 10


 299 0004 0846     		mov	r0, r1
 300              	.LVL47:
 301 0006 FFF7FEFF 		bl	lv_obj_get_parent
 302              	.LVL48:
 303 000a 0646     		mov	r6, r0
 304              	.LVL49:
 141:Drivers/lvgl/lvgl/src/extra/widgets/tileview/lv_tileview.c ****     lv_obj_update_layout(obj);  /*Be sure the size is correct*/
 305              		.loc 1 141 0
 306 000c 42F26402 		movw	r2, #8292
 307 0010 1146     		mov	r1, r2
 308 0012 2046     		mov	r0, r4
 309              	.LVL50:
 310 0014 FFF7FEFF 		bl	lv_obj_set_size
 311              	.LVL51:
 142:Drivers/lvgl/lvgl/src/extra/widgets/tileview/lv_tileview.c ****     lv_obj_set_pos(obj, create_col_id * lv_obj_get_content_width(parent),
 312              		.loc 1 142 0
 313 0018 2046     		mov	r0, r4
 314 001a FFF7FEFF 		bl	lv_obj_update_layout
 315              	.LVL52:
 143:Drivers/lvgl/lvgl/src/extra/widgets/tileview/lv_tileview.c ****                    create_row_id * lv_obj_get_content_height(parent));
 316              		.loc 1 143 0
 317 001e 3046     		mov	r0, r6
 318 0020 FFF7FEFF 		bl	lv_obj_get_content_width
 319              	.LVL53:
 320 0024 0F4F     		ldr	r7, .L25
 321 0026 3968     		ldr	r1, [r7]
 322 0028 11FB00F0 		smulbb	r0, r1, r0
 323 002c 05B2     		sxth	r5, r0
 144:Drivers/lvgl/lvgl/src/extra/widgets/tileview/lv_tileview.c **** 
 324              		.loc 1 144 0
 325 002e 3046     		mov	r0, r6
 326 0030 FFF7FEFF 		bl	lv_obj_get_content_height
 327              	.LVL54:
 143:Drivers/lvgl/lvgl/src/extra/widgets/tileview/lv_tileview.c ****                    create_row_id * lv_obj_get_content_height(parent));
 328              		.loc 1 143 0
 329 0034 0C4B     		ldr	r3, .L25+4
 330 0036 1A68     		ldr	r2, [r3]
 331 0038 12FB00F2 		smulbb	r2, r2, r0
 332 003c 12B2     		sxth	r2, r2
 333 003e 2946     		mov	r1, r5
 334 0040 2046     		mov	r0, r4
 335 0042 FFF7FEFF 		bl	lv_obj_set_pos
 336              	.LVL55:
 147:Drivers/lvgl/lvgl/src/extra/widgets/tileview/lv_tileview.c **** 
 337              		.loc 1 147 0
 338 0046 094B     		ldr	r3, .L25+8
 339 0048 1978     		ldrb	r1, [r3]	@ zero_extendqisi2
 340 004a 84F82410 		strb	r1, [r4, #36]
 149:Drivers/lvgl/lvgl/src/extra/widgets/tileview/lv_tileview.c ****         lv_obj_set_scroll_dir(parent, create_dir);
 341              		.loc 1 149 0
 342 004e 3B68     		ldr	r3, [r7]
 343 0050 13B9     		cbnz	r3, .L21
 149:Drivers/lvgl/lvgl/src/extra/widgets/tileview/lv_tileview.c ****         lv_obj_set_scroll_dir(parent, create_dir);
 344              		.loc 1 149 0 is_stmt 0 discriminator 1
 345 0052 054B     		ldr	r3, .L25+4
 346 0054 1B68     		ldr	r3, [r3]
 347 0056 03B1     		cbz	r3, .L24
ARM GAS  /tmp/cclhTXU2.s 			page 11


 348              	.L21:
 152:Drivers/lvgl/lvgl/src/extra/widgets/tileview/lv_tileview.c **** 
 349              		.loc 1 152 0 is_stmt 1
 350 0058 F8BD     		pop	{r3, r4, r5, r6, r7, pc}
 351              	.LVL56:
 352              	.L24:
 150:Drivers/lvgl/lvgl/src/extra/widgets/tileview/lv_tileview.c ****     }
 353              		.loc 1 150 0
 354 005a 3046     		mov	r0, r6
 355 005c FFF7FEFF 		bl	lv_obj_set_scroll_dir
 356              	.LVL57:
 152:Drivers/lvgl/lvgl/src/extra/widgets/tileview/lv_tileview.c **** 
 357              		.loc 1 152 0
 358 0060 FAE7     		b	.L21
 359              	.L26:
 360 0062 00BF     		.align	2
 361              	.L25:
 362 0064 00000000 		.word	.LANCHOR0
 363 0068 00000000 		.word	.LANCHOR1
 364 006c 00000000 		.word	.LANCHOR2
 365              		.cfi_endproc
 366              	.LFE165:
 368              		.section	.text.lv_tileview_create,"ax",%progbits
 369              		.align	1
 370              		.global	lv_tileview_create
 371              		.syntax unified
 372              		.thumb
 373              		.thumb_func
 374              		.fpu fpv5-d16
 376              	lv_tileview_create:
 377              	.LFB159:
  55:Drivers/lvgl/lvgl/src/extra/widgets/tileview/lv_tileview.c ****     LV_LOG_INFO("begin");
 378              		.loc 1 55 0
 379              		.cfi_startproc
 380              		@ args = 0, pretend = 0, frame = 0
 381              		@ frame_needed = 0, uses_anonymous_args = 0
 382              	.LVL58:
 383 0000 10B5     		push	{r4, lr}
 384              	.LCFI6:
 385              		.cfi_def_cfa_offset 8
 386              		.cfi_offset 4, -8
 387              		.cfi_offset 14, -4
  57:Drivers/lvgl/lvgl/src/extra/widgets/tileview/lv_tileview.c ****     lv_obj_class_init_obj(obj);
 388              		.loc 1 57 0
 389 0002 0146     		mov	r1, r0
 390 0004 0348     		ldr	r0, .L29
 391              	.LVL59:
 392 0006 FFF7FEFF 		bl	lv_obj_class_create_obj
 393              	.LVL60:
 394 000a 0446     		mov	r4, r0
 395              	.LVL61:
  58:Drivers/lvgl/lvgl/src/extra/widgets/tileview/lv_tileview.c ****     return obj;
 396              		.loc 1 58 0
 397 000c FFF7FEFF 		bl	lv_obj_class_init_obj
 398              	.LVL62:
  60:Drivers/lvgl/lvgl/src/extra/widgets/tileview/lv_tileview.c **** 
 399              		.loc 1 60 0
ARM GAS  /tmp/cclhTXU2.s 			page 12


 400 0010 2046     		mov	r0, r4
 401 0012 10BD     		pop	{r4, pc}
 402              	.LVL63:
 403              	.L30:
 404              		.align	2
 405              	.L29:
 406 0014 00000000 		.word	.LANCHOR3
 407              		.cfi_endproc
 408              	.LFE159:
 410              		.section	.text.lv_tileview_add_tile,"ax",%progbits
 411              		.align	1
 412              		.global	lv_tileview_add_tile
 413              		.syntax unified
 414              		.thumb
 415              		.thumb_func
 416              		.fpu fpv5-d16
 418              	lv_tileview_add_tile:
 419              	.LFB160:
  67:Drivers/lvgl/lvgl/src/extra/widgets/tileview/lv_tileview.c ****     LV_LOG_INFO("begin");
 420              		.loc 1 67 0
 421              		.cfi_startproc
 422              		@ args = 0, pretend = 0, frame = 0
 423              		@ frame_needed = 0, uses_anonymous_args = 0
 424              	.LVL64:
 425 0000 10B5     		push	{r4, lr}
 426              	.LCFI7:
 427              		.cfi_def_cfa_offset 8
 428              		.cfi_offset 4, -8
 429              		.cfi_offset 14, -4
  69:Drivers/lvgl/lvgl/src/extra/widgets/tileview/lv_tileview.c ****     create_col_id = col_id;
 430              		.loc 1 69 0
 431 0002 074C     		ldr	r4, .L33
 432 0004 2370     		strb	r3, [r4]
  70:Drivers/lvgl/lvgl/src/extra/widgets/tileview/lv_tileview.c ****     create_row_id = row_id;
 433              		.loc 1 70 0
 434 0006 074B     		ldr	r3, .L33+4
 435              	.LVL65:
 436 0008 1960     		str	r1, [r3]
  71:Drivers/lvgl/lvgl/src/extra/widgets/tileview/lv_tileview.c **** 
 437              		.loc 1 71 0
 438 000a 074B     		ldr	r3, .L33+8
 439 000c 1A60     		str	r2, [r3]
  73:Drivers/lvgl/lvgl/src/extra/widgets/tileview/lv_tileview.c ****     lv_obj_class_init_obj(obj);
 440              		.loc 1 73 0
 441 000e 0146     		mov	r1, r0
 442              	.LVL66:
 443 0010 0648     		ldr	r0, .L33+12
 444              	.LVL67:
 445 0012 FFF7FEFF 		bl	lv_obj_class_create_obj
 446              	.LVL68:
 447 0016 0446     		mov	r4, r0
 448              	.LVL69:
  74:Drivers/lvgl/lvgl/src/extra/widgets/tileview/lv_tileview.c ****     return obj;
 449              		.loc 1 74 0
 450 0018 FFF7FEFF 		bl	lv_obj_class_init_obj
 451              	.LVL70:
  76:Drivers/lvgl/lvgl/src/extra/widgets/tileview/lv_tileview.c **** 
ARM GAS  /tmp/cclhTXU2.s 			page 13


 452              		.loc 1 76 0
 453 001c 2046     		mov	r0, r4
 454 001e 10BD     		pop	{r4, pc}
 455              	.LVL71:
 456              	.L34:
 457              		.align	2
 458              	.L33:
 459 0020 00000000 		.word	.LANCHOR2
 460 0024 00000000 		.word	.LANCHOR0
 461 0028 00000000 		.word	.LANCHOR1
 462 002c 00000000 		.word	.LANCHOR4
 463              		.cfi_endproc
 464              	.LFE160:
 466              		.section	.text.lv_obj_set_tile,"ax",%progbits
 467              		.align	1
 468              		.global	lv_obj_set_tile
 469              		.syntax unified
 470              		.thumb
 471              		.thumb_func
 472              		.fpu fpv5-d16
 474              	lv_obj_set_tile:
 475              	.LFB161:
  79:Drivers/lvgl/lvgl/src/extra/widgets/tileview/lv_tileview.c ****     lv_coord_t tx = lv_obj_get_x(tile_obj);
 476              		.loc 1 79 0
 477              		.cfi_startproc
 478              		@ args = 0, pretend = 0, frame = 0
 479              		@ frame_needed = 0, uses_anonymous_args = 0
 480              	.LVL72:
 481 0000 2DE9F041 		push	{r4, r5, r6, r7, r8, lr}
 482              	.LCFI8:
 483              		.cfi_def_cfa_offset 24
 484              		.cfi_offset 4, -24
 485              		.cfi_offset 5, -20
 486              		.cfi_offset 6, -16
 487              		.cfi_offset 7, -12
 488              		.cfi_offset 8, -8
 489              		.cfi_offset 14, -4
 490 0004 0546     		mov	r5, r0
 491 0006 0C46     		mov	r4, r1
 492 0008 9046     		mov	r8, r2
  80:Drivers/lvgl/lvgl/src/extra/widgets/tileview/lv_tileview.c ****     lv_coord_t ty = lv_obj_get_y(tile_obj);
 493              		.loc 1 80 0
 494 000a 0846     		mov	r0, r1
 495              	.LVL73:
 496 000c FFF7FEFF 		bl	lv_obj_get_x
 497              	.LVL74:
 498 0010 0646     		mov	r6, r0
 499              	.LVL75:
  81:Drivers/lvgl/lvgl/src/extra/widgets/tileview/lv_tileview.c **** 
 500              		.loc 1 81 0
 501 0012 2046     		mov	r0, r4
 502 0014 FFF7FEFF 		bl	lv_obj_get_y
 503              	.LVL76:
 504 0018 0746     		mov	r7, r0
 505              	.LVL77:
  85:Drivers/lvgl/lvgl/src/extra/widgets/tileview/lv_tileview.c **** 
 506              		.loc 1 85 0
ARM GAS  /tmp/cclhTXU2.s 			page 14


 507 001a 6C62     		str	r4, [r5, #36]
  87:Drivers/lvgl/lvgl/src/extra/widgets/tileview/lv_tileview.c ****     lv_obj_scroll_to(obj, tx, ty, anim_en);
 508              		.loc 1 87 0
 509 001c 94F82410 		ldrb	r1, [r4, #36]	@ zero_extendqisi2
 510 0020 2846     		mov	r0, r5
 511 0022 FFF7FEFF 		bl	lv_obj_set_scroll_dir
 512              	.LVL78:
  88:Drivers/lvgl/lvgl/src/extra/widgets/tileview/lv_tileview.c **** }
 513              		.loc 1 88 0
 514 0026 4346     		mov	r3, r8
 515 0028 3A46     		mov	r2, r7
 516 002a 3146     		mov	r1, r6
 517 002c 2846     		mov	r0, r5
 518 002e FFF7FEFF 		bl	lv_obj_scroll_to
 519              	.LVL79:
  89:Drivers/lvgl/lvgl/src/extra/widgets/tileview/lv_tileview.c **** 
 520              		.loc 1 89 0
 521 0032 BDE8F081 		pop	{r4, r5, r6, r7, r8, pc}
 522              		.cfi_endproc
 523              	.LFE161:
 525              		.section	.text.lv_obj_set_tile_id,"ax",%progbits
 526              		.align	1
 527              		.global	lv_obj_set_tile_id
 528              		.syntax unified
 529              		.thumb
 530              		.thumb_func
 531              		.fpu fpv5-d16
 533              	lv_obj_set_tile_id:
 534              	.LFB162:
  92:Drivers/lvgl/lvgl/src/extra/widgets/tileview/lv_tileview.c ****     lv_obj_update_layout(tv);
 535              		.loc 1 92 0
 536              		.cfi_startproc
 537              		@ args = 0, pretend = 0, frame = 0
 538              		@ frame_needed = 0, uses_anonymous_args = 0
 539              	.LVL80:
 540 0000 2DE9F047 		push	{r4, r5, r6, r7, r8, r9, r10, lr}
 541              	.LCFI9:
 542              		.cfi_def_cfa_offset 32
 543              		.cfi_offset 4, -32
 544              		.cfi_offset 5, -28
 545              		.cfi_offset 6, -24
 546              		.cfi_offset 7, -20
 547              		.cfi_offset 8, -16
 548              		.cfi_offset 9, -12
 549              		.cfi_offset 10, -8
 550              		.cfi_offset 14, -4
 551 0004 0546     		mov	r5, r0
 552 0006 0C46     		mov	r4, r1
 553 0008 9046     		mov	r8, r2
 554 000a 9A46     		mov	r10, r3
  93:Drivers/lvgl/lvgl/src/extra/widgets/tileview/lv_tileview.c **** 
 555              		.loc 1 93 0
 556 000c FFF7FEFF 		bl	lv_obj_update_layout
 557              	.LVL81:
  95:Drivers/lvgl/lvgl/src/extra/widgets/tileview/lv_tileview.c ****     lv_coord_t h = lv_obj_get_content_height(tv);
 558              		.loc 1 95 0
 559 0010 2846     		mov	r0, r5
ARM GAS  /tmp/cclhTXU2.s 			page 15


 560 0012 FFF7FEFF 		bl	lv_obj_get_content_width
 561              	.LVL82:
 562 0016 8146     		mov	r9, r0
 563              	.LVL83:
  96:Drivers/lvgl/lvgl/src/extra/widgets/tileview/lv_tileview.c **** 
 564              		.loc 1 96 0
 565 0018 2846     		mov	r0, r5
 566 001a FFF7FEFF 		bl	lv_obj_get_content_height
 567              	.LVL84:
  98:Drivers/lvgl/lvgl/src/extra/widgets/tileview/lv_tileview.c ****     lv_coord_t ty = row_id * h;
 568              		.loc 1 98 0
 569 001e 19FB04F9 		smulbb	r9, r9, r4
 570              	.LVL85:
 571 0022 0FFA89F9 		sxth	r9, r9
 572              	.LVL86:
  99:Drivers/lvgl/lvgl/src/extra/widgets/tileview/lv_tileview.c **** 
 573              		.loc 1 99 0
 574 0026 10FB08F8 		smulbb	r8, r0, r8
 575              	.LVL87:
 576 002a 0FFA88F8 		sxth	r8, r8
 577              	.LVL88:
 102:Drivers/lvgl/lvgl/src/extra/widgets/tileview/lv_tileview.c ****         lv_obj_t * tile_obj = lv_obj_get_child(tv, i);
 578              		.loc 1 102 0
 579 002e 0024     		movs	r4, #0
 580              	.LVL89:
 581              	.L38:
 102:Drivers/lvgl/lvgl/src/extra/widgets/tileview/lv_tileview.c ****         lv_obj_t * tile_obj = lv_obj_get_child(tv, i);
 582              		.loc 1 102 0 is_stmt 0 discriminator 1
 583 0030 2846     		mov	r0, r5
 584 0032 FFF7FEFF 		bl	lv_obj_get_child_cnt
 585              	.LVL90:
 586 0036 A042     		cmp	r0, r4
 587 0038 15D9     		bls	.L37
 588              	.LBB6:
 103:Drivers/lvgl/lvgl/src/extra/widgets/tileview/lv_tileview.c ****         lv_coord_t x = lv_obj_get_x(tile_obj);
 589              		.loc 1 103 0 is_stmt 1
 590 003a 2146     		mov	r1, r4
 591 003c 2846     		mov	r0, r5
 592 003e FFF7FEFF 		bl	lv_obj_get_child
 593              	.LVL91:
 594 0042 0646     		mov	r6, r0
 595              	.LVL92:
 104:Drivers/lvgl/lvgl/src/extra/widgets/tileview/lv_tileview.c ****         lv_coord_t y = lv_obj_get_y(tile_obj);
 596              		.loc 1 104 0
 597 0044 FFF7FEFF 		bl	lv_obj_get_x
 598              	.LVL93:
 599 0048 0746     		mov	r7, r0
 600              	.LVL94:
 105:Drivers/lvgl/lvgl/src/extra/widgets/tileview/lv_tileview.c ****         if(x == tx && y == ty) {
 601              		.loc 1 105 0
 602 004a 3046     		mov	r0, r6
 603 004c FFF7FEFF 		bl	lv_obj_get_y
 604              	.LVL95:
 106:Drivers/lvgl/lvgl/src/extra/widgets/tileview/lv_tileview.c ****             lv_obj_set_tile(tv, tile_obj, anim_en);
 605              		.loc 1 106 0
 606 0050 B945     		cmp	r9, r7
 607 0052 08BF     		it	eq
ARM GAS  /tmp/cclhTXU2.s 			page 16


 608 0054 8045     		cmpeq	r8, r0
 609 0056 01D0     		beq	.L43
 610              	.LBE6:
 102:Drivers/lvgl/lvgl/src/extra/widgets/tileview/lv_tileview.c ****         lv_obj_t * tile_obj = lv_obj_get_child(tv, i);
 611              		.loc 1 102 0 discriminator 2
 612 0058 0134     		adds	r4, r4, #1
 613              	.LVL96:
 614 005a E9E7     		b	.L38
 615              	.L43:
 616              	.LBB7:
 107:Drivers/lvgl/lvgl/src/extra/widgets/tileview/lv_tileview.c ****             return;
 617              		.loc 1 107 0
 618 005c 5246     		mov	r2, r10
 619 005e 3146     		mov	r1, r6
 620 0060 2846     		mov	r0, r5
 621              	.LVL97:
 622 0062 FFF7FEFF 		bl	lv_obj_set_tile
 623              	.LVL98:
 624              	.L37:
 625              	.LBE7:
 113:Drivers/lvgl/lvgl/src/extra/widgets/tileview/lv_tileview.c **** 
 626              		.loc 1 113 0
 627 0066 BDE8F087 		pop	{r4, r5, r6, r7, r8, r9, r10, pc}
 628              		.cfi_endproc
 629              	.LFE162:
 631              		.section	.text.lv_tileview_get_tile_act,"ax",%progbits
 632              		.align	1
 633              		.global	lv_tileview_get_tile_act
 634              		.syntax unified
 635              		.thumb
 636              		.thumb_func
 637              		.fpu fpv5-d16
 639              	lv_tileview_get_tile_act:
 640              	.LFB163:
 116:Drivers/lvgl/lvgl/src/extra/widgets/tileview/lv_tileview.c ****     lv_tileview_t * tv = (lv_tileview_t *) obj;
 641              		.loc 1 116 0
 642              		.cfi_startproc
 643              		@ args = 0, pretend = 0, frame = 0
 644              		@ frame_needed = 0, uses_anonymous_args = 0
 645              		@ link register save eliminated.
 646              	.LVL99:
 119:Drivers/lvgl/lvgl/src/extra/widgets/tileview/lv_tileview.c **** 
 647              		.loc 1 119 0
 648 0000 406A     		ldr	r0, [r0, #36]
 649              	.LVL100:
 650 0002 7047     		bx	lr
 651              		.cfi_endproc
 652              	.LFE163:
 654              		.global	lv_tileview_tile_class
 655              		.global	lv_tileview_class
 656              		.section	.bss.create_col_id,"aw",%nobits
 657              		.align	2
 658              		.set	.LANCHOR0,. + 0
 661              	create_col_id:
 662 0000 00000000 		.space	4
 663              		.section	.bss.create_dir,"aw",%nobits
 664              		.set	.LANCHOR2,. + 0
ARM GAS  /tmp/cclhTXU2.s 			page 17


 667              	create_dir:
 668 0000 00       		.space	1
 669              		.section	.bss.create_row_id,"aw",%nobits
 670              		.align	2
 671              		.set	.LANCHOR1,. + 0
 674              	create_row_id:
 675 0000 00000000 		.space	4
 676              		.section	.rodata.lv_tileview_class,"a",%progbits
 677              		.align	2
 678              		.set	.LANCHOR3,. + 0
 681              	lv_tileview_class:
 682 0000 00000000 		.word	lv_obj_class
 683 0004 00000000 		.word	lv_tileview_constructor
 684 0008 00000000 		.space	16
 684      00000000 
 684      00000000 
 684      00000000 
 685 0018 80       		.byte	128
 686 0019 02       		.byte	2
 687 001a 00       		.byte	0
 688 001b 00       		.space	1
 689              		.section	.rodata.lv_tileview_tile_class,"a",%progbits
 690              		.align	2
 691              		.set	.LANCHOR4,. + 0
 694              	lv_tileview_tile_class:
 695 0000 00000000 		.word	lv_obj_class
 696 0004 00000000 		.word	lv_tileview_tile_constructor
 697 0008 00000000 		.space	16
 697      00000000 
 697      00000000 
 697      00000000 
 698 0018 80       		.byte	128
 699 0019 02       		.byte	2
 700 001a 00       		.byte	0
 701 001b 00       		.space	1
 702              		.text
 703              	.Letext0:
 704              		.file 2 "/opt/gcc-arm-none-eabi-7-2017-q4-major/arm-none-eabi/include/machine/_default_types.h"
 705              		.file 3 "/opt/gcc-arm-none-eabi-7-2017-q4-major/arm-none-eabi/include/sys/_stdint.h"
 706              		.file 4 "/opt/gcc-arm-none-eabi-7-2017-q4-major/lib/gcc/arm-none-eabi/7.2.1/include/stddef.h"
 707              		.file 5 "Drivers/lvgl/lvgl/src/extra/widgets/tileview/../../../core/../misc/../font/../misc/lv_are
 708              		.file 6 "Drivers/lvgl/lvgl/src/extra/widgets/tileview/../../../core/../misc/../font/lv_font.h"
 709              		.file 7 "Drivers/lvgl/lvgl/src/extra/widgets/tileview/../../../core/../misc/lv_types.h"
 710              		.file 8 "/opt/gcc-arm-none-eabi-7-2017-q4-major/arm-none-eabi/include/sys/lock.h"
 711              		.file 9 "/opt/gcc-arm-none-eabi-7-2017-q4-major/arm-none-eabi/include/sys/_types.h"
 712              		.file 10 "/opt/gcc-arm-none-eabi-7-2017-q4-major/arm-none-eabi/include/sys/reent.h"
 713              		.file 11 "Drivers/lvgl/lvgl/src/extra/widgets/tileview/../../../core/../misc/lv_color.h"
 714              		.file 12 "Drivers/lvgl/lvgl/src/extra/widgets/tileview/../../../core/../misc/lv_anim.h"
 715              		.file 13 "Drivers/lvgl/lvgl/src/extra/widgets/tileview/../../../core/../misc/lv_txt.h"
 716              		.file 14 "Drivers/lvgl/lvgl/src/extra/widgets/tileview/../../../core/../misc/lv_bidi.h"
 717              		.file 15 "Drivers/lvgl/lvgl/src/extra/widgets/tileview/../../../core/../misc/lv_style.h"
 718              		.file 16 "Drivers/lvgl/lvgl/src/extra/widgets/tileview/../../../core/../hal/../draw/lv_img_buf.h"
 719              		.file 17 "Drivers/lvgl/lvgl/src/extra/widgets/tileview/../../../core/lv_obj.h"
 720              		.file 18 "Drivers/lvgl/lvgl/src/extra/widgets/tileview/../../../core/../hal/../draw/lv_draw_rect.h
 721              		.file 19 "Drivers/lvgl/lvgl/src/extra/widgets/tileview/../../../core/../hal/../draw/lv_draw_label.
 722              		.file 20 "Drivers/lvgl/lvgl/src/extra/widgets/tileview/../../../core/../hal/../draw/lv_draw_img.h"
 723              		.file 21 "Drivers/lvgl/lvgl/src/extra/widgets/tileview/../../../core/../hal/../draw/lv_draw_line.h
ARM GAS  /tmp/cclhTXU2.s 			page 18


 724              		.file 22 "Drivers/lvgl/lvgl/src/extra/widgets/tileview/../../../core/../hal/../draw/lv_draw_arc.h"
 725              		.file 23 "Drivers/lvgl/lvgl/src/extra/widgets/tileview/../../../core/../hal/../draw/lv_draw_layer.
 726              		.file 24 "Drivers/lvgl/lvgl/src/extra/widgets/tileview/../../../core/../hal/../draw/lv_draw.h"
 727              		.file 25 "Drivers/lvgl/lvgl/src/extra/widgets/tileview/../../../core/../hal/../misc/lv_ll.h"
 728              		.file 26 "Drivers/lvgl/lvgl/src/extra/widgets/tileview/../../../core/../hal/../misc/lv_timer.h"
 729              		.file 27 "Drivers/lvgl/lvgl/src/extra/widgets/tileview/../../../core/../hal/lv_hal_disp.h"
 730              		.file 28 "Drivers/lvgl/lvgl/src/extra/widgets/tileview/../../../core/../hal/lv_hal_indev.h"
 731              		.file 29 "Drivers/lvgl/lvgl/src/extra/widgets/tileview/../../../core/lv_group.h"
 732              		.file 30 "Drivers/lvgl/lvgl/src/extra/widgets/tileview/../../../core/lv_obj_scroll.h"
 733              		.file 31 "Drivers/lvgl/lvgl/src/extra/widgets/tileview/../../../core/lv_obj_style.h"
 734              		.file 32 "Drivers/lvgl/lvgl/src/extra/widgets/tileview/../../../core/lv_obj_class.h"
 735              		.file 33 "Drivers/lvgl/lvgl/src/extra/widgets/tileview/../../../core/lv_event.h"
 736              		.file 34 "Drivers/lvgl/lvgl/src/extra/widgets/tileview/lv_tileview.h"
 737              		.file 35 "Drivers/lvgl/lvgl/src/extra/widgets/tileview/../../../core/lv_obj_tree.h"
 738              		.file 36 "Drivers/lvgl/lvgl/src/extra/widgets/tileview/../../../core/../hal/../draw/sw/../../core/
 739              		.file 37 "Drivers/lvgl/lvgl/src/extra/widgets/tileview/../../../core/lv_indev.h"
ARM GAS  /tmp/cclhTXU2.s 			page 19

