ARM GAS  /tmp/ccdCpe1u.s 			page 1


   1              		.cpu cortex-m7
   2              		.eabi_attribute 28, 1
   3              		.eabi_attribute 20, 1
   4              		.eabi_attribute 21, 1
   5              		.eabi_attribute 23, 3
   6              		.eabi_attribute 24, 1
   7              		.eabi_attribute 25, 1
   8              		.eabi_attribute 26, 1
   9              		.eabi_attribute 30, 1
  10              		.eabi_attribute 34, 1
  11              		.eabi_attribute 18, 4
  12              		.file	"stm32h7xx_hal_dma_ex.c"
  13              		.text
  14              	.Ltext0:
  15              		.cfi_sections	.debug_frame
  16              		.section	.text.DMA_MultiBufferSetConfig,"ax",%progbits
  17              		.align	1
  18              		.syntax unified
  19              		.thumb
  20              		.thumb_func
  21              		.fpu fpv5-d16
  23              	DMA_MultiBufferSetConfig:
  24              	.LFB152:
  25              		.file 1 "Drivers/STM32H7xx_HAL_Driver/Src/stm32h7xx_hal_dma_ex.c"
   1:Drivers/STM32H7xx_HAL_Driver/Src/stm32h7xx_hal_dma_ex.c **** /**
   2:Drivers/STM32H7xx_HAL_Driver/Src/stm32h7xx_hal_dma_ex.c ****   ******************************************************************************
   3:Drivers/STM32H7xx_HAL_Driver/Src/stm32h7xx_hal_dma_ex.c ****   * @file    stm32h7xx_hal_dma_ex.c
   4:Drivers/STM32H7xx_HAL_Driver/Src/stm32h7xx_hal_dma_ex.c ****   * @author  MCD Application Team
   5:Drivers/STM32H7xx_HAL_Driver/Src/stm32h7xx_hal_dma_ex.c ****   * @brief   DMA Extension HAL module driver
   6:Drivers/STM32H7xx_HAL_Driver/Src/stm32h7xx_hal_dma_ex.c ****   *          This file provides firmware functions to manage the following
   7:Drivers/STM32H7xx_HAL_Driver/Src/stm32h7xx_hal_dma_ex.c ****   *          functionalities of the DMA Extension peripheral:
   8:Drivers/STM32H7xx_HAL_Driver/Src/stm32h7xx_hal_dma_ex.c ****   *           + Extended features functions
   9:Drivers/STM32H7xx_HAL_Driver/Src/stm32h7xx_hal_dma_ex.c ****   *
  10:Drivers/STM32H7xx_HAL_Driver/Src/stm32h7xx_hal_dma_ex.c ****   @verbatim
  11:Drivers/STM32H7xx_HAL_Driver/Src/stm32h7xx_hal_dma_ex.c ****   ==============================================================================
  12:Drivers/STM32H7xx_HAL_Driver/Src/stm32h7xx_hal_dma_ex.c ****                         ##### How to use this driver #####
  13:Drivers/STM32H7xx_HAL_Driver/Src/stm32h7xx_hal_dma_ex.c ****   ==============================================================================
  14:Drivers/STM32H7xx_HAL_Driver/Src/stm32h7xx_hal_dma_ex.c ****   [..]
  15:Drivers/STM32H7xx_HAL_Driver/Src/stm32h7xx_hal_dma_ex.c ****   The DMA Extension HAL driver can be used as follows:
  16:Drivers/STM32H7xx_HAL_Driver/Src/stm32h7xx_hal_dma_ex.c ****    (+) Start a multi buffer transfer using the HAL_DMA_MultiBufferStart() function
  17:Drivers/STM32H7xx_HAL_Driver/Src/stm32h7xx_hal_dma_ex.c ****        for polling mode or HAL_DMA_MultiBufferStart_IT() for interrupt mode.
  18:Drivers/STM32H7xx_HAL_Driver/Src/stm32h7xx_hal_dma_ex.c **** 
  19:Drivers/STM32H7xx_HAL_Driver/Src/stm32h7xx_hal_dma_ex.c ****    (+) Configure the DMA_MUX Synchronization Block using HAL_DMAEx_ConfigMuxSync function.
  20:Drivers/STM32H7xx_HAL_Driver/Src/stm32h7xx_hal_dma_ex.c ****    (+) Configure the DMA_MUX Request Generator Block using HAL_DMAEx_ConfigMuxRequestGenerator func
  21:Drivers/STM32H7xx_HAL_Driver/Src/stm32h7xx_hal_dma_ex.c ****        Functions HAL_DMAEx_EnableMuxRequestGenerator and HAL_DMAEx_DisableMuxRequestGenerator can t
  22:Drivers/STM32H7xx_HAL_Driver/Src/stm32h7xx_hal_dma_ex.c ****        to respectively enable/disable the request generator.
  23:Drivers/STM32H7xx_HAL_Driver/Src/stm32h7xx_hal_dma_ex.c **** 
  24:Drivers/STM32H7xx_HAL_Driver/Src/stm32h7xx_hal_dma_ex.c ****    (+) To handle the DMAMUX Interrupts, the function  HAL_DMAEx_MUX_IRQHandler should be called fro
  25:Drivers/STM32H7xx_HAL_Driver/Src/stm32h7xx_hal_dma_ex.c ****        the DMAMUX IRQ handler i.e DMAMUX1_OVR_IRQHandler or DMAMUX2_OVR_IRQHandler .
  26:Drivers/STM32H7xx_HAL_Driver/Src/stm32h7xx_hal_dma_ex.c ****        As only one interrupt line is available for all DMAMUX channels and request generators , HAL
  27:Drivers/STM32H7xx_HAL_Driver/Src/stm32h7xx_hal_dma_ex.c ****        called with, as parameter, the appropriate DMA handle as many as used DMAs in the user proje
  28:Drivers/STM32H7xx_HAL_Driver/Src/stm32h7xx_hal_dma_ex.c ****       (exception done if a given DMA is not using the DMAMUX SYNC block neither a request generator
  29:Drivers/STM32H7xx_HAL_Driver/Src/stm32h7xx_hal_dma_ex.c **** 
  30:Drivers/STM32H7xx_HAL_Driver/Src/stm32h7xx_hal_dma_ex.c ****      -@-  In Memory-to-Memory transfer mode, Multi (Double) Buffer mode is not allowed.
  31:Drivers/STM32H7xx_HAL_Driver/Src/stm32h7xx_hal_dma_ex.c ****      -@-  When Multi (Double) Buffer mode is enabled, the transfer is circular by default.
  32:Drivers/STM32H7xx_HAL_Driver/Src/stm32h7xx_hal_dma_ex.c ****      -@-  In Multi (Double) buffer mode, it is possible to update the base address for
  33:Drivers/STM32H7xx_HAL_Driver/Src/stm32h7xx_hal_dma_ex.c ****           the AHB memory port on the fly (DMA_SxM0AR or DMA_SxM1AR) when the stream is enabled.
ARM GAS  /tmp/ccdCpe1u.s 			page 2


  34:Drivers/STM32H7xx_HAL_Driver/Src/stm32h7xx_hal_dma_ex.c ****      -@-  Multi (Double) buffer mode is possible with DMA and BDMA instances.
  35:Drivers/STM32H7xx_HAL_Driver/Src/stm32h7xx_hal_dma_ex.c **** 
  36:Drivers/STM32H7xx_HAL_Driver/Src/stm32h7xx_hal_dma_ex.c ****   @endverbatim
  37:Drivers/STM32H7xx_HAL_Driver/Src/stm32h7xx_hal_dma_ex.c ****   ******************************************************************************
  38:Drivers/STM32H7xx_HAL_Driver/Src/stm32h7xx_hal_dma_ex.c ****   * @attention
  39:Drivers/STM32H7xx_HAL_Driver/Src/stm32h7xx_hal_dma_ex.c ****   *
  40:Drivers/STM32H7xx_HAL_Driver/Src/stm32h7xx_hal_dma_ex.c ****   * Copyright (c) 2017 STMicroelectronics.
  41:Drivers/STM32H7xx_HAL_Driver/Src/stm32h7xx_hal_dma_ex.c ****   * All rights reserved.
  42:Drivers/STM32H7xx_HAL_Driver/Src/stm32h7xx_hal_dma_ex.c ****   *
  43:Drivers/STM32H7xx_HAL_Driver/Src/stm32h7xx_hal_dma_ex.c ****   * This software is licensed under terms that can be found in the LICENSE file
  44:Drivers/STM32H7xx_HAL_Driver/Src/stm32h7xx_hal_dma_ex.c ****   * in the root directory of this software component.
  45:Drivers/STM32H7xx_HAL_Driver/Src/stm32h7xx_hal_dma_ex.c ****   * If no LICENSE file comes with this software, it is provided AS-IS.
  46:Drivers/STM32H7xx_HAL_Driver/Src/stm32h7xx_hal_dma_ex.c ****   *
  47:Drivers/STM32H7xx_HAL_Driver/Src/stm32h7xx_hal_dma_ex.c ****   ******************************************************************************
  48:Drivers/STM32H7xx_HAL_Driver/Src/stm32h7xx_hal_dma_ex.c ****   */
  49:Drivers/STM32H7xx_HAL_Driver/Src/stm32h7xx_hal_dma_ex.c **** 
  50:Drivers/STM32H7xx_HAL_Driver/Src/stm32h7xx_hal_dma_ex.c **** /* Includes ------------------------------------------------------------------*/
  51:Drivers/STM32H7xx_HAL_Driver/Src/stm32h7xx_hal_dma_ex.c **** #include "stm32h7xx_hal.h"
  52:Drivers/STM32H7xx_HAL_Driver/Src/stm32h7xx_hal_dma_ex.c **** 
  53:Drivers/STM32H7xx_HAL_Driver/Src/stm32h7xx_hal_dma_ex.c **** /** @addtogroup STM32H7xx_HAL_Driver
  54:Drivers/STM32H7xx_HAL_Driver/Src/stm32h7xx_hal_dma_ex.c ****   * @{
  55:Drivers/STM32H7xx_HAL_Driver/Src/stm32h7xx_hal_dma_ex.c ****   */
  56:Drivers/STM32H7xx_HAL_Driver/Src/stm32h7xx_hal_dma_ex.c **** 
  57:Drivers/STM32H7xx_HAL_Driver/Src/stm32h7xx_hal_dma_ex.c **** /** @defgroup DMAEx DMAEx
  58:Drivers/STM32H7xx_HAL_Driver/Src/stm32h7xx_hal_dma_ex.c ****   * @brief DMA Extended HAL module driver
  59:Drivers/STM32H7xx_HAL_Driver/Src/stm32h7xx_hal_dma_ex.c ****   * @{
  60:Drivers/STM32H7xx_HAL_Driver/Src/stm32h7xx_hal_dma_ex.c ****   */
  61:Drivers/STM32H7xx_HAL_Driver/Src/stm32h7xx_hal_dma_ex.c **** 
  62:Drivers/STM32H7xx_HAL_Driver/Src/stm32h7xx_hal_dma_ex.c **** #ifdef HAL_DMA_MODULE_ENABLED
  63:Drivers/STM32H7xx_HAL_Driver/Src/stm32h7xx_hal_dma_ex.c **** 
  64:Drivers/STM32H7xx_HAL_Driver/Src/stm32h7xx_hal_dma_ex.c **** /* Private types -------------------------------------------------------------*/
  65:Drivers/STM32H7xx_HAL_Driver/Src/stm32h7xx_hal_dma_ex.c **** /* Private variables ---------------------------------------------------------*/
  66:Drivers/STM32H7xx_HAL_Driver/Src/stm32h7xx_hal_dma_ex.c **** /* Private Constants ---------------------------------------------------------*/
  67:Drivers/STM32H7xx_HAL_Driver/Src/stm32h7xx_hal_dma_ex.c **** /* Private macros ------------------------------------------------------------*/
  68:Drivers/STM32H7xx_HAL_Driver/Src/stm32h7xx_hal_dma_ex.c **** /* Private functions ---------------------------------------------------------*/
  69:Drivers/STM32H7xx_HAL_Driver/Src/stm32h7xx_hal_dma_ex.c **** /** @addtogroup DMAEx_Private_Functions
  70:Drivers/STM32H7xx_HAL_Driver/Src/stm32h7xx_hal_dma_ex.c ****   * @{
  71:Drivers/STM32H7xx_HAL_Driver/Src/stm32h7xx_hal_dma_ex.c ****   */
  72:Drivers/STM32H7xx_HAL_Driver/Src/stm32h7xx_hal_dma_ex.c **** 
  73:Drivers/STM32H7xx_HAL_Driver/Src/stm32h7xx_hal_dma_ex.c **** static void DMA_MultiBufferSetConfig(DMA_HandleTypeDef *hdma, uint32_t SrcAddress, uint32_t DstAddr
  74:Drivers/STM32H7xx_HAL_Driver/Src/stm32h7xx_hal_dma_ex.c **** 
  75:Drivers/STM32H7xx_HAL_Driver/Src/stm32h7xx_hal_dma_ex.c **** /**
  76:Drivers/STM32H7xx_HAL_Driver/Src/stm32h7xx_hal_dma_ex.c ****   * @}
  77:Drivers/STM32H7xx_HAL_Driver/Src/stm32h7xx_hal_dma_ex.c ****   */
  78:Drivers/STM32H7xx_HAL_Driver/Src/stm32h7xx_hal_dma_ex.c **** 
  79:Drivers/STM32H7xx_HAL_Driver/Src/stm32h7xx_hal_dma_ex.c **** /* Exported functions ---------------------------------------------------------*/
  80:Drivers/STM32H7xx_HAL_Driver/Src/stm32h7xx_hal_dma_ex.c **** 
  81:Drivers/STM32H7xx_HAL_Driver/Src/stm32h7xx_hal_dma_ex.c **** /** @addtogroup DMAEx_Exported_Functions
  82:Drivers/STM32H7xx_HAL_Driver/Src/stm32h7xx_hal_dma_ex.c ****   * @{
  83:Drivers/STM32H7xx_HAL_Driver/Src/stm32h7xx_hal_dma_ex.c ****   */
  84:Drivers/STM32H7xx_HAL_Driver/Src/stm32h7xx_hal_dma_ex.c **** 
  85:Drivers/STM32H7xx_HAL_Driver/Src/stm32h7xx_hal_dma_ex.c **** 
  86:Drivers/STM32H7xx_HAL_Driver/Src/stm32h7xx_hal_dma_ex.c **** /** @addtogroup DMAEx_Exported_Functions_Group1
  87:Drivers/STM32H7xx_HAL_Driver/Src/stm32h7xx_hal_dma_ex.c ****   *
  88:Drivers/STM32H7xx_HAL_Driver/Src/stm32h7xx_hal_dma_ex.c **** @verbatim
  89:Drivers/STM32H7xx_HAL_Driver/Src/stm32h7xx_hal_dma_ex.c ****  ===============================================================================
  90:Drivers/STM32H7xx_HAL_Driver/Src/stm32h7xx_hal_dma_ex.c ****                 #####  Extended features functions  #####
ARM GAS  /tmp/ccdCpe1u.s 			page 3


  91:Drivers/STM32H7xx_HAL_Driver/Src/stm32h7xx_hal_dma_ex.c ****  ===============================================================================
  92:Drivers/STM32H7xx_HAL_Driver/Src/stm32h7xx_hal_dma_ex.c ****     [..]  This section provides functions allowing to:
  93:Drivers/STM32H7xx_HAL_Driver/Src/stm32h7xx_hal_dma_ex.c ****       (+) Configure the source, destination address and data length and
  94:Drivers/STM32H7xx_HAL_Driver/Src/stm32h7xx_hal_dma_ex.c ****           Start MultiBuffer DMA transfer
  95:Drivers/STM32H7xx_HAL_Driver/Src/stm32h7xx_hal_dma_ex.c ****       (+) Configure the source, destination address and data length and
  96:Drivers/STM32H7xx_HAL_Driver/Src/stm32h7xx_hal_dma_ex.c ****           Start MultiBuffer DMA transfer with interrupt
  97:Drivers/STM32H7xx_HAL_Driver/Src/stm32h7xx_hal_dma_ex.c ****       (+) Change on the fly the memory0 or memory1 address.
  98:Drivers/STM32H7xx_HAL_Driver/Src/stm32h7xx_hal_dma_ex.c ****       (+) Configure the DMA_MUX Synchronization Block using HAL_DMAEx_ConfigMuxSync function.
  99:Drivers/STM32H7xx_HAL_Driver/Src/stm32h7xx_hal_dma_ex.c ****       (+) Configure the DMA_MUX Request Generator Block using HAL_DMAEx_ConfigMuxRequestGenerator f
 100:Drivers/STM32H7xx_HAL_Driver/Src/stm32h7xx_hal_dma_ex.c ****       (+) Functions HAL_DMAEx_EnableMuxRequestGenerator and HAL_DMAEx_DisableMuxRequestGenerator ca
 101:Drivers/STM32H7xx_HAL_Driver/Src/stm32h7xx_hal_dma_ex.c ****           to respectively enable/disable the request generator.
 102:Drivers/STM32H7xx_HAL_Driver/Src/stm32h7xx_hal_dma_ex.c ****       (+) Handle DMAMUX interrupts using HAL_DMAEx_MUX_IRQHandler : should be called from
 103:Drivers/STM32H7xx_HAL_Driver/Src/stm32h7xx_hal_dma_ex.c ****           the DMAMUX IRQ handler i.e DMAMUX1_OVR_IRQHandler or DMAMUX2_OVR_IRQHandler
 104:Drivers/STM32H7xx_HAL_Driver/Src/stm32h7xx_hal_dma_ex.c **** 
 105:Drivers/STM32H7xx_HAL_Driver/Src/stm32h7xx_hal_dma_ex.c **** @endverbatim
 106:Drivers/STM32H7xx_HAL_Driver/Src/stm32h7xx_hal_dma_ex.c ****   * @{
 107:Drivers/STM32H7xx_HAL_Driver/Src/stm32h7xx_hal_dma_ex.c ****   */
 108:Drivers/STM32H7xx_HAL_Driver/Src/stm32h7xx_hal_dma_ex.c **** 
 109:Drivers/STM32H7xx_HAL_Driver/Src/stm32h7xx_hal_dma_ex.c **** 
 110:Drivers/STM32H7xx_HAL_Driver/Src/stm32h7xx_hal_dma_ex.c **** /**
 111:Drivers/STM32H7xx_HAL_Driver/Src/stm32h7xx_hal_dma_ex.c ****   * @brief  Starts the multi_buffer DMA Transfer.
 112:Drivers/STM32H7xx_HAL_Driver/Src/stm32h7xx_hal_dma_ex.c ****   * @param  hdma      : pointer to a DMA_HandleTypeDef structure that contains
 113:Drivers/STM32H7xx_HAL_Driver/Src/stm32h7xx_hal_dma_ex.c ****   *                     the configuration information for the specified DMA Stream.
 114:Drivers/STM32H7xx_HAL_Driver/Src/stm32h7xx_hal_dma_ex.c ****   * @param  SrcAddress: The source memory Buffer address
 115:Drivers/STM32H7xx_HAL_Driver/Src/stm32h7xx_hal_dma_ex.c ****   * @param  DstAddress: The destination memory Buffer address
 116:Drivers/STM32H7xx_HAL_Driver/Src/stm32h7xx_hal_dma_ex.c ****   * @param  SecondMemAddress: The second memory Buffer address in case of multi buffer Transfer
 117:Drivers/STM32H7xx_HAL_Driver/Src/stm32h7xx_hal_dma_ex.c ****   * @param  DataLength: The length of data to be transferred from source to destination
 118:Drivers/STM32H7xx_HAL_Driver/Src/stm32h7xx_hal_dma_ex.c ****   * @retval HAL status
 119:Drivers/STM32H7xx_HAL_Driver/Src/stm32h7xx_hal_dma_ex.c ****   */
 120:Drivers/STM32H7xx_HAL_Driver/Src/stm32h7xx_hal_dma_ex.c **** HAL_StatusTypeDef HAL_DMAEx_MultiBufferStart(DMA_HandleTypeDef *hdma, uint32_t SrcAddress, uint32_t
 121:Drivers/STM32H7xx_HAL_Driver/Src/stm32h7xx_hal_dma_ex.c **** {
 122:Drivers/STM32H7xx_HAL_Driver/Src/stm32h7xx_hal_dma_ex.c ****   HAL_StatusTypeDef status = HAL_OK;
 123:Drivers/STM32H7xx_HAL_Driver/Src/stm32h7xx_hal_dma_ex.c ****   __IO uint32_t *ifcRegister_Base; /* DMA Stream Interrupt Clear register */
 124:Drivers/STM32H7xx_HAL_Driver/Src/stm32h7xx_hal_dma_ex.c **** 
 125:Drivers/STM32H7xx_HAL_Driver/Src/stm32h7xx_hal_dma_ex.c ****   /* Check the parameters */
 126:Drivers/STM32H7xx_HAL_Driver/Src/stm32h7xx_hal_dma_ex.c ****   assert_param(IS_DMA_BUFFER_SIZE(DataLength));
 127:Drivers/STM32H7xx_HAL_Driver/Src/stm32h7xx_hal_dma_ex.c ****   assert_param(IS_DMA_ALL_INSTANCE(hdma->Instance));
 128:Drivers/STM32H7xx_HAL_Driver/Src/stm32h7xx_hal_dma_ex.c **** 
 129:Drivers/STM32H7xx_HAL_Driver/Src/stm32h7xx_hal_dma_ex.c ****   /* Memory-to-memory transfer not supported in double buffering mode */
 130:Drivers/STM32H7xx_HAL_Driver/Src/stm32h7xx_hal_dma_ex.c ****   if (hdma->Init.Direction == DMA_MEMORY_TO_MEMORY)
 131:Drivers/STM32H7xx_HAL_Driver/Src/stm32h7xx_hal_dma_ex.c ****   {
 132:Drivers/STM32H7xx_HAL_Driver/Src/stm32h7xx_hal_dma_ex.c ****     hdma->ErrorCode = HAL_DMA_ERROR_NOT_SUPPORTED;
 133:Drivers/STM32H7xx_HAL_Driver/Src/stm32h7xx_hal_dma_ex.c ****     status = HAL_ERROR;
 134:Drivers/STM32H7xx_HAL_Driver/Src/stm32h7xx_hal_dma_ex.c ****   }
 135:Drivers/STM32H7xx_HAL_Driver/Src/stm32h7xx_hal_dma_ex.c ****   else
 136:Drivers/STM32H7xx_HAL_Driver/Src/stm32h7xx_hal_dma_ex.c ****   {
 137:Drivers/STM32H7xx_HAL_Driver/Src/stm32h7xx_hal_dma_ex.c ****     /* Process Locked */
 138:Drivers/STM32H7xx_HAL_Driver/Src/stm32h7xx_hal_dma_ex.c ****     __HAL_LOCK(hdma);
 139:Drivers/STM32H7xx_HAL_Driver/Src/stm32h7xx_hal_dma_ex.c **** 
 140:Drivers/STM32H7xx_HAL_Driver/Src/stm32h7xx_hal_dma_ex.c ****     if(HAL_DMA_STATE_READY == hdma->State)
 141:Drivers/STM32H7xx_HAL_Driver/Src/stm32h7xx_hal_dma_ex.c ****     {
 142:Drivers/STM32H7xx_HAL_Driver/Src/stm32h7xx_hal_dma_ex.c ****       /* Change DMA peripheral state */
 143:Drivers/STM32H7xx_HAL_Driver/Src/stm32h7xx_hal_dma_ex.c ****       hdma->State = HAL_DMA_STATE_BUSY;
 144:Drivers/STM32H7xx_HAL_Driver/Src/stm32h7xx_hal_dma_ex.c **** 
 145:Drivers/STM32H7xx_HAL_Driver/Src/stm32h7xx_hal_dma_ex.c ****       /* Initialize the error code */
 146:Drivers/STM32H7xx_HAL_Driver/Src/stm32h7xx_hal_dma_ex.c ****       hdma->ErrorCode = HAL_DMA_ERROR_NONE;
 147:Drivers/STM32H7xx_HAL_Driver/Src/stm32h7xx_hal_dma_ex.c **** 
ARM GAS  /tmp/ccdCpe1u.s 			page 4


 148:Drivers/STM32H7xx_HAL_Driver/Src/stm32h7xx_hal_dma_ex.c ****       if(IS_DMA_STREAM_INSTANCE(hdma->Instance) != 0U) /* DMA1 or DMA2 instance */
 149:Drivers/STM32H7xx_HAL_Driver/Src/stm32h7xx_hal_dma_ex.c ****       {
 150:Drivers/STM32H7xx_HAL_Driver/Src/stm32h7xx_hal_dma_ex.c ****         /* Enable the Double buffer mode */
 151:Drivers/STM32H7xx_HAL_Driver/Src/stm32h7xx_hal_dma_ex.c ****         ((DMA_Stream_TypeDef   *)hdma->Instance)->CR |= DMA_SxCR_DBM;
 152:Drivers/STM32H7xx_HAL_Driver/Src/stm32h7xx_hal_dma_ex.c **** 
 153:Drivers/STM32H7xx_HAL_Driver/Src/stm32h7xx_hal_dma_ex.c ****         /* Configure DMA Stream destination address */
 154:Drivers/STM32H7xx_HAL_Driver/Src/stm32h7xx_hal_dma_ex.c ****         ((DMA_Stream_TypeDef   *)hdma->Instance)->M1AR = SecondMemAddress;
 155:Drivers/STM32H7xx_HAL_Driver/Src/stm32h7xx_hal_dma_ex.c **** 
 156:Drivers/STM32H7xx_HAL_Driver/Src/stm32h7xx_hal_dma_ex.c ****         /* Calculate the interrupt clear flag register (IFCR) base address  */
 157:Drivers/STM32H7xx_HAL_Driver/Src/stm32h7xx_hal_dma_ex.c ****         ifcRegister_Base = (uint32_t *)((uint32_t)(hdma->StreamBaseAddress + 8U));
 158:Drivers/STM32H7xx_HAL_Driver/Src/stm32h7xx_hal_dma_ex.c **** 
 159:Drivers/STM32H7xx_HAL_Driver/Src/stm32h7xx_hal_dma_ex.c ****         /* Clear all flags */
 160:Drivers/STM32H7xx_HAL_Driver/Src/stm32h7xx_hal_dma_ex.c ****         *ifcRegister_Base = 0x3FUL << (hdma->StreamIndex & 0x1FU);
 161:Drivers/STM32H7xx_HAL_Driver/Src/stm32h7xx_hal_dma_ex.c ****       }
 162:Drivers/STM32H7xx_HAL_Driver/Src/stm32h7xx_hal_dma_ex.c ****       else /* BDMA instance(s) */
 163:Drivers/STM32H7xx_HAL_Driver/Src/stm32h7xx_hal_dma_ex.c ****       {
 164:Drivers/STM32H7xx_HAL_Driver/Src/stm32h7xx_hal_dma_ex.c ****         /* Enable the Double buffer mode */
 165:Drivers/STM32H7xx_HAL_Driver/Src/stm32h7xx_hal_dma_ex.c ****         ((BDMA_Channel_TypeDef   *)hdma->Instance)->CCR |= (BDMA_CCR_DBM | BDMA_CCR_CIRC);
 166:Drivers/STM32H7xx_HAL_Driver/Src/stm32h7xx_hal_dma_ex.c **** 
 167:Drivers/STM32H7xx_HAL_Driver/Src/stm32h7xx_hal_dma_ex.c ****         /* Configure DMA Stream destination address */
 168:Drivers/STM32H7xx_HAL_Driver/Src/stm32h7xx_hal_dma_ex.c ****         ((BDMA_Channel_TypeDef   *)hdma->Instance)->CM1AR = SecondMemAddress;
 169:Drivers/STM32H7xx_HAL_Driver/Src/stm32h7xx_hal_dma_ex.c **** 
 170:Drivers/STM32H7xx_HAL_Driver/Src/stm32h7xx_hal_dma_ex.c ****         /* Calculate the interrupt clear flag register (IFCR) base address  */
 171:Drivers/STM32H7xx_HAL_Driver/Src/stm32h7xx_hal_dma_ex.c ****         ifcRegister_Base = (uint32_t *)((uint32_t)(hdma->StreamBaseAddress + 4U));
 172:Drivers/STM32H7xx_HAL_Driver/Src/stm32h7xx_hal_dma_ex.c **** 
 173:Drivers/STM32H7xx_HAL_Driver/Src/stm32h7xx_hal_dma_ex.c ****         /* Clear all flags */
 174:Drivers/STM32H7xx_HAL_Driver/Src/stm32h7xx_hal_dma_ex.c ****         *ifcRegister_Base = (BDMA_ISR_GIF0) << (hdma->StreamIndex & 0x1FU);
 175:Drivers/STM32H7xx_HAL_Driver/Src/stm32h7xx_hal_dma_ex.c ****       }
 176:Drivers/STM32H7xx_HAL_Driver/Src/stm32h7xx_hal_dma_ex.c **** 
 177:Drivers/STM32H7xx_HAL_Driver/Src/stm32h7xx_hal_dma_ex.c ****       if(IS_DMA_DMAMUX_ALL_INSTANCE(hdma->Instance) != 0U) /* No DMAMUX available for BDMA1 */
 178:Drivers/STM32H7xx_HAL_Driver/Src/stm32h7xx_hal_dma_ex.c ****       {
 179:Drivers/STM32H7xx_HAL_Driver/Src/stm32h7xx_hal_dma_ex.c ****         /* Configure the source, destination address and the data length */
 180:Drivers/STM32H7xx_HAL_Driver/Src/stm32h7xx_hal_dma_ex.c ****         DMA_MultiBufferSetConfig(hdma, SrcAddress, DstAddress, DataLength);
 181:Drivers/STM32H7xx_HAL_Driver/Src/stm32h7xx_hal_dma_ex.c **** 
 182:Drivers/STM32H7xx_HAL_Driver/Src/stm32h7xx_hal_dma_ex.c ****         /* Clear the DMAMUX synchro overrun flag */
 183:Drivers/STM32H7xx_HAL_Driver/Src/stm32h7xx_hal_dma_ex.c ****         hdma->DMAmuxChannelStatus->CFR = hdma->DMAmuxChannelStatusMask;
 184:Drivers/STM32H7xx_HAL_Driver/Src/stm32h7xx_hal_dma_ex.c **** 
 185:Drivers/STM32H7xx_HAL_Driver/Src/stm32h7xx_hal_dma_ex.c ****         if(hdma->DMAmuxRequestGen != 0U)
 186:Drivers/STM32H7xx_HAL_Driver/Src/stm32h7xx_hal_dma_ex.c ****         {
 187:Drivers/STM32H7xx_HAL_Driver/Src/stm32h7xx_hal_dma_ex.c ****           /* Clear the DMAMUX request generator overrun flag */
 188:Drivers/STM32H7xx_HAL_Driver/Src/stm32h7xx_hal_dma_ex.c ****           hdma->DMAmuxRequestGenStatus->RGCFR = hdma->DMAmuxRequestGenStatusMask;
 189:Drivers/STM32H7xx_HAL_Driver/Src/stm32h7xx_hal_dma_ex.c ****         }
 190:Drivers/STM32H7xx_HAL_Driver/Src/stm32h7xx_hal_dma_ex.c ****       }
 191:Drivers/STM32H7xx_HAL_Driver/Src/stm32h7xx_hal_dma_ex.c **** 
 192:Drivers/STM32H7xx_HAL_Driver/Src/stm32h7xx_hal_dma_ex.c ****       /* Enable the peripheral */
 193:Drivers/STM32H7xx_HAL_Driver/Src/stm32h7xx_hal_dma_ex.c ****       __HAL_DMA_ENABLE(hdma);
 194:Drivers/STM32H7xx_HAL_Driver/Src/stm32h7xx_hal_dma_ex.c ****     }
 195:Drivers/STM32H7xx_HAL_Driver/Src/stm32h7xx_hal_dma_ex.c ****     else
 196:Drivers/STM32H7xx_HAL_Driver/Src/stm32h7xx_hal_dma_ex.c ****     {
 197:Drivers/STM32H7xx_HAL_Driver/Src/stm32h7xx_hal_dma_ex.c ****       /* Set the error code to busy */
 198:Drivers/STM32H7xx_HAL_Driver/Src/stm32h7xx_hal_dma_ex.c ****       hdma->ErrorCode = HAL_DMA_ERROR_BUSY;
 199:Drivers/STM32H7xx_HAL_Driver/Src/stm32h7xx_hal_dma_ex.c **** 
 200:Drivers/STM32H7xx_HAL_Driver/Src/stm32h7xx_hal_dma_ex.c ****       /* Return error status */
 201:Drivers/STM32H7xx_HAL_Driver/Src/stm32h7xx_hal_dma_ex.c ****       status = HAL_ERROR;
 202:Drivers/STM32H7xx_HAL_Driver/Src/stm32h7xx_hal_dma_ex.c ****     }
 203:Drivers/STM32H7xx_HAL_Driver/Src/stm32h7xx_hal_dma_ex.c ****   }
 204:Drivers/STM32H7xx_HAL_Driver/Src/stm32h7xx_hal_dma_ex.c ****   return status;
ARM GAS  /tmp/ccdCpe1u.s 			page 5


 205:Drivers/STM32H7xx_HAL_Driver/Src/stm32h7xx_hal_dma_ex.c **** }
 206:Drivers/STM32H7xx_HAL_Driver/Src/stm32h7xx_hal_dma_ex.c **** 
 207:Drivers/STM32H7xx_HAL_Driver/Src/stm32h7xx_hal_dma_ex.c **** /**
 208:Drivers/STM32H7xx_HAL_Driver/Src/stm32h7xx_hal_dma_ex.c ****   * @brief  Starts the multi_buffer DMA Transfer with interrupt enabled.
 209:Drivers/STM32H7xx_HAL_Driver/Src/stm32h7xx_hal_dma_ex.c ****   * @param  hdma:       pointer to a DMA_HandleTypeDef structure that contains
 210:Drivers/STM32H7xx_HAL_Driver/Src/stm32h7xx_hal_dma_ex.c ****   *                     the configuration information for the specified DMA Stream.
 211:Drivers/STM32H7xx_HAL_Driver/Src/stm32h7xx_hal_dma_ex.c ****   * @param  SrcAddress: The source memory Buffer address
 212:Drivers/STM32H7xx_HAL_Driver/Src/stm32h7xx_hal_dma_ex.c ****   * @param  DstAddress: The destination memory Buffer address
 213:Drivers/STM32H7xx_HAL_Driver/Src/stm32h7xx_hal_dma_ex.c ****   * @param  SecondMemAddress: The second memory Buffer address in case of multi buffer Transfer
 214:Drivers/STM32H7xx_HAL_Driver/Src/stm32h7xx_hal_dma_ex.c ****   * @param  DataLength: The length of data to be transferred from source to destination
 215:Drivers/STM32H7xx_HAL_Driver/Src/stm32h7xx_hal_dma_ex.c ****   * @retval HAL status
 216:Drivers/STM32H7xx_HAL_Driver/Src/stm32h7xx_hal_dma_ex.c ****   */
 217:Drivers/STM32H7xx_HAL_Driver/Src/stm32h7xx_hal_dma_ex.c **** HAL_StatusTypeDef HAL_DMAEx_MultiBufferStart_IT(DMA_HandleTypeDef *hdma, uint32_t SrcAddress, uint3
 218:Drivers/STM32H7xx_HAL_Driver/Src/stm32h7xx_hal_dma_ex.c **** {
 219:Drivers/STM32H7xx_HAL_Driver/Src/stm32h7xx_hal_dma_ex.c ****   HAL_StatusTypeDef status = HAL_OK;
 220:Drivers/STM32H7xx_HAL_Driver/Src/stm32h7xx_hal_dma_ex.c ****   __IO uint32_t *ifcRegister_Base; /* DMA Stream Interrupt Clear register */
 221:Drivers/STM32H7xx_HAL_Driver/Src/stm32h7xx_hal_dma_ex.c **** 
 222:Drivers/STM32H7xx_HAL_Driver/Src/stm32h7xx_hal_dma_ex.c ****   /* Check the parameters */
 223:Drivers/STM32H7xx_HAL_Driver/Src/stm32h7xx_hal_dma_ex.c ****   assert_param(IS_DMA_BUFFER_SIZE(DataLength));
 224:Drivers/STM32H7xx_HAL_Driver/Src/stm32h7xx_hal_dma_ex.c ****   assert_param(IS_DMA_ALL_INSTANCE(hdma->Instance));
 225:Drivers/STM32H7xx_HAL_Driver/Src/stm32h7xx_hal_dma_ex.c **** 
 226:Drivers/STM32H7xx_HAL_Driver/Src/stm32h7xx_hal_dma_ex.c ****   /* Memory-to-memory transfer not supported in double buffering mode */
 227:Drivers/STM32H7xx_HAL_Driver/Src/stm32h7xx_hal_dma_ex.c ****   if(hdma->Init.Direction == DMA_MEMORY_TO_MEMORY)
 228:Drivers/STM32H7xx_HAL_Driver/Src/stm32h7xx_hal_dma_ex.c ****   {
 229:Drivers/STM32H7xx_HAL_Driver/Src/stm32h7xx_hal_dma_ex.c ****     hdma->ErrorCode = HAL_DMA_ERROR_NOT_SUPPORTED;
 230:Drivers/STM32H7xx_HAL_Driver/Src/stm32h7xx_hal_dma_ex.c ****     return HAL_ERROR;
 231:Drivers/STM32H7xx_HAL_Driver/Src/stm32h7xx_hal_dma_ex.c ****   }
 232:Drivers/STM32H7xx_HAL_Driver/Src/stm32h7xx_hal_dma_ex.c **** 
 233:Drivers/STM32H7xx_HAL_Driver/Src/stm32h7xx_hal_dma_ex.c ****   /* Process locked */
 234:Drivers/STM32H7xx_HAL_Driver/Src/stm32h7xx_hal_dma_ex.c ****   __HAL_LOCK(hdma);
 235:Drivers/STM32H7xx_HAL_Driver/Src/stm32h7xx_hal_dma_ex.c **** 
 236:Drivers/STM32H7xx_HAL_Driver/Src/stm32h7xx_hal_dma_ex.c ****   if(HAL_DMA_STATE_READY == hdma->State)
 237:Drivers/STM32H7xx_HAL_Driver/Src/stm32h7xx_hal_dma_ex.c ****   {
 238:Drivers/STM32H7xx_HAL_Driver/Src/stm32h7xx_hal_dma_ex.c ****     /* Change DMA peripheral state */
 239:Drivers/STM32H7xx_HAL_Driver/Src/stm32h7xx_hal_dma_ex.c ****     hdma->State = HAL_DMA_STATE_BUSY;
 240:Drivers/STM32H7xx_HAL_Driver/Src/stm32h7xx_hal_dma_ex.c **** 
 241:Drivers/STM32H7xx_HAL_Driver/Src/stm32h7xx_hal_dma_ex.c ****     /* Initialize the error code */
 242:Drivers/STM32H7xx_HAL_Driver/Src/stm32h7xx_hal_dma_ex.c ****     hdma->ErrorCode = HAL_DMA_ERROR_NONE;
 243:Drivers/STM32H7xx_HAL_Driver/Src/stm32h7xx_hal_dma_ex.c **** 
 244:Drivers/STM32H7xx_HAL_Driver/Src/stm32h7xx_hal_dma_ex.c ****     if(IS_DMA_STREAM_INSTANCE(hdma->Instance) != 0U) /* DMA1 or DMA2 instance */
 245:Drivers/STM32H7xx_HAL_Driver/Src/stm32h7xx_hal_dma_ex.c ****     {
 246:Drivers/STM32H7xx_HAL_Driver/Src/stm32h7xx_hal_dma_ex.c ****       /* Enable the Double buffer mode */
 247:Drivers/STM32H7xx_HAL_Driver/Src/stm32h7xx_hal_dma_ex.c ****       ((DMA_Stream_TypeDef   *)hdma->Instance)->CR |= DMA_SxCR_DBM;
 248:Drivers/STM32H7xx_HAL_Driver/Src/stm32h7xx_hal_dma_ex.c **** 
 249:Drivers/STM32H7xx_HAL_Driver/Src/stm32h7xx_hal_dma_ex.c ****       /* Configure DMA Stream destination address */
 250:Drivers/STM32H7xx_HAL_Driver/Src/stm32h7xx_hal_dma_ex.c ****       ((DMA_Stream_TypeDef   *)hdma->Instance)->M1AR = SecondMemAddress;
 251:Drivers/STM32H7xx_HAL_Driver/Src/stm32h7xx_hal_dma_ex.c **** 
 252:Drivers/STM32H7xx_HAL_Driver/Src/stm32h7xx_hal_dma_ex.c ****       /* Calculate the interrupt clear flag register (IFCR) base address  */
 253:Drivers/STM32H7xx_HAL_Driver/Src/stm32h7xx_hal_dma_ex.c ****       ifcRegister_Base = (uint32_t *)((uint32_t)(hdma->StreamBaseAddress + 8U));
 254:Drivers/STM32H7xx_HAL_Driver/Src/stm32h7xx_hal_dma_ex.c **** 
 255:Drivers/STM32H7xx_HAL_Driver/Src/stm32h7xx_hal_dma_ex.c ****       /* Clear all flags */
 256:Drivers/STM32H7xx_HAL_Driver/Src/stm32h7xx_hal_dma_ex.c ****       *ifcRegister_Base = 0x3FUL << (hdma->StreamIndex & 0x1FU);
 257:Drivers/STM32H7xx_HAL_Driver/Src/stm32h7xx_hal_dma_ex.c ****     }
 258:Drivers/STM32H7xx_HAL_Driver/Src/stm32h7xx_hal_dma_ex.c ****     else /* BDMA instance(s) */
 259:Drivers/STM32H7xx_HAL_Driver/Src/stm32h7xx_hal_dma_ex.c ****     {
 260:Drivers/STM32H7xx_HAL_Driver/Src/stm32h7xx_hal_dma_ex.c ****       /* Enable the Double buffer mode */
 261:Drivers/STM32H7xx_HAL_Driver/Src/stm32h7xx_hal_dma_ex.c ****       ((BDMA_Channel_TypeDef   *)hdma->Instance)->CCR |= (BDMA_CCR_DBM | BDMA_CCR_CIRC);
ARM GAS  /tmp/ccdCpe1u.s 			page 6


 262:Drivers/STM32H7xx_HAL_Driver/Src/stm32h7xx_hal_dma_ex.c **** 
 263:Drivers/STM32H7xx_HAL_Driver/Src/stm32h7xx_hal_dma_ex.c ****       /* Configure DMA Stream destination address */
 264:Drivers/STM32H7xx_HAL_Driver/Src/stm32h7xx_hal_dma_ex.c ****       ((BDMA_Channel_TypeDef   *)hdma->Instance)->CM1AR = SecondMemAddress;
 265:Drivers/STM32H7xx_HAL_Driver/Src/stm32h7xx_hal_dma_ex.c **** 
 266:Drivers/STM32H7xx_HAL_Driver/Src/stm32h7xx_hal_dma_ex.c ****       /* Calculate the interrupt clear flag register (IFCR) base address  */
 267:Drivers/STM32H7xx_HAL_Driver/Src/stm32h7xx_hal_dma_ex.c ****       ifcRegister_Base = (uint32_t *)((uint32_t)(hdma->StreamBaseAddress + 4U));
 268:Drivers/STM32H7xx_HAL_Driver/Src/stm32h7xx_hal_dma_ex.c **** 
 269:Drivers/STM32H7xx_HAL_Driver/Src/stm32h7xx_hal_dma_ex.c ****       /* Clear all flags */
 270:Drivers/STM32H7xx_HAL_Driver/Src/stm32h7xx_hal_dma_ex.c ****       *ifcRegister_Base = (BDMA_ISR_GIF0) << (hdma->StreamIndex & 0x1FU);
 271:Drivers/STM32H7xx_HAL_Driver/Src/stm32h7xx_hal_dma_ex.c ****     }
 272:Drivers/STM32H7xx_HAL_Driver/Src/stm32h7xx_hal_dma_ex.c **** 
 273:Drivers/STM32H7xx_HAL_Driver/Src/stm32h7xx_hal_dma_ex.c ****     /* Configure the source, destination address and the data length */
 274:Drivers/STM32H7xx_HAL_Driver/Src/stm32h7xx_hal_dma_ex.c ****     DMA_MultiBufferSetConfig(hdma, SrcAddress, DstAddress, DataLength);
 275:Drivers/STM32H7xx_HAL_Driver/Src/stm32h7xx_hal_dma_ex.c **** 
 276:Drivers/STM32H7xx_HAL_Driver/Src/stm32h7xx_hal_dma_ex.c ****     if(IS_DMA_DMAMUX_ALL_INSTANCE(hdma->Instance) != 0U) /* No DMAMUX available for BDMA1 */
 277:Drivers/STM32H7xx_HAL_Driver/Src/stm32h7xx_hal_dma_ex.c ****     {
 278:Drivers/STM32H7xx_HAL_Driver/Src/stm32h7xx_hal_dma_ex.c ****       /* Clear the DMAMUX synchro overrun flag */
 279:Drivers/STM32H7xx_HAL_Driver/Src/stm32h7xx_hal_dma_ex.c ****       hdma->DMAmuxChannelStatus->CFR = hdma->DMAmuxChannelStatusMask;
 280:Drivers/STM32H7xx_HAL_Driver/Src/stm32h7xx_hal_dma_ex.c **** 
 281:Drivers/STM32H7xx_HAL_Driver/Src/stm32h7xx_hal_dma_ex.c ****       if(hdma->DMAmuxRequestGen != 0U)
 282:Drivers/STM32H7xx_HAL_Driver/Src/stm32h7xx_hal_dma_ex.c ****       {
 283:Drivers/STM32H7xx_HAL_Driver/Src/stm32h7xx_hal_dma_ex.c ****         /* Clear the DMAMUX request generator overrun flag */
 284:Drivers/STM32H7xx_HAL_Driver/Src/stm32h7xx_hal_dma_ex.c ****         hdma->DMAmuxRequestGenStatus->RGCFR = hdma->DMAmuxRequestGenStatusMask;
 285:Drivers/STM32H7xx_HAL_Driver/Src/stm32h7xx_hal_dma_ex.c ****       }
 286:Drivers/STM32H7xx_HAL_Driver/Src/stm32h7xx_hal_dma_ex.c ****     }
 287:Drivers/STM32H7xx_HAL_Driver/Src/stm32h7xx_hal_dma_ex.c **** 
 288:Drivers/STM32H7xx_HAL_Driver/Src/stm32h7xx_hal_dma_ex.c ****     if(IS_DMA_STREAM_INSTANCE(hdma->Instance) != 0U) /* DMA1 or DMA2 instance */
 289:Drivers/STM32H7xx_HAL_Driver/Src/stm32h7xx_hal_dma_ex.c ****     {
 290:Drivers/STM32H7xx_HAL_Driver/Src/stm32h7xx_hal_dma_ex.c ****       /* Enable Common interrupts*/
 291:Drivers/STM32H7xx_HAL_Driver/Src/stm32h7xx_hal_dma_ex.c ****       MODIFY_REG(((DMA_Stream_TypeDef   *)hdma->Instance)->CR, (DMA_IT_TC | DMA_IT_TE | DMA_IT_DME 
 292:Drivers/STM32H7xx_HAL_Driver/Src/stm32h7xx_hal_dma_ex.c ****       ((DMA_Stream_TypeDef   *)hdma->Instance)->FCR |= DMA_IT_FE;
 293:Drivers/STM32H7xx_HAL_Driver/Src/stm32h7xx_hal_dma_ex.c **** 
 294:Drivers/STM32H7xx_HAL_Driver/Src/stm32h7xx_hal_dma_ex.c ****       if((hdma->XferHalfCpltCallback != NULL) || (hdma->XferM1HalfCpltCallback != NULL))
 295:Drivers/STM32H7xx_HAL_Driver/Src/stm32h7xx_hal_dma_ex.c ****       {
 296:Drivers/STM32H7xx_HAL_Driver/Src/stm32h7xx_hal_dma_ex.c ****         /*Enable Half Transfer IT if corresponding Callback is set*/
 297:Drivers/STM32H7xx_HAL_Driver/Src/stm32h7xx_hal_dma_ex.c ****         ((DMA_Stream_TypeDef   *)hdma->Instance)->CR  |= DMA_IT_HT;
 298:Drivers/STM32H7xx_HAL_Driver/Src/stm32h7xx_hal_dma_ex.c ****       }
 299:Drivers/STM32H7xx_HAL_Driver/Src/stm32h7xx_hal_dma_ex.c ****     }
 300:Drivers/STM32H7xx_HAL_Driver/Src/stm32h7xx_hal_dma_ex.c ****     else /* BDMA instance(s) */
 301:Drivers/STM32H7xx_HAL_Driver/Src/stm32h7xx_hal_dma_ex.c ****     {
 302:Drivers/STM32H7xx_HAL_Driver/Src/stm32h7xx_hal_dma_ex.c ****       /* Enable Common interrupts*/
 303:Drivers/STM32H7xx_HAL_Driver/Src/stm32h7xx_hal_dma_ex.c ****       MODIFY_REG(((BDMA_Channel_TypeDef   *)hdma->Instance)->CCR, (BDMA_CCR_TCIE | BDMA_CCR_HTIE | 
 304:Drivers/STM32H7xx_HAL_Driver/Src/stm32h7xx_hal_dma_ex.c **** 
 305:Drivers/STM32H7xx_HAL_Driver/Src/stm32h7xx_hal_dma_ex.c ****       if((hdma->XferHalfCpltCallback != NULL) || (hdma->XferM1HalfCpltCallback != NULL))
 306:Drivers/STM32H7xx_HAL_Driver/Src/stm32h7xx_hal_dma_ex.c ****       {
 307:Drivers/STM32H7xx_HAL_Driver/Src/stm32h7xx_hal_dma_ex.c ****         /*Enable Half Transfer IT if corresponding Callback is set*/
 308:Drivers/STM32H7xx_HAL_Driver/Src/stm32h7xx_hal_dma_ex.c ****         ((BDMA_Channel_TypeDef   *)hdma->Instance)->CCR  |= BDMA_CCR_HTIE;
 309:Drivers/STM32H7xx_HAL_Driver/Src/stm32h7xx_hal_dma_ex.c ****       }
 310:Drivers/STM32H7xx_HAL_Driver/Src/stm32h7xx_hal_dma_ex.c ****     }
 311:Drivers/STM32H7xx_HAL_Driver/Src/stm32h7xx_hal_dma_ex.c **** 
 312:Drivers/STM32H7xx_HAL_Driver/Src/stm32h7xx_hal_dma_ex.c ****     if(IS_DMA_DMAMUX_ALL_INSTANCE(hdma->Instance) != 0U) /* No DMAMUX available for BDMA1 */
 313:Drivers/STM32H7xx_HAL_Driver/Src/stm32h7xx_hal_dma_ex.c ****     {
 314:Drivers/STM32H7xx_HAL_Driver/Src/stm32h7xx_hal_dma_ex.c ****       /* Check if DMAMUX Synchronization is enabled*/
 315:Drivers/STM32H7xx_HAL_Driver/Src/stm32h7xx_hal_dma_ex.c ****       if((hdma->DMAmuxChannel->CCR & DMAMUX_CxCR_SE) != 0U)
 316:Drivers/STM32H7xx_HAL_Driver/Src/stm32h7xx_hal_dma_ex.c ****       {
 317:Drivers/STM32H7xx_HAL_Driver/Src/stm32h7xx_hal_dma_ex.c ****         /* Enable DMAMUX sync overrun IT*/
 318:Drivers/STM32H7xx_HAL_Driver/Src/stm32h7xx_hal_dma_ex.c ****         hdma->DMAmuxChannel->CCR |= DMAMUX_CxCR_SOIE;
ARM GAS  /tmp/ccdCpe1u.s 			page 7


 319:Drivers/STM32H7xx_HAL_Driver/Src/stm32h7xx_hal_dma_ex.c ****       }
 320:Drivers/STM32H7xx_HAL_Driver/Src/stm32h7xx_hal_dma_ex.c **** 
 321:Drivers/STM32H7xx_HAL_Driver/Src/stm32h7xx_hal_dma_ex.c ****       if(hdma->DMAmuxRequestGen != 0U)
 322:Drivers/STM32H7xx_HAL_Driver/Src/stm32h7xx_hal_dma_ex.c ****       {
 323:Drivers/STM32H7xx_HAL_Driver/Src/stm32h7xx_hal_dma_ex.c ****         /* if using DMAMUX request generator, enable the DMAMUX request generator overrun IT*/
 324:Drivers/STM32H7xx_HAL_Driver/Src/stm32h7xx_hal_dma_ex.c ****         /* enable the request gen overrun IT*/
 325:Drivers/STM32H7xx_HAL_Driver/Src/stm32h7xx_hal_dma_ex.c ****         hdma->DMAmuxRequestGen->RGCR |= DMAMUX_RGxCR_OIE;
 326:Drivers/STM32H7xx_HAL_Driver/Src/stm32h7xx_hal_dma_ex.c ****       }
 327:Drivers/STM32H7xx_HAL_Driver/Src/stm32h7xx_hal_dma_ex.c ****     }
 328:Drivers/STM32H7xx_HAL_Driver/Src/stm32h7xx_hal_dma_ex.c **** 
 329:Drivers/STM32H7xx_HAL_Driver/Src/stm32h7xx_hal_dma_ex.c ****     /* Enable the peripheral */
 330:Drivers/STM32H7xx_HAL_Driver/Src/stm32h7xx_hal_dma_ex.c ****     __HAL_DMA_ENABLE(hdma);
 331:Drivers/STM32H7xx_HAL_Driver/Src/stm32h7xx_hal_dma_ex.c ****   }
 332:Drivers/STM32H7xx_HAL_Driver/Src/stm32h7xx_hal_dma_ex.c ****   else
 333:Drivers/STM32H7xx_HAL_Driver/Src/stm32h7xx_hal_dma_ex.c ****   {
 334:Drivers/STM32H7xx_HAL_Driver/Src/stm32h7xx_hal_dma_ex.c ****     /* Set the error code to busy */
 335:Drivers/STM32H7xx_HAL_Driver/Src/stm32h7xx_hal_dma_ex.c ****     hdma->ErrorCode = HAL_DMA_ERROR_BUSY;
 336:Drivers/STM32H7xx_HAL_Driver/Src/stm32h7xx_hal_dma_ex.c **** 
 337:Drivers/STM32H7xx_HAL_Driver/Src/stm32h7xx_hal_dma_ex.c ****     /* Return error status */
 338:Drivers/STM32H7xx_HAL_Driver/Src/stm32h7xx_hal_dma_ex.c ****     status = HAL_ERROR;
 339:Drivers/STM32H7xx_HAL_Driver/Src/stm32h7xx_hal_dma_ex.c ****   }
 340:Drivers/STM32H7xx_HAL_Driver/Src/stm32h7xx_hal_dma_ex.c ****   return status;
 341:Drivers/STM32H7xx_HAL_Driver/Src/stm32h7xx_hal_dma_ex.c **** }
 342:Drivers/STM32H7xx_HAL_Driver/Src/stm32h7xx_hal_dma_ex.c **** 
 343:Drivers/STM32H7xx_HAL_Driver/Src/stm32h7xx_hal_dma_ex.c **** /**
 344:Drivers/STM32H7xx_HAL_Driver/Src/stm32h7xx_hal_dma_ex.c ****   * @brief  Change the memory0 or memory1 address on the fly.
 345:Drivers/STM32H7xx_HAL_Driver/Src/stm32h7xx_hal_dma_ex.c ****   * @param  hdma:       pointer to a DMA_HandleTypeDef structure that contains
 346:Drivers/STM32H7xx_HAL_Driver/Src/stm32h7xx_hal_dma_ex.c ****   *                     the configuration information for the specified DMA Stream.
 347:Drivers/STM32H7xx_HAL_Driver/Src/stm32h7xx_hal_dma_ex.c ****   * @param  Address:    The new address
 348:Drivers/STM32H7xx_HAL_Driver/Src/stm32h7xx_hal_dma_ex.c ****   * @param  memory:     the memory to be changed, This parameter can be one of
 349:Drivers/STM32H7xx_HAL_Driver/Src/stm32h7xx_hal_dma_ex.c ****   *                     the following values:
 350:Drivers/STM32H7xx_HAL_Driver/Src/stm32h7xx_hal_dma_ex.c ****   *                      MEMORY0 /
 351:Drivers/STM32H7xx_HAL_Driver/Src/stm32h7xx_hal_dma_ex.c ****   *                      MEMORY1
 352:Drivers/STM32H7xx_HAL_Driver/Src/stm32h7xx_hal_dma_ex.c ****   * @note   The MEMORY0 address can be changed only when the current transfer use
 353:Drivers/STM32H7xx_HAL_Driver/Src/stm32h7xx_hal_dma_ex.c ****   *         MEMORY1 and the MEMORY1 address can be changed only when the current
 354:Drivers/STM32H7xx_HAL_Driver/Src/stm32h7xx_hal_dma_ex.c ****   *         transfer use MEMORY0.
 355:Drivers/STM32H7xx_HAL_Driver/Src/stm32h7xx_hal_dma_ex.c ****   * @retval HAL status
 356:Drivers/STM32H7xx_HAL_Driver/Src/stm32h7xx_hal_dma_ex.c ****   */
 357:Drivers/STM32H7xx_HAL_Driver/Src/stm32h7xx_hal_dma_ex.c **** HAL_StatusTypeDef HAL_DMAEx_ChangeMemory(DMA_HandleTypeDef *hdma, uint32_t Address, HAL_DMA_MemoryT
 358:Drivers/STM32H7xx_HAL_Driver/Src/stm32h7xx_hal_dma_ex.c **** {
 359:Drivers/STM32H7xx_HAL_Driver/Src/stm32h7xx_hal_dma_ex.c ****   if(IS_DMA_STREAM_INSTANCE(hdma->Instance) != 0U) /* DMA1 or DMA2 instance */
 360:Drivers/STM32H7xx_HAL_Driver/Src/stm32h7xx_hal_dma_ex.c ****   {
 361:Drivers/STM32H7xx_HAL_Driver/Src/stm32h7xx_hal_dma_ex.c ****     if(memory == MEMORY0)
 362:Drivers/STM32H7xx_HAL_Driver/Src/stm32h7xx_hal_dma_ex.c ****     {
 363:Drivers/STM32H7xx_HAL_Driver/Src/stm32h7xx_hal_dma_ex.c ****       /* change the memory0 address */
 364:Drivers/STM32H7xx_HAL_Driver/Src/stm32h7xx_hal_dma_ex.c ****       ((DMA_Stream_TypeDef   *)hdma->Instance)->M0AR = Address;
 365:Drivers/STM32H7xx_HAL_Driver/Src/stm32h7xx_hal_dma_ex.c ****     }
 366:Drivers/STM32H7xx_HAL_Driver/Src/stm32h7xx_hal_dma_ex.c ****     else
 367:Drivers/STM32H7xx_HAL_Driver/Src/stm32h7xx_hal_dma_ex.c ****     {
 368:Drivers/STM32H7xx_HAL_Driver/Src/stm32h7xx_hal_dma_ex.c ****       /* change the memory1 address */
 369:Drivers/STM32H7xx_HAL_Driver/Src/stm32h7xx_hal_dma_ex.c ****       ((DMA_Stream_TypeDef   *)hdma->Instance)->M1AR = Address;
 370:Drivers/STM32H7xx_HAL_Driver/Src/stm32h7xx_hal_dma_ex.c ****     }
 371:Drivers/STM32H7xx_HAL_Driver/Src/stm32h7xx_hal_dma_ex.c ****   }
 372:Drivers/STM32H7xx_HAL_Driver/Src/stm32h7xx_hal_dma_ex.c ****   else /* BDMA instance(s) */
 373:Drivers/STM32H7xx_HAL_Driver/Src/stm32h7xx_hal_dma_ex.c ****   {
 374:Drivers/STM32H7xx_HAL_Driver/Src/stm32h7xx_hal_dma_ex.c ****     if(memory == MEMORY0)
 375:Drivers/STM32H7xx_HAL_Driver/Src/stm32h7xx_hal_dma_ex.c ****     {
ARM GAS  /tmp/ccdCpe1u.s 			page 8


 376:Drivers/STM32H7xx_HAL_Driver/Src/stm32h7xx_hal_dma_ex.c ****       /* change the memory0 address */
 377:Drivers/STM32H7xx_HAL_Driver/Src/stm32h7xx_hal_dma_ex.c ****       ((BDMA_Channel_TypeDef   *)hdma->Instance)->CM0AR = Address;
 378:Drivers/STM32H7xx_HAL_Driver/Src/stm32h7xx_hal_dma_ex.c ****     }
 379:Drivers/STM32H7xx_HAL_Driver/Src/stm32h7xx_hal_dma_ex.c ****     else
 380:Drivers/STM32H7xx_HAL_Driver/Src/stm32h7xx_hal_dma_ex.c ****     {
 381:Drivers/STM32H7xx_HAL_Driver/Src/stm32h7xx_hal_dma_ex.c ****       /* change the memory1 address */
 382:Drivers/STM32H7xx_HAL_Driver/Src/stm32h7xx_hal_dma_ex.c ****       ((BDMA_Channel_TypeDef   *)hdma->Instance)->CM1AR = Address;
 383:Drivers/STM32H7xx_HAL_Driver/Src/stm32h7xx_hal_dma_ex.c ****     }
 384:Drivers/STM32H7xx_HAL_Driver/Src/stm32h7xx_hal_dma_ex.c ****   }
 385:Drivers/STM32H7xx_HAL_Driver/Src/stm32h7xx_hal_dma_ex.c **** 
 386:Drivers/STM32H7xx_HAL_Driver/Src/stm32h7xx_hal_dma_ex.c ****   return HAL_OK;
 387:Drivers/STM32H7xx_HAL_Driver/Src/stm32h7xx_hal_dma_ex.c **** }
 388:Drivers/STM32H7xx_HAL_Driver/Src/stm32h7xx_hal_dma_ex.c **** 
 389:Drivers/STM32H7xx_HAL_Driver/Src/stm32h7xx_hal_dma_ex.c **** /**
 390:Drivers/STM32H7xx_HAL_Driver/Src/stm32h7xx_hal_dma_ex.c ****   * @brief  Configure the DMAMUX synchronization parameters for a given DMA stream (instance).
 391:Drivers/STM32H7xx_HAL_Driver/Src/stm32h7xx_hal_dma_ex.c ****   * @param  hdma:       pointer to a DMA_HandleTypeDef structure that contains
 392:Drivers/STM32H7xx_HAL_Driver/Src/stm32h7xx_hal_dma_ex.c ****   *                     the configuration information for the specified DMA Stream.
 393:Drivers/STM32H7xx_HAL_Driver/Src/stm32h7xx_hal_dma_ex.c ****   * @param  pSyncConfig : pointer to HAL_DMA_MuxSyncConfigTypeDef : contains the DMAMUX synchroniza
 394:Drivers/STM32H7xx_HAL_Driver/Src/stm32h7xx_hal_dma_ex.c ****   * @retval HAL status
 395:Drivers/STM32H7xx_HAL_Driver/Src/stm32h7xx_hal_dma_ex.c ****   */
 396:Drivers/STM32H7xx_HAL_Driver/Src/stm32h7xx_hal_dma_ex.c **** HAL_StatusTypeDef HAL_DMAEx_ConfigMuxSync(DMA_HandleTypeDef *hdma, HAL_DMA_MuxSyncConfigTypeDef *pS
 397:Drivers/STM32H7xx_HAL_Driver/Src/stm32h7xx_hal_dma_ex.c **** {
 398:Drivers/STM32H7xx_HAL_Driver/Src/stm32h7xx_hal_dma_ex.c ****   uint32_t syncSignalID = 0;
 399:Drivers/STM32H7xx_HAL_Driver/Src/stm32h7xx_hal_dma_ex.c ****   uint32_t syncPolarity = 0;
 400:Drivers/STM32H7xx_HAL_Driver/Src/stm32h7xx_hal_dma_ex.c **** 
 401:Drivers/STM32H7xx_HAL_Driver/Src/stm32h7xx_hal_dma_ex.c ****   /* Check the parameters */
 402:Drivers/STM32H7xx_HAL_Driver/Src/stm32h7xx_hal_dma_ex.c ****   assert_param(IS_DMA_DMAMUX_ALL_INSTANCE(hdma->Instance));
 403:Drivers/STM32H7xx_HAL_Driver/Src/stm32h7xx_hal_dma_ex.c ****   assert_param(IS_DMAMUX_SYNC_STATE(pSyncConfig->SyncEnable));
 404:Drivers/STM32H7xx_HAL_Driver/Src/stm32h7xx_hal_dma_ex.c ****   assert_param(IS_DMAMUX_SYNC_EVENT(pSyncConfig->EventEnable));
 405:Drivers/STM32H7xx_HAL_Driver/Src/stm32h7xx_hal_dma_ex.c ****   assert_param(IS_DMAMUX_SYNC_REQUEST_NUMBER(pSyncConfig->RequestNumber));
 406:Drivers/STM32H7xx_HAL_Driver/Src/stm32h7xx_hal_dma_ex.c **** 
 407:Drivers/STM32H7xx_HAL_Driver/Src/stm32h7xx_hal_dma_ex.c ****   if(pSyncConfig->SyncEnable == ENABLE)
 408:Drivers/STM32H7xx_HAL_Driver/Src/stm32h7xx_hal_dma_ex.c ****   {
 409:Drivers/STM32H7xx_HAL_Driver/Src/stm32h7xx_hal_dma_ex.c ****     assert_param(IS_DMAMUX_SYNC_POLARITY(pSyncConfig->SyncPolarity));
 410:Drivers/STM32H7xx_HAL_Driver/Src/stm32h7xx_hal_dma_ex.c **** 
 411:Drivers/STM32H7xx_HAL_Driver/Src/stm32h7xx_hal_dma_ex.c ****     if(IS_DMA_STREAM_INSTANCE(hdma->Instance) != 0U) /* DMA1 or DMA2 instance */
 412:Drivers/STM32H7xx_HAL_Driver/Src/stm32h7xx_hal_dma_ex.c ****     {
 413:Drivers/STM32H7xx_HAL_Driver/Src/stm32h7xx_hal_dma_ex.c ****       assert_param(IS_DMA_DMAMUX_SYNC_SIGNAL_ID(pSyncConfig->SyncSignalID));
 414:Drivers/STM32H7xx_HAL_Driver/Src/stm32h7xx_hal_dma_ex.c ****     }
 415:Drivers/STM32H7xx_HAL_Driver/Src/stm32h7xx_hal_dma_ex.c ****     else
 416:Drivers/STM32H7xx_HAL_Driver/Src/stm32h7xx_hal_dma_ex.c ****     {
 417:Drivers/STM32H7xx_HAL_Driver/Src/stm32h7xx_hal_dma_ex.c ****       assert_param(IS_BDMA_DMAMUX_SYNC_SIGNAL_ID(pSyncConfig->SyncSignalID));
 418:Drivers/STM32H7xx_HAL_Driver/Src/stm32h7xx_hal_dma_ex.c ****     }
 419:Drivers/STM32H7xx_HAL_Driver/Src/stm32h7xx_hal_dma_ex.c ****     syncSignalID = pSyncConfig->SyncSignalID;
 420:Drivers/STM32H7xx_HAL_Driver/Src/stm32h7xx_hal_dma_ex.c ****     syncPolarity = pSyncConfig->SyncPolarity;
 421:Drivers/STM32H7xx_HAL_Driver/Src/stm32h7xx_hal_dma_ex.c ****   }
 422:Drivers/STM32H7xx_HAL_Driver/Src/stm32h7xx_hal_dma_ex.c **** 
 423:Drivers/STM32H7xx_HAL_Driver/Src/stm32h7xx_hal_dma_ex.c ****   /*Check if the DMA state is ready */
 424:Drivers/STM32H7xx_HAL_Driver/Src/stm32h7xx_hal_dma_ex.c ****   if(hdma->State == HAL_DMA_STATE_READY)
 425:Drivers/STM32H7xx_HAL_Driver/Src/stm32h7xx_hal_dma_ex.c ****   {
 426:Drivers/STM32H7xx_HAL_Driver/Src/stm32h7xx_hal_dma_ex.c ****     /* Process Locked */
 427:Drivers/STM32H7xx_HAL_Driver/Src/stm32h7xx_hal_dma_ex.c ****     __HAL_LOCK(hdma);
 428:Drivers/STM32H7xx_HAL_Driver/Src/stm32h7xx_hal_dma_ex.c **** 
 429:Drivers/STM32H7xx_HAL_Driver/Src/stm32h7xx_hal_dma_ex.c ****     /* Disable the synchronization and event generation before applying a new config */
 430:Drivers/STM32H7xx_HAL_Driver/Src/stm32h7xx_hal_dma_ex.c ****     CLEAR_BIT(hdma->DMAmuxChannel->CCR,(DMAMUX_CxCR_SE | DMAMUX_CxCR_EGE));
 431:Drivers/STM32H7xx_HAL_Driver/Src/stm32h7xx_hal_dma_ex.c **** 
 432:Drivers/STM32H7xx_HAL_Driver/Src/stm32h7xx_hal_dma_ex.c ****     /* Set the new synchronization parameters (and keep the request ID filled during the Init)*/
ARM GAS  /tmp/ccdCpe1u.s 			page 9


 433:Drivers/STM32H7xx_HAL_Driver/Src/stm32h7xx_hal_dma_ex.c ****     MODIFY_REG( hdma->DMAmuxChannel->CCR, \
 434:Drivers/STM32H7xx_HAL_Driver/Src/stm32h7xx_hal_dma_ex.c ****                (~DMAMUX_CxCR_DMAREQ_ID) , \
 435:Drivers/STM32H7xx_HAL_Driver/Src/stm32h7xx_hal_dma_ex.c ****                (syncSignalID << DMAMUX_CxCR_SYNC_ID_Pos)       | \
 436:Drivers/STM32H7xx_HAL_Driver/Src/stm32h7xx_hal_dma_ex.c ****                ((pSyncConfig->RequestNumber - 1U) << DMAMUX_CxCR_NBREQ_Pos) | \
 437:Drivers/STM32H7xx_HAL_Driver/Src/stm32h7xx_hal_dma_ex.c ****                syncPolarity | ((uint32_t)pSyncConfig->SyncEnable << DMAMUX_CxCR_SE_Pos)    | \
 438:Drivers/STM32H7xx_HAL_Driver/Src/stm32h7xx_hal_dma_ex.c ****                ((uint32_t)pSyncConfig->EventEnable << DMAMUX_CxCR_EGE_Pos));
 439:Drivers/STM32H7xx_HAL_Driver/Src/stm32h7xx_hal_dma_ex.c **** 
 440:Drivers/STM32H7xx_HAL_Driver/Src/stm32h7xx_hal_dma_ex.c ****       /* Process Locked */
 441:Drivers/STM32H7xx_HAL_Driver/Src/stm32h7xx_hal_dma_ex.c ****     __HAL_UNLOCK(hdma);
 442:Drivers/STM32H7xx_HAL_Driver/Src/stm32h7xx_hal_dma_ex.c **** 
 443:Drivers/STM32H7xx_HAL_Driver/Src/stm32h7xx_hal_dma_ex.c ****     return HAL_OK;
 444:Drivers/STM32H7xx_HAL_Driver/Src/stm32h7xx_hal_dma_ex.c ****   }
 445:Drivers/STM32H7xx_HAL_Driver/Src/stm32h7xx_hal_dma_ex.c ****   else
 446:Drivers/STM32H7xx_HAL_Driver/Src/stm32h7xx_hal_dma_ex.c ****   {
 447:Drivers/STM32H7xx_HAL_Driver/Src/stm32h7xx_hal_dma_ex.c ****     /* Set the error code to busy */
 448:Drivers/STM32H7xx_HAL_Driver/Src/stm32h7xx_hal_dma_ex.c ****     hdma->ErrorCode = HAL_DMA_ERROR_BUSY;
 449:Drivers/STM32H7xx_HAL_Driver/Src/stm32h7xx_hal_dma_ex.c **** 
 450:Drivers/STM32H7xx_HAL_Driver/Src/stm32h7xx_hal_dma_ex.c ****     /* Return error status */
 451:Drivers/STM32H7xx_HAL_Driver/Src/stm32h7xx_hal_dma_ex.c ****     return HAL_ERROR;
 452:Drivers/STM32H7xx_HAL_Driver/Src/stm32h7xx_hal_dma_ex.c ****   }
 453:Drivers/STM32H7xx_HAL_Driver/Src/stm32h7xx_hal_dma_ex.c **** }
 454:Drivers/STM32H7xx_HAL_Driver/Src/stm32h7xx_hal_dma_ex.c **** 
 455:Drivers/STM32H7xx_HAL_Driver/Src/stm32h7xx_hal_dma_ex.c **** /**
 456:Drivers/STM32H7xx_HAL_Driver/Src/stm32h7xx_hal_dma_ex.c ****   * @brief  Configure the DMAMUX request generator block used by the given DMA stream (instance).
 457:Drivers/STM32H7xx_HAL_Driver/Src/stm32h7xx_hal_dma_ex.c ****   * @param  hdma:       pointer to a DMA_HandleTypeDef structure that contains
 458:Drivers/STM32H7xx_HAL_Driver/Src/stm32h7xx_hal_dma_ex.c ****   *                     the configuration information for the specified DMA Stream.
 459:Drivers/STM32H7xx_HAL_Driver/Src/stm32h7xx_hal_dma_ex.c ****   * @param  pRequestGeneratorConfig : pointer to HAL_DMA_MuxRequestGeneratorConfigTypeDef :
 460:Drivers/STM32H7xx_HAL_Driver/Src/stm32h7xx_hal_dma_ex.c ****   *         contains the request generator parameters.
 461:Drivers/STM32H7xx_HAL_Driver/Src/stm32h7xx_hal_dma_ex.c ****   *
 462:Drivers/STM32H7xx_HAL_Driver/Src/stm32h7xx_hal_dma_ex.c ****   * @retval HAL status
 463:Drivers/STM32H7xx_HAL_Driver/Src/stm32h7xx_hal_dma_ex.c ****   */
 464:Drivers/STM32H7xx_HAL_Driver/Src/stm32h7xx_hal_dma_ex.c **** HAL_StatusTypeDef HAL_DMAEx_ConfigMuxRequestGenerator (DMA_HandleTypeDef *hdma, HAL_DMA_MuxRequestG
 465:Drivers/STM32H7xx_HAL_Driver/Src/stm32h7xx_hal_dma_ex.c **** {
 466:Drivers/STM32H7xx_HAL_Driver/Src/stm32h7xx_hal_dma_ex.c ****   HAL_StatusTypeDef status;
 467:Drivers/STM32H7xx_HAL_Driver/Src/stm32h7xx_hal_dma_ex.c ****   HAL_DMA_StateTypeDef temp_state = hdma->State;
 468:Drivers/STM32H7xx_HAL_Driver/Src/stm32h7xx_hal_dma_ex.c **** 
 469:Drivers/STM32H7xx_HAL_Driver/Src/stm32h7xx_hal_dma_ex.c ****   /* Check the parameters */
 470:Drivers/STM32H7xx_HAL_Driver/Src/stm32h7xx_hal_dma_ex.c ****   assert_param(IS_DMA_DMAMUX_ALL_INSTANCE(hdma->Instance));
 471:Drivers/STM32H7xx_HAL_Driver/Src/stm32h7xx_hal_dma_ex.c **** 
 472:Drivers/STM32H7xx_HAL_Driver/Src/stm32h7xx_hal_dma_ex.c ****   if(IS_DMA_STREAM_INSTANCE(hdma->Instance) != 0U) /* DMA1 or DMA2 instance */
 473:Drivers/STM32H7xx_HAL_Driver/Src/stm32h7xx_hal_dma_ex.c ****   {
 474:Drivers/STM32H7xx_HAL_Driver/Src/stm32h7xx_hal_dma_ex.c ****     assert_param(IS_DMA_DMAMUX_REQUEST_GEN_SIGNAL_ID(pRequestGeneratorConfig->SignalID));
 475:Drivers/STM32H7xx_HAL_Driver/Src/stm32h7xx_hal_dma_ex.c ****   }
 476:Drivers/STM32H7xx_HAL_Driver/Src/stm32h7xx_hal_dma_ex.c ****   else
 477:Drivers/STM32H7xx_HAL_Driver/Src/stm32h7xx_hal_dma_ex.c ****   {
 478:Drivers/STM32H7xx_HAL_Driver/Src/stm32h7xx_hal_dma_ex.c ****     assert_param(IS_BDMA_DMAMUX_REQUEST_GEN_SIGNAL_ID(pRequestGeneratorConfig->SignalID));
 479:Drivers/STM32H7xx_HAL_Driver/Src/stm32h7xx_hal_dma_ex.c ****   }
 480:Drivers/STM32H7xx_HAL_Driver/Src/stm32h7xx_hal_dma_ex.c **** 
 481:Drivers/STM32H7xx_HAL_Driver/Src/stm32h7xx_hal_dma_ex.c **** 
 482:Drivers/STM32H7xx_HAL_Driver/Src/stm32h7xx_hal_dma_ex.c ****   assert_param(IS_DMAMUX_REQUEST_GEN_POLARITY(pRequestGeneratorConfig->Polarity));
 483:Drivers/STM32H7xx_HAL_Driver/Src/stm32h7xx_hal_dma_ex.c ****   assert_param(IS_DMAMUX_REQUEST_GEN_REQUEST_NUMBER(pRequestGeneratorConfig->RequestNumber));
 484:Drivers/STM32H7xx_HAL_Driver/Src/stm32h7xx_hal_dma_ex.c **** 
 485:Drivers/STM32H7xx_HAL_Driver/Src/stm32h7xx_hal_dma_ex.c ****   /* check if the DMA state is ready
 486:Drivers/STM32H7xx_HAL_Driver/Src/stm32h7xx_hal_dma_ex.c ****      and DMA is using a DMAMUX request generator block
 487:Drivers/STM32H7xx_HAL_Driver/Src/stm32h7xx_hal_dma_ex.c ****   */
 488:Drivers/STM32H7xx_HAL_Driver/Src/stm32h7xx_hal_dma_ex.c ****   if(hdma->DMAmuxRequestGen == 0U)
 489:Drivers/STM32H7xx_HAL_Driver/Src/stm32h7xx_hal_dma_ex.c ****   {
ARM GAS  /tmp/ccdCpe1u.s 			page 10


 490:Drivers/STM32H7xx_HAL_Driver/Src/stm32h7xx_hal_dma_ex.c ****     /* Set the error code to busy */
 491:Drivers/STM32H7xx_HAL_Driver/Src/stm32h7xx_hal_dma_ex.c ****     hdma->ErrorCode = HAL_DMA_ERROR_PARAM;
 492:Drivers/STM32H7xx_HAL_Driver/Src/stm32h7xx_hal_dma_ex.c **** 
 493:Drivers/STM32H7xx_HAL_Driver/Src/stm32h7xx_hal_dma_ex.c ****     /* error status */
 494:Drivers/STM32H7xx_HAL_Driver/Src/stm32h7xx_hal_dma_ex.c ****     status = HAL_ERROR;
 495:Drivers/STM32H7xx_HAL_Driver/Src/stm32h7xx_hal_dma_ex.c ****   }
 496:Drivers/STM32H7xx_HAL_Driver/Src/stm32h7xx_hal_dma_ex.c ****   else if(((hdma->DMAmuxRequestGen->RGCR & DMAMUX_RGxCR_GE) == 0U) && (temp_state == HAL_DMA_STATE_
 497:Drivers/STM32H7xx_HAL_Driver/Src/stm32h7xx_hal_dma_ex.c ****   {
 498:Drivers/STM32H7xx_HAL_Driver/Src/stm32h7xx_hal_dma_ex.c ****     /* RequestGenerator must be disable prior to the configuration i.e GE bit is 0 */
 499:Drivers/STM32H7xx_HAL_Driver/Src/stm32h7xx_hal_dma_ex.c **** 
 500:Drivers/STM32H7xx_HAL_Driver/Src/stm32h7xx_hal_dma_ex.c ****     /* Process Locked */
 501:Drivers/STM32H7xx_HAL_Driver/Src/stm32h7xx_hal_dma_ex.c ****     __HAL_LOCK(hdma);
 502:Drivers/STM32H7xx_HAL_Driver/Src/stm32h7xx_hal_dma_ex.c **** 
 503:Drivers/STM32H7xx_HAL_Driver/Src/stm32h7xx_hal_dma_ex.c ****     /* Set the request generator new parameters */
 504:Drivers/STM32H7xx_HAL_Driver/Src/stm32h7xx_hal_dma_ex.c ****     hdma->DMAmuxRequestGen->RGCR = pRequestGeneratorConfig->SignalID | \
 505:Drivers/STM32H7xx_HAL_Driver/Src/stm32h7xx_hal_dma_ex.c ****                                   ((pRequestGeneratorConfig->RequestNumber - 1U) << DMAMUX_RGxCR_GN
 506:Drivers/STM32H7xx_HAL_Driver/Src/stm32h7xx_hal_dma_ex.c ****                                   pRequestGeneratorConfig->Polarity;
 507:Drivers/STM32H7xx_HAL_Driver/Src/stm32h7xx_hal_dma_ex.c ****     /* Process Locked */
 508:Drivers/STM32H7xx_HAL_Driver/Src/stm32h7xx_hal_dma_ex.c ****     __HAL_UNLOCK(hdma);
 509:Drivers/STM32H7xx_HAL_Driver/Src/stm32h7xx_hal_dma_ex.c **** 
 510:Drivers/STM32H7xx_HAL_Driver/Src/stm32h7xx_hal_dma_ex.c ****     return HAL_OK;
 511:Drivers/STM32H7xx_HAL_Driver/Src/stm32h7xx_hal_dma_ex.c ****   }
 512:Drivers/STM32H7xx_HAL_Driver/Src/stm32h7xx_hal_dma_ex.c ****   else
 513:Drivers/STM32H7xx_HAL_Driver/Src/stm32h7xx_hal_dma_ex.c ****   {
 514:Drivers/STM32H7xx_HAL_Driver/Src/stm32h7xx_hal_dma_ex.c ****     /* Set the error code to busy */
 515:Drivers/STM32H7xx_HAL_Driver/Src/stm32h7xx_hal_dma_ex.c ****     hdma->ErrorCode = HAL_DMA_ERROR_BUSY;
 516:Drivers/STM32H7xx_HAL_Driver/Src/stm32h7xx_hal_dma_ex.c **** 
 517:Drivers/STM32H7xx_HAL_Driver/Src/stm32h7xx_hal_dma_ex.c ****     /* error status */
 518:Drivers/STM32H7xx_HAL_Driver/Src/stm32h7xx_hal_dma_ex.c ****     status = HAL_ERROR;
 519:Drivers/STM32H7xx_HAL_Driver/Src/stm32h7xx_hal_dma_ex.c ****   }
 520:Drivers/STM32H7xx_HAL_Driver/Src/stm32h7xx_hal_dma_ex.c **** 
 521:Drivers/STM32H7xx_HAL_Driver/Src/stm32h7xx_hal_dma_ex.c ****   return status;
 522:Drivers/STM32H7xx_HAL_Driver/Src/stm32h7xx_hal_dma_ex.c **** }
 523:Drivers/STM32H7xx_HAL_Driver/Src/stm32h7xx_hal_dma_ex.c **** 
 524:Drivers/STM32H7xx_HAL_Driver/Src/stm32h7xx_hal_dma_ex.c **** /**
 525:Drivers/STM32H7xx_HAL_Driver/Src/stm32h7xx_hal_dma_ex.c ****   * @brief  Enable the DMAMUX request generator block used by the given DMA stream (instance).
 526:Drivers/STM32H7xx_HAL_Driver/Src/stm32h7xx_hal_dma_ex.c ****   * @param  hdma:       pointer to a DMA_HandleTypeDef structure that contains
 527:Drivers/STM32H7xx_HAL_Driver/Src/stm32h7xx_hal_dma_ex.c ****   *                     the configuration information for the specified DMA Stream.
 528:Drivers/STM32H7xx_HAL_Driver/Src/stm32h7xx_hal_dma_ex.c ****   * @retval HAL status
 529:Drivers/STM32H7xx_HAL_Driver/Src/stm32h7xx_hal_dma_ex.c ****   */
 530:Drivers/STM32H7xx_HAL_Driver/Src/stm32h7xx_hal_dma_ex.c **** HAL_StatusTypeDef HAL_DMAEx_EnableMuxRequestGenerator (DMA_HandleTypeDef *hdma)
 531:Drivers/STM32H7xx_HAL_Driver/Src/stm32h7xx_hal_dma_ex.c **** {
 532:Drivers/STM32H7xx_HAL_Driver/Src/stm32h7xx_hal_dma_ex.c ****   /* Check the parameters */
 533:Drivers/STM32H7xx_HAL_Driver/Src/stm32h7xx_hal_dma_ex.c ****   assert_param(IS_DMA_DMAMUX_ALL_INSTANCE(hdma->Instance));
 534:Drivers/STM32H7xx_HAL_Driver/Src/stm32h7xx_hal_dma_ex.c **** 
 535:Drivers/STM32H7xx_HAL_Driver/Src/stm32h7xx_hal_dma_ex.c ****   /* check if the DMA state is ready
 536:Drivers/STM32H7xx_HAL_Driver/Src/stm32h7xx_hal_dma_ex.c ****      and DMA is using a DMAMUX request generator block */
 537:Drivers/STM32H7xx_HAL_Driver/Src/stm32h7xx_hal_dma_ex.c ****   if((hdma->State != HAL_DMA_STATE_RESET) && (hdma->DMAmuxRequestGen != 0U))
 538:Drivers/STM32H7xx_HAL_Driver/Src/stm32h7xx_hal_dma_ex.c ****   {
 539:Drivers/STM32H7xx_HAL_Driver/Src/stm32h7xx_hal_dma_ex.c ****     /* Enable the request generator*/
 540:Drivers/STM32H7xx_HAL_Driver/Src/stm32h7xx_hal_dma_ex.c ****     hdma->DMAmuxRequestGen->RGCR |= DMAMUX_RGxCR_GE;
 541:Drivers/STM32H7xx_HAL_Driver/Src/stm32h7xx_hal_dma_ex.c **** 
 542:Drivers/STM32H7xx_HAL_Driver/Src/stm32h7xx_hal_dma_ex.c ****    return HAL_OK;
 543:Drivers/STM32H7xx_HAL_Driver/Src/stm32h7xx_hal_dma_ex.c ****  }
 544:Drivers/STM32H7xx_HAL_Driver/Src/stm32h7xx_hal_dma_ex.c ****  else
 545:Drivers/STM32H7xx_HAL_Driver/Src/stm32h7xx_hal_dma_ex.c ****  {
 546:Drivers/STM32H7xx_HAL_Driver/Src/stm32h7xx_hal_dma_ex.c ****    return HAL_ERROR;
ARM GAS  /tmp/ccdCpe1u.s 			page 11


 547:Drivers/STM32H7xx_HAL_Driver/Src/stm32h7xx_hal_dma_ex.c ****  }
 548:Drivers/STM32H7xx_HAL_Driver/Src/stm32h7xx_hal_dma_ex.c **** }
 549:Drivers/STM32H7xx_HAL_Driver/Src/stm32h7xx_hal_dma_ex.c **** 
 550:Drivers/STM32H7xx_HAL_Driver/Src/stm32h7xx_hal_dma_ex.c **** /**
 551:Drivers/STM32H7xx_HAL_Driver/Src/stm32h7xx_hal_dma_ex.c ****   * @brief  Disable the DMAMUX request generator block used by the given DMA stream (instance).
 552:Drivers/STM32H7xx_HAL_Driver/Src/stm32h7xx_hal_dma_ex.c ****   * @param  hdma:       pointer to a DMA_HandleTypeDef structure that contains
 553:Drivers/STM32H7xx_HAL_Driver/Src/stm32h7xx_hal_dma_ex.c ****   *                     the configuration information for the specified DMA Stream.
 554:Drivers/STM32H7xx_HAL_Driver/Src/stm32h7xx_hal_dma_ex.c ****   * @retval HAL status
 555:Drivers/STM32H7xx_HAL_Driver/Src/stm32h7xx_hal_dma_ex.c ****   */
 556:Drivers/STM32H7xx_HAL_Driver/Src/stm32h7xx_hal_dma_ex.c **** HAL_StatusTypeDef HAL_DMAEx_DisableMuxRequestGenerator (DMA_HandleTypeDef *hdma)
 557:Drivers/STM32H7xx_HAL_Driver/Src/stm32h7xx_hal_dma_ex.c **** {
 558:Drivers/STM32H7xx_HAL_Driver/Src/stm32h7xx_hal_dma_ex.c ****   /* Check the parameters */
 559:Drivers/STM32H7xx_HAL_Driver/Src/stm32h7xx_hal_dma_ex.c ****   assert_param(IS_DMA_DMAMUX_ALL_INSTANCE(hdma->Instance));
 560:Drivers/STM32H7xx_HAL_Driver/Src/stm32h7xx_hal_dma_ex.c **** 
 561:Drivers/STM32H7xx_HAL_Driver/Src/stm32h7xx_hal_dma_ex.c ****   /* check if the DMA state is ready
 562:Drivers/STM32H7xx_HAL_Driver/Src/stm32h7xx_hal_dma_ex.c ****      and DMA is using a DMAMUX request generator block */
 563:Drivers/STM32H7xx_HAL_Driver/Src/stm32h7xx_hal_dma_ex.c ****   if((hdma->State != HAL_DMA_STATE_RESET) && (hdma->DMAmuxRequestGen != 0U))
 564:Drivers/STM32H7xx_HAL_Driver/Src/stm32h7xx_hal_dma_ex.c ****   {
 565:Drivers/STM32H7xx_HAL_Driver/Src/stm32h7xx_hal_dma_ex.c ****     /* Disable the request generator*/
 566:Drivers/STM32H7xx_HAL_Driver/Src/stm32h7xx_hal_dma_ex.c ****     hdma->DMAmuxRequestGen->RGCR &= ~DMAMUX_RGxCR_GE;
 567:Drivers/STM32H7xx_HAL_Driver/Src/stm32h7xx_hal_dma_ex.c **** 
 568:Drivers/STM32H7xx_HAL_Driver/Src/stm32h7xx_hal_dma_ex.c ****    return HAL_OK;
 569:Drivers/STM32H7xx_HAL_Driver/Src/stm32h7xx_hal_dma_ex.c ****  }
 570:Drivers/STM32H7xx_HAL_Driver/Src/stm32h7xx_hal_dma_ex.c ****  else
 571:Drivers/STM32H7xx_HAL_Driver/Src/stm32h7xx_hal_dma_ex.c ****  {
 572:Drivers/STM32H7xx_HAL_Driver/Src/stm32h7xx_hal_dma_ex.c ****    return HAL_ERROR;
 573:Drivers/STM32H7xx_HAL_Driver/Src/stm32h7xx_hal_dma_ex.c ****  }
 574:Drivers/STM32H7xx_HAL_Driver/Src/stm32h7xx_hal_dma_ex.c **** }
 575:Drivers/STM32H7xx_HAL_Driver/Src/stm32h7xx_hal_dma_ex.c **** 
 576:Drivers/STM32H7xx_HAL_Driver/Src/stm32h7xx_hal_dma_ex.c **** /**
 577:Drivers/STM32H7xx_HAL_Driver/Src/stm32h7xx_hal_dma_ex.c ****   * @brief  Handles DMAMUX interrupt request.
 578:Drivers/STM32H7xx_HAL_Driver/Src/stm32h7xx_hal_dma_ex.c ****   * @param  hdma: pointer to a DMA_HandleTypeDef structure that contains
 579:Drivers/STM32H7xx_HAL_Driver/Src/stm32h7xx_hal_dma_ex.c ****   *               the configuration information for the specified DMA Stream.
 580:Drivers/STM32H7xx_HAL_Driver/Src/stm32h7xx_hal_dma_ex.c ****   * @retval None
 581:Drivers/STM32H7xx_HAL_Driver/Src/stm32h7xx_hal_dma_ex.c ****   */
 582:Drivers/STM32H7xx_HAL_Driver/Src/stm32h7xx_hal_dma_ex.c **** void HAL_DMAEx_MUX_IRQHandler(DMA_HandleTypeDef *hdma)
 583:Drivers/STM32H7xx_HAL_Driver/Src/stm32h7xx_hal_dma_ex.c **** {
 584:Drivers/STM32H7xx_HAL_Driver/Src/stm32h7xx_hal_dma_ex.c ****   /* Check for DMAMUX Synchronization overrun */
 585:Drivers/STM32H7xx_HAL_Driver/Src/stm32h7xx_hal_dma_ex.c ****   if((hdma->DMAmuxChannelStatus->CSR & hdma->DMAmuxChannelStatusMask) != 0U)
 586:Drivers/STM32H7xx_HAL_Driver/Src/stm32h7xx_hal_dma_ex.c ****   {
 587:Drivers/STM32H7xx_HAL_Driver/Src/stm32h7xx_hal_dma_ex.c ****     /* Disable the synchro overrun interrupt */
 588:Drivers/STM32H7xx_HAL_Driver/Src/stm32h7xx_hal_dma_ex.c ****     hdma->DMAmuxChannel->CCR &= ~DMAMUX_CxCR_SOIE;
 589:Drivers/STM32H7xx_HAL_Driver/Src/stm32h7xx_hal_dma_ex.c **** 
 590:Drivers/STM32H7xx_HAL_Driver/Src/stm32h7xx_hal_dma_ex.c ****     /* Clear the DMAMUX synchro overrun flag */
 591:Drivers/STM32H7xx_HAL_Driver/Src/stm32h7xx_hal_dma_ex.c ****     hdma->DMAmuxChannelStatus->CFR = hdma->DMAmuxChannelStatusMask;
 592:Drivers/STM32H7xx_HAL_Driver/Src/stm32h7xx_hal_dma_ex.c **** 
 593:Drivers/STM32H7xx_HAL_Driver/Src/stm32h7xx_hal_dma_ex.c ****     /* Update error code */
 594:Drivers/STM32H7xx_HAL_Driver/Src/stm32h7xx_hal_dma_ex.c ****     hdma->ErrorCode |= HAL_DMA_ERROR_SYNC;
 595:Drivers/STM32H7xx_HAL_Driver/Src/stm32h7xx_hal_dma_ex.c **** 
 596:Drivers/STM32H7xx_HAL_Driver/Src/stm32h7xx_hal_dma_ex.c ****     if(hdma->XferErrorCallback != NULL)
 597:Drivers/STM32H7xx_HAL_Driver/Src/stm32h7xx_hal_dma_ex.c ****     {
 598:Drivers/STM32H7xx_HAL_Driver/Src/stm32h7xx_hal_dma_ex.c ****       /* Transfer error callback */
 599:Drivers/STM32H7xx_HAL_Driver/Src/stm32h7xx_hal_dma_ex.c ****       hdma->XferErrorCallback(hdma);
 600:Drivers/STM32H7xx_HAL_Driver/Src/stm32h7xx_hal_dma_ex.c ****     }
 601:Drivers/STM32H7xx_HAL_Driver/Src/stm32h7xx_hal_dma_ex.c ****   }
 602:Drivers/STM32H7xx_HAL_Driver/Src/stm32h7xx_hal_dma_ex.c **** 
 603:Drivers/STM32H7xx_HAL_Driver/Src/stm32h7xx_hal_dma_ex.c ****   if(hdma->DMAmuxRequestGen != 0)
ARM GAS  /tmp/ccdCpe1u.s 			page 12


 604:Drivers/STM32H7xx_HAL_Driver/Src/stm32h7xx_hal_dma_ex.c ****   {
 605:Drivers/STM32H7xx_HAL_Driver/Src/stm32h7xx_hal_dma_ex.c ****    /* if using a DMAMUX request generator block Check for DMAMUX request generator overrun */
 606:Drivers/STM32H7xx_HAL_Driver/Src/stm32h7xx_hal_dma_ex.c ****     if((hdma->DMAmuxRequestGenStatus->RGSR & hdma->DMAmuxRequestGenStatusMask) != 0U)
 607:Drivers/STM32H7xx_HAL_Driver/Src/stm32h7xx_hal_dma_ex.c ****     {
 608:Drivers/STM32H7xx_HAL_Driver/Src/stm32h7xx_hal_dma_ex.c ****       /* Disable the request gen overrun interrupt */
 609:Drivers/STM32H7xx_HAL_Driver/Src/stm32h7xx_hal_dma_ex.c ****       hdma->DMAmuxRequestGen->RGCR &= ~DMAMUX_RGxCR_OIE;
 610:Drivers/STM32H7xx_HAL_Driver/Src/stm32h7xx_hal_dma_ex.c **** 
 611:Drivers/STM32H7xx_HAL_Driver/Src/stm32h7xx_hal_dma_ex.c ****       /* Clear the DMAMUX request generator overrun flag */
 612:Drivers/STM32H7xx_HAL_Driver/Src/stm32h7xx_hal_dma_ex.c ****       hdma->DMAmuxRequestGenStatus->RGCFR = hdma->DMAmuxRequestGenStatusMask;
 613:Drivers/STM32H7xx_HAL_Driver/Src/stm32h7xx_hal_dma_ex.c **** 
 614:Drivers/STM32H7xx_HAL_Driver/Src/stm32h7xx_hal_dma_ex.c ****       /* Update error code */
 615:Drivers/STM32H7xx_HAL_Driver/Src/stm32h7xx_hal_dma_ex.c ****       hdma->ErrorCode |= HAL_DMA_ERROR_REQGEN;
 616:Drivers/STM32H7xx_HAL_Driver/Src/stm32h7xx_hal_dma_ex.c **** 
 617:Drivers/STM32H7xx_HAL_Driver/Src/stm32h7xx_hal_dma_ex.c ****       if(hdma->XferErrorCallback != NULL)
 618:Drivers/STM32H7xx_HAL_Driver/Src/stm32h7xx_hal_dma_ex.c ****       {
 619:Drivers/STM32H7xx_HAL_Driver/Src/stm32h7xx_hal_dma_ex.c ****         /* Transfer error callback */
 620:Drivers/STM32H7xx_HAL_Driver/Src/stm32h7xx_hal_dma_ex.c ****         hdma->XferErrorCallback(hdma);
 621:Drivers/STM32H7xx_HAL_Driver/Src/stm32h7xx_hal_dma_ex.c ****       }
 622:Drivers/STM32H7xx_HAL_Driver/Src/stm32h7xx_hal_dma_ex.c ****     }
 623:Drivers/STM32H7xx_HAL_Driver/Src/stm32h7xx_hal_dma_ex.c ****   }
 624:Drivers/STM32H7xx_HAL_Driver/Src/stm32h7xx_hal_dma_ex.c **** }
 625:Drivers/STM32H7xx_HAL_Driver/Src/stm32h7xx_hal_dma_ex.c **** 
 626:Drivers/STM32H7xx_HAL_Driver/Src/stm32h7xx_hal_dma_ex.c **** 
 627:Drivers/STM32H7xx_HAL_Driver/Src/stm32h7xx_hal_dma_ex.c **** /**
 628:Drivers/STM32H7xx_HAL_Driver/Src/stm32h7xx_hal_dma_ex.c ****   * @}
 629:Drivers/STM32H7xx_HAL_Driver/Src/stm32h7xx_hal_dma_ex.c ****   */
 630:Drivers/STM32H7xx_HAL_Driver/Src/stm32h7xx_hal_dma_ex.c **** 
 631:Drivers/STM32H7xx_HAL_Driver/Src/stm32h7xx_hal_dma_ex.c **** /**
 632:Drivers/STM32H7xx_HAL_Driver/Src/stm32h7xx_hal_dma_ex.c ****   * @}
 633:Drivers/STM32H7xx_HAL_Driver/Src/stm32h7xx_hal_dma_ex.c ****   */
 634:Drivers/STM32H7xx_HAL_Driver/Src/stm32h7xx_hal_dma_ex.c **** 
 635:Drivers/STM32H7xx_HAL_Driver/Src/stm32h7xx_hal_dma_ex.c **** /** @addtogroup DMAEx_Private_Functions
 636:Drivers/STM32H7xx_HAL_Driver/Src/stm32h7xx_hal_dma_ex.c ****   * @{
 637:Drivers/STM32H7xx_HAL_Driver/Src/stm32h7xx_hal_dma_ex.c ****   */
 638:Drivers/STM32H7xx_HAL_Driver/Src/stm32h7xx_hal_dma_ex.c **** 
 639:Drivers/STM32H7xx_HAL_Driver/Src/stm32h7xx_hal_dma_ex.c **** /**
 640:Drivers/STM32H7xx_HAL_Driver/Src/stm32h7xx_hal_dma_ex.c ****   * @brief  Set the DMA Transfer parameter.
 641:Drivers/STM32H7xx_HAL_Driver/Src/stm32h7xx_hal_dma_ex.c ****   * @param  hdma:       pointer to a DMA_HandleTypeDef structure that contains
 642:Drivers/STM32H7xx_HAL_Driver/Src/stm32h7xx_hal_dma_ex.c ****   *                     the configuration information for the specified DMA Stream.
 643:Drivers/STM32H7xx_HAL_Driver/Src/stm32h7xx_hal_dma_ex.c ****   * @param  SrcAddress: The source memory Buffer address
 644:Drivers/STM32H7xx_HAL_Driver/Src/stm32h7xx_hal_dma_ex.c ****   * @param  DstAddress: The destination memory Buffer address
 645:Drivers/STM32H7xx_HAL_Driver/Src/stm32h7xx_hal_dma_ex.c ****   * @param  DataLength: The length of data to be transferred from source to destination
 646:Drivers/STM32H7xx_HAL_Driver/Src/stm32h7xx_hal_dma_ex.c ****   * @retval HAL status
 647:Drivers/STM32H7xx_HAL_Driver/Src/stm32h7xx_hal_dma_ex.c ****   */
 648:Drivers/STM32H7xx_HAL_Driver/Src/stm32h7xx_hal_dma_ex.c **** static void DMA_MultiBufferSetConfig(DMA_HandleTypeDef *hdma, uint32_t SrcAddress, uint32_t DstAddr
 649:Drivers/STM32H7xx_HAL_Driver/Src/stm32h7xx_hal_dma_ex.c **** {
  26              		.loc 1 649 0
  27              		.cfi_startproc
  28              		@ args = 0, pretend = 0, frame = 0
  29              		@ frame_needed = 0, uses_anonymous_args = 0
  30              		@ link register save eliminated.
  31              	.LVL0:
  32 0000 70B4     		push	{r4, r5, r6}
  33              	.LCFI0:
  34              		.cfi_def_cfa_offset 12
  35              		.cfi_offset 4, -12
  36              		.cfi_offset 5, -8
ARM GAS  /tmp/ccdCpe1u.s 			page 13


  37              		.cfi_offset 6, -4
 650:Drivers/STM32H7xx_HAL_Driver/Src/stm32h7xx_hal_dma_ex.c ****   if(IS_DMA_STREAM_INSTANCE(hdma->Instance) != 0U) /* DMA1 or DMA2 instance */
  38              		.loc 1 650 0
  39 0002 0468     		ldr	r4, [r0]
  40 0004 264E     		ldr	r6, .L11
  41 0006 274D     		ldr	r5, .L11+4
  42 0008 AC42     		cmp	r4, r5
  43 000a 18BF     		it	ne
  44 000c B442     		cmpne	r4, r6
  45 000e 33D0     		beq	.L2
  46              		.loc 1 650 0 is_stmt 0 discriminator 2
  47 0010 1835     		adds	r5, r5, #24
  48 0012 AC42     		cmp	r4, r5
  49 0014 30D0     		beq	.L2
  50              		.loc 1 650 0 discriminator 4
  51 0016 1835     		adds	r5, r5, #24
  52 0018 AC42     		cmp	r4, r5
  53 001a 2DD0     		beq	.L2
  54              		.loc 1 650 0 discriminator 6
  55 001c 1835     		adds	r5, r5, #24
  56 001e AC42     		cmp	r4, r5
  57 0020 2AD0     		beq	.L2
  58              		.loc 1 650 0 discriminator 8
  59 0022 1835     		adds	r5, r5, #24
  60 0024 AC42     		cmp	r4, r5
  61 0026 27D0     		beq	.L2
  62              		.loc 1 650 0 discriminator 10
  63 0028 1835     		adds	r5, r5, #24
  64 002a AC42     		cmp	r4, r5
  65 002c 24D0     		beq	.L2
  66              		.loc 1 650 0 discriminator 12
  67 002e 1835     		adds	r5, r5, #24
  68 0030 AC42     		cmp	r4, r5
  69 0032 21D0     		beq	.L2
  70              		.loc 1 650 0 discriminator 14
  71 0034 05F55675 		add	r5, r5, #856
  72 0038 AC42     		cmp	r4, r5
  73 003a 1DD0     		beq	.L2
  74              		.loc 1 650 0 discriminator 16
  75 003c 1835     		adds	r5, r5, #24
  76 003e AC42     		cmp	r4, r5
  77 0040 1AD0     		beq	.L2
  78              		.loc 1 650 0 discriminator 18
  79 0042 1835     		adds	r5, r5, #24
  80 0044 AC42     		cmp	r4, r5
  81 0046 17D0     		beq	.L2
  82              		.loc 1 650 0 discriminator 20
  83 0048 1835     		adds	r5, r5, #24
  84 004a AC42     		cmp	r4, r5
  85 004c 14D0     		beq	.L2
  86              		.loc 1 650 0 discriminator 22
  87 004e 1835     		adds	r5, r5, #24
  88 0050 AC42     		cmp	r4, r5
  89 0052 11D0     		beq	.L2
  90              		.loc 1 650 0 discriminator 24
  91 0054 1835     		adds	r5, r5, #24
  92 0056 AC42     		cmp	r4, r5
ARM GAS  /tmp/ccdCpe1u.s 			page 14


  93 0058 0ED0     		beq	.L2
  94              		.loc 1 650 0 discriminator 26
  95 005a 1835     		adds	r5, r5, #24
  96 005c AC42     		cmp	r4, r5
  97 005e 0BD0     		beq	.L2
  98              		.loc 1 650 0 discriminator 28
  99 0060 1835     		adds	r5, r5, #24
 100 0062 AC42     		cmp	r4, r5
 101 0064 08D0     		beq	.L2
 651:Drivers/STM32H7xx_HAL_Driver/Src/stm32h7xx_hal_dma_ex.c ****   {
 652:Drivers/STM32H7xx_HAL_Driver/Src/stm32h7xx_hal_dma_ex.c ****     /* Configure DMA Stream data length */
 653:Drivers/STM32H7xx_HAL_Driver/Src/stm32h7xx_hal_dma_ex.c ****     ((DMA_Stream_TypeDef   *)hdma->Instance)->NDTR = DataLength;
 654:Drivers/STM32H7xx_HAL_Driver/Src/stm32h7xx_hal_dma_ex.c **** 
 655:Drivers/STM32H7xx_HAL_Driver/Src/stm32h7xx_hal_dma_ex.c ****     /* Peripheral to Memory */
 656:Drivers/STM32H7xx_HAL_Driver/Src/stm32h7xx_hal_dma_ex.c ****     if((hdma->Init.Direction) == DMA_MEMORY_TO_PERIPH)
 657:Drivers/STM32H7xx_HAL_Driver/Src/stm32h7xx_hal_dma_ex.c ****     {
 658:Drivers/STM32H7xx_HAL_Driver/Src/stm32h7xx_hal_dma_ex.c ****       /* Configure DMA Stream destination address */
 659:Drivers/STM32H7xx_HAL_Driver/Src/stm32h7xx_hal_dma_ex.c ****       ((DMA_Stream_TypeDef   *)hdma->Instance)->PAR = DstAddress;
 660:Drivers/STM32H7xx_HAL_Driver/Src/stm32h7xx_hal_dma_ex.c **** 
 661:Drivers/STM32H7xx_HAL_Driver/Src/stm32h7xx_hal_dma_ex.c ****       /* Configure DMA Stream source address */
 662:Drivers/STM32H7xx_HAL_Driver/Src/stm32h7xx_hal_dma_ex.c ****       ((DMA_Stream_TypeDef   *)hdma->Instance)->M0AR = SrcAddress;
 663:Drivers/STM32H7xx_HAL_Driver/Src/stm32h7xx_hal_dma_ex.c ****     }
 664:Drivers/STM32H7xx_HAL_Driver/Src/stm32h7xx_hal_dma_ex.c ****     /* Memory to Peripheral */
 665:Drivers/STM32H7xx_HAL_Driver/Src/stm32h7xx_hal_dma_ex.c ****     else
 666:Drivers/STM32H7xx_HAL_Driver/Src/stm32h7xx_hal_dma_ex.c ****     {
 667:Drivers/STM32H7xx_HAL_Driver/Src/stm32h7xx_hal_dma_ex.c ****       /* Configure DMA Stream source address */
 668:Drivers/STM32H7xx_HAL_Driver/Src/stm32h7xx_hal_dma_ex.c ****       ((DMA_Stream_TypeDef   *)hdma->Instance)->PAR = SrcAddress;
 669:Drivers/STM32H7xx_HAL_Driver/Src/stm32h7xx_hal_dma_ex.c **** 
 670:Drivers/STM32H7xx_HAL_Driver/Src/stm32h7xx_hal_dma_ex.c ****       /* Configure DMA Stream destination address */
 671:Drivers/STM32H7xx_HAL_Driver/Src/stm32h7xx_hal_dma_ex.c ****       ((DMA_Stream_TypeDef   *)hdma->Instance)->M0AR = DstAddress;
 672:Drivers/STM32H7xx_HAL_Driver/Src/stm32h7xx_hal_dma_ex.c ****     }
 673:Drivers/STM32H7xx_HAL_Driver/Src/stm32h7xx_hal_dma_ex.c ****   }
 674:Drivers/STM32H7xx_HAL_Driver/Src/stm32h7xx_hal_dma_ex.c ****   else /* BDMA instance(s) */
 675:Drivers/STM32H7xx_HAL_Driver/Src/stm32h7xx_hal_dma_ex.c ****   {
 676:Drivers/STM32H7xx_HAL_Driver/Src/stm32h7xx_hal_dma_ex.c ****     /* Configure DMA Stream data length */
 677:Drivers/STM32H7xx_HAL_Driver/Src/stm32h7xx_hal_dma_ex.c ****     ((BDMA_Channel_TypeDef   *)hdma->Instance)->CNDTR = DataLength;
 102              		.loc 1 677 0 is_stmt 1
 103 0066 6360     		str	r3, [r4, #4]
 678:Drivers/STM32H7xx_HAL_Driver/Src/stm32h7xx_hal_dma_ex.c **** 
 679:Drivers/STM32H7xx_HAL_Driver/Src/stm32h7xx_hal_dma_ex.c ****     /* Peripheral to Memory */
 680:Drivers/STM32H7xx_HAL_Driver/Src/stm32h7xx_hal_dma_ex.c ****     if((hdma->Init.Direction) == DMA_MEMORY_TO_PERIPH)
 104              		.loc 1 680 0
 105 0068 8368     		ldr	r3, [r0, #8]
 106              	.LVL1:
 107 006a 402B     		cmp	r3, #64
 108 006c 13D0     		beq	.L9
 681:Drivers/STM32H7xx_HAL_Driver/Src/stm32h7xx_hal_dma_ex.c ****     {
 682:Drivers/STM32H7xx_HAL_Driver/Src/stm32h7xx_hal_dma_ex.c ****       /* Configure DMA Stream destination address */
 683:Drivers/STM32H7xx_HAL_Driver/Src/stm32h7xx_hal_dma_ex.c ****       ((BDMA_Channel_TypeDef   *)hdma->Instance)->CPAR = DstAddress;
 684:Drivers/STM32H7xx_HAL_Driver/Src/stm32h7xx_hal_dma_ex.c **** 
 685:Drivers/STM32H7xx_HAL_Driver/Src/stm32h7xx_hal_dma_ex.c ****       /* Configure DMA Stream source address */
 686:Drivers/STM32H7xx_HAL_Driver/Src/stm32h7xx_hal_dma_ex.c ****       ((BDMA_Channel_TypeDef   *)hdma->Instance)->CM0AR = SrcAddress;
 687:Drivers/STM32H7xx_HAL_Driver/Src/stm32h7xx_hal_dma_ex.c ****     }
 688:Drivers/STM32H7xx_HAL_Driver/Src/stm32h7xx_hal_dma_ex.c ****     /* Memory to Peripheral */
 689:Drivers/STM32H7xx_HAL_Driver/Src/stm32h7xx_hal_dma_ex.c ****     else
 690:Drivers/STM32H7xx_HAL_Driver/Src/stm32h7xx_hal_dma_ex.c ****     {
 691:Drivers/STM32H7xx_HAL_Driver/Src/stm32h7xx_hal_dma_ex.c ****       /* Configure DMA Stream source address */
ARM GAS  /tmp/ccdCpe1u.s 			page 15


 692:Drivers/STM32H7xx_HAL_Driver/Src/stm32h7xx_hal_dma_ex.c ****       ((BDMA_Channel_TypeDef   *)hdma->Instance)->CPAR = SrcAddress;
 109              		.loc 1 692 0
 110 006e 0368     		ldr	r3, [r0]
 111 0070 9960     		str	r1, [r3, #8]
 112              	.LVL2:
 693:Drivers/STM32H7xx_HAL_Driver/Src/stm32h7xx_hal_dma_ex.c **** 
 694:Drivers/STM32H7xx_HAL_Driver/Src/stm32h7xx_hal_dma_ex.c ****       /* Configure DMA Stream destination address */
 695:Drivers/STM32H7xx_HAL_Driver/Src/stm32h7xx_hal_dma_ex.c ****       ((BDMA_Channel_TypeDef   *)hdma->Instance)->CM0AR = DstAddress;
 113              		.loc 1 695 0
 114 0072 0368     		ldr	r3, [r0]
 115 0074 DA60     		str	r2, [r3, #12]
 696:Drivers/STM32H7xx_HAL_Driver/Src/stm32h7xx_hal_dma_ex.c ****     }
 697:Drivers/STM32H7xx_HAL_Driver/Src/stm32h7xx_hal_dma_ex.c ****   }
 698:Drivers/STM32H7xx_HAL_Driver/Src/stm32h7xx_hal_dma_ex.c **** }
 116              		.loc 1 698 0
 117 0076 07E0     		b	.L1
 118              	.LVL3:
 119              	.L2:
 653:Drivers/STM32H7xx_HAL_Driver/Src/stm32h7xx_hal_dma_ex.c **** 
 120              		.loc 1 653 0
 121 0078 6360     		str	r3, [r4, #4]
 656:Drivers/STM32H7xx_HAL_Driver/Src/stm32h7xx_hal_dma_ex.c ****     {
 122              		.loc 1 656 0
 123 007a 8368     		ldr	r3, [r0, #8]
 124              	.LVL4:
 125 007c 402B     		cmp	r3, #64
 126 007e 05D0     		beq	.L10
 668:Drivers/STM32H7xx_HAL_Driver/Src/stm32h7xx_hal_dma_ex.c **** 
 127              		.loc 1 668 0
 128 0080 0368     		ldr	r3, [r0]
 129 0082 9960     		str	r1, [r3, #8]
 130              	.LVL5:
 671:Drivers/STM32H7xx_HAL_Driver/Src/stm32h7xx_hal_dma_ex.c ****     }
 131              		.loc 1 671 0
 132 0084 0368     		ldr	r3, [r0]
 133 0086 DA60     		str	r2, [r3, #12]
 134              	.L1:
 135              		.loc 1 698 0
 136 0088 70BC     		pop	{r4, r5, r6}
 137              	.LCFI1:
 138              		.cfi_remember_state
 139              		.cfi_restore 6
 140              		.cfi_restore 5
 141              		.cfi_restore 4
 142              		.cfi_def_cfa_offset 0
 143 008a 7047     		bx	lr
 144              	.LVL6:
 145              	.L10:
 146              	.LCFI2:
 147              		.cfi_restore_state
 659:Drivers/STM32H7xx_HAL_Driver/Src/stm32h7xx_hal_dma_ex.c **** 
 148              		.loc 1 659 0
 149 008c 0368     		ldr	r3, [r0]
 150 008e 9A60     		str	r2, [r3, #8]
 151              	.LVL7:
 662:Drivers/STM32H7xx_HAL_Driver/Src/stm32h7xx_hal_dma_ex.c ****     }
 152              		.loc 1 662 0
ARM GAS  /tmp/ccdCpe1u.s 			page 16


 153 0090 0368     		ldr	r3, [r0]
 154 0092 D960     		str	r1, [r3, #12]
 155 0094 F8E7     		b	.L1
 156              	.LVL8:
 157              	.L9:
 683:Drivers/STM32H7xx_HAL_Driver/Src/stm32h7xx_hal_dma_ex.c **** 
 158              		.loc 1 683 0
 159 0096 0368     		ldr	r3, [r0]
 160 0098 9A60     		str	r2, [r3, #8]
 161              	.LVL9:
 686:Drivers/STM32H7xx_HAL_Driver/Src/stm32h7xx_hal_dma_ex.c ****     }
 162              		.loc 1 686 0
 163 009a 0368     		ldr	r3, [r0]
 164 009c D960     		str	r1, [r3, #12]
 165 009e F3E7     		b	.L1
 166              	.L12:
 167              		.align	2
 168              	.L11:
 169 00a0 10000240 		.word	1073872912
 170 00a4 28000240 		.word	1073872936
 171              		.cfi_endproc
 172              	.LFE152:
 174              		.section	.text.HAL_DMAEx_MultiBufferStart,"ax",%progbits
 175              		.align	1
 176              		.global	HAL_DMAEx_MultiBufferStart
 177              		.syntax unified
 178              		.thumb
 179              		.thumb_func
 180              		.fpu fpv5-d16
 182              	HAL_DMAEx_MultiBufferStart:
 183              	.LFB144:
 121:Drivers/STM32H7xx_HAL_Driver/Src/stm32h7xx_hal_dma_ex.c ****   HAL_StatusTypeDef status = HAL_OK;
 184              		.loc 1 121 0
 185              		.cfi_startproc
 186              		@ args = 4, pretend = 0, frame = 0
 187              		@ frame_needed = 0, uses_anonymous_args = 0
 188              	.LVL10:
 189 0000 70B5     		push	{r4, r5, r6, lr}
 190              	.LCFI3:
 191              		.cfi_def_cfa_offset 16
 192              		.cfi_offset 4, -16
 193              		.cfi_offset 5, -12
 194              		.cfi_offset 6, -8
 195              		.cfi_offset 14, -4
 196              	.LVL11:
 130:Drivers/STM32H7xx_HAL_Driver/Src/stm32h7xx_hal_dma_ex.c ****   {
 197              		.loc 1 130 0
 198 0002 8468     		ldr	r4, [r0, #8]
 199 0004 802C     		cmp	r4, #128
 200 0006 11D0     		beq	.L25
 138:Drivers/STM32H7xx_HAL_Driver/Src/stm32h7xx_hal_dma_ex.c **** 
 201              		.loc 1 138 0
 202 0008 90F83440 		ldrb	r4, [r0, #52]	@ zero_extendqisi2
 203 000c 012C     		cmp	r4, #1
 204 000e 00F0FA80 		beq	.L23
 138:Drivers/STM32H7xx_HAL_Driver/Src/stm32h7xx_hal_dma_ex.c **** 
 205              		.loc 1 138 0 is_stmt 0 discriminator 2
ARM GAS  /tmp/ccdCpe1u.s 			page 17


 206 0012 0124     		movs	r4, #1
 207 0014 80F83440 		strb	r4, [r0, #52]
 140:Drivers/STM32H7xx_HAL_Driver/Src/stm32h7xx_hal_dma_ex.c ****     {
 208              		.loc 1 140 0 is_stmt 1 discriminator 2
 209 0018 90F83540 		ldrb	r4, [r0, #53]	@ zero_extendqisi2
 210 001c E4B2     		uxtb	r4, r4
 211 001e 012C     		cmp	r4, #1
 212 0020 09D0     		beq	.L26
 198:Drivers/STM32H7xx_HAL_Driver/Src/stm32h7xx_hal_dma_ex.c **** 
 213              		.loc 1 198 0
 214 0022 4FF40063 		mov	r3, #2048
 215              	.LVL12:
 216 0026 4365     		str	r3, [r0, #84]
 217              	.LVL13:
 201:Drivers/STM32H7xx_HAL_Driver/Src/stm32h7xx_hal_dma_ex.c ****     }
 218              		.loc 1 201 0
 219 0028 0120     		movs	r0, #1
 220              	.LVL14:
 221              	.L15:
 205:Drivers/STM32H7xx_HAL_Driver/Src/stm32h7xx_hal_dma_ex.c **** 
 222              		.loc 1 205 0
 223 002a 70BD     		pop	{r4, r5, r6, pc}
 224              	.LVL15:
 225              	.L25:
 132:Drivers/STM32H7xx_HAL_Driver/Src/stm32h7xx_hal_dma_ex.c ****     status = HAL_ERROR;
 226              		.loc 1 132 0
 227 002c 4FF48073 		mov	r3, #256
 228              	.LVL16:
 229 0030 4365     		str	r3, [r0, #84]
 230              	.LVL17:
 133:Drivers/STM32H7xx_HAL_Driver/Src/stm32h7xx_hal_dma_ex.c ****   }
 231              		.loc 1 133 0
 232 0032 0120     		movs	r0, #1
 233              	.LVL18:
 234 0034 F9E7     		b	.L15
 235              	.LVL19:
 236              	.L26:
 143:Drivers/STM32H7xx_HAL_Driver/Src/stm32h7xx_hal_dma_ex.c **** 
 237              		.loc 1 143 0
 238 0036 0224     		movs	r4, #2
 239 0038 80F83540 		strb	r4, [r0, #53]
 146:Drivers/STM32H7xx_HAL_Driver/Src/stm32h7xx_hal_dma_ex.c **** 
 240              		.loc 1 146 0
 241 003c 0024     		movs	r4, #0
 242 003e 4465     		str	r4, [r0, #84]
 148:Drivers/STM32H7xx_HAL_Driver/Src/stm32h7xx_hal_dma_ex.c ****       {
 243              		.loc 1 148 0
 244 0040 0468     		ldr	r4, [r0]
 245 0042 724E     		ldr	r6, .L27
 246 0044 724D     		ldr	r5, .L27+4
 247 0046 AC42     		cmp	r4, r5
 248 0048 18BF     		it	ne
 249 004a B442     		cmpne	r4, r6
 250 004c 39D0     		beq	.L17
 148:Drivers/STM32H7xx_HAL_Driver/Src/stm32h7xx_hal_dma_ex.c ****       {
 251              		.loc 1 148 0 is_stmt 0 discriminator 2
 252 004e 1835     		adds	r5, r5, #24
ARM GAS  /tmp/ccdCpe1u.s 			page 18


 253 0050 AC42     		cmp	r4, r5
 254 0052 36D0     		beq	.L17
 148:Drivers/STM32H7xx_HAL_Driver/Src/stm32h7xx_hal_dma_ex.c ****       {
 255              		.loc 1 148 0 discriminator 4
 256 0054 1835     		adds	r5, r5, #24
 257 0056 AC42     		cmp	r4, r5
 258 0058 33D0     		beq	.L17
 148:Drivers/STM32H7xx_HAL_Driver/Src/stm32h7xx_hal_dma_ex.c ****       {
 259              		.loc 1 148 0 discriminator 6
 260 005a 1835     		adds	r5, r5, #24
 261 005c AC42     		cmp	r4, r5
 262 005e 30D0     		beq	.L17
 148:Drivers/STM32H7xx_HAL_Driver/Src/stm32h7xx_hal_dma_ex.c ****       {
 263              		.loc 1 148 0 discriminator 8
 264 0060 1835     		adds	r5, r5, #24
 265 0062 AC42     		cmp	r4, r5
 266 0064 2DD0     		beq	.L17
 148:Drivers/STM32H7xx_HAL_Driver/Src/stm32h7xx_hal_dma_ex.c ****       {
 267              		.loc 1 148 0 discriminator 10
 268 0066 1835     		adds	r5, r5, #24
 269 0068 AC42     		cmp	r4, r5
 270 006a 2AD0     		beq	.L17
 148:Drivers/STM32H7xx_HAL_Driver/Src/stm32h7xx_hal_dma_ex.c ****       {
 271              		.loc 1 148 0 discriminator 12
 272 006c 1835     		adds	r5, r5, #24
 273 006e AC42     		cmp	r4, r5
 274 0070 27D0     		beq	.L17
 148:Drivers/STM32H7xx_HAL_Driver/Src/stm32h7xx_hal_dma_ex.c ****       {
 275              		.loc 1 148 0 discriminator 14
 276 0072 05F55675 		add	r5, r5, #856
 277 0076 AC42     		cmp	r4, r5
 278 0078 23D0     		beq	.L17
 148:Drivers/STM32H7xx_HAL_Driver/Src/stm32h7xx_hal_dma_ex.c ****       {
 279              		.loc 1 148 0 discriminator 16
 280 007a 1835     		adds	r5, r5, #24
 281 007c AC42     		cmp	r4, r5
 282 007e 20D0     		beq	.L17
 148:Drivers/STM32H7xx_HAL_Driver/Src/stm32h7xx_hal_dma_ex.c ****       {
 283              		.loc 1 148 0 discriminator 18
 284 0080 1835     		adds	r5, r5, #24
 285 0082 AC42     		cmp	r4, r5
 286 0084 1DD0     		beq	.L17
 148:Drivers/STM32H7xx_HAL_Driver/Src/stm32h7xx_hal_dma_ex.c ****       {
 287              		.loc 1 148 0 discriminator 20
 288 0086 1835     		adds	r5, r5, #24
 289 0088 AC42     		cmp	r4, r5
 290 008a 1AD0     		beq	.L17
 148:Drivers/STM32H7xx_HAL_Driver/Src/stm32h7xx_hal_dma_ex.c ****       {
 291              		.loc 1 148 0 discriminator 22
 292 008c 1835     		adds	r5, r5, #24
 293 008e AC42     		cmp	r4, r5
 294 0090 17D0     		beq	.L17
 148:Drivers/STM32H7xx_HAL_Driver/Src/stm32h7xx_hal_dma_ex.c ****       {
 295              		.loc 1 148 0 discriminator 24
 296 0092 1835     		adds	r5, r5, #24
 297 0094 AC42     		cmp	r4, r5
 298 0096 14D0     		beq	.L17
ARM GAS  /tmp/ccdCpe1u.s 			page 19


 148:Drivers/STM32H7xx_HAL_Driver/Src/stm32h7xx_hal_dma_ex.c ****       {
 299              		.loc 1 148 0 discriminator 26
 300 0098 1835     		adds	r5, r5, #24
 301 009a AC42     		cmp	r4, r5
 302 009c 11D0     		beq	.L17
 148:Drivers/STM32H7xx_HAL_Driver/Src/stm32h7xx_hal_dma_ex.c ****       {
 303              		.loc 1 148 0 discriminator 28
 304 009e 1835     		adds	r5, r5, #24
 305 00a0 AC42     		cmp	r4, r5
 306 00a2 0ED0     		beq	.L17
 165:Drivers/STM32H7xx_HAL_Driver/Src/stm32h7xx_hal_dma_ex.c **** 
 307              		.loc 1 165 0 is_stmt 1
 308 00a4 2668     		ldr	r6, [r4]
 309 00a6 48F22005 		movw	r5, #32800
 310 00aa 3543     		orrs	r5, r5, r6
 311 00ac 2560     		str	r5, [r4]
 168:Drivers/STM32H7xx_HAL_Driver/Src/stm32h7xx_hal_dma_ex.c **** 
 312              		.loc 1 168 0
 313 00ae 0468     		ldr	r4, [r0]
 314 00b0 2361     		str	r3, [r4, #16]
 171:Drivers/STM32H7xx_HAL_Driver/Src/stm32h7xx_hal_dma_ex.c **** 
 315              		.loc 1 171 0
 316 00b2 856D     		ldr	r5, [r0, #88]
 317              	.LVL20:
 174:Drivers/STM32H7xx_HAL_Driver/Src/stm32h7xx_hal_dma_ex.c ****       }
 318              		.loc 1 174 0
 319 00b4 C36D     		ldr	r3, [r0, #92]
 320              	.LVL21:
 321 00b6 03F01F04 		and	r4, r3, #31
 322              	.LVL22:
 323 00ba 0123     		movs	r3, #1
 324 00bc A340     		lsls	r3, r3, r4
 325 00be 6B60     		str	r3, [r5, #4]
 326 00c0 0CE0     		b	.L18
 327              	.LVL23:
 328              	.L17:
 151:Drivers/STM32H7xx_HAL_Driver/Src/stm32h7xx_hal_dma_ex.c **** 
 329              		.loc 1 151 0
 330 00c2 2568     		ldr	r5, [r4]
 331 00c4 45F48025 		orr	r5, r5, #262144
 332 00c8 2560     		str	r5, [r4]
 154:Drivers/STM32H7xx_HAL_Driver/Src/stm32h7xx_hal_dma_ex.c **** 
 333              		.loc 1 154 0
 334 00ca 0468     		ldr	r4, [r0]
 335 00cc 2361     		str	r3, [r4, #16]
 157:Drivers/STM32H7xx_HAL_Driver/Src/stm32h7xx_hal_dma_ex.c **** 
 336              		.loc 1 157 0
 337 00ce 856D     		ldr	r5, [r0, #88]
 338              	.LVL24:
 160:Drivers/STM32H7xx_HAL_Driver/Src/stm32h7xx_hal_dma_ex.c ****       }
 339              		.loc 1 160 0
 340 00d0 C36D     		ldr	r3, [r0, #92]
 341              	.LVL25:
 342 00d2 03F01F04 		and	r4, r3, #31
 343              	.LVL26:
 344 00d6 3F23     		movs	r3, #63
 345 00d8 A340     		lsls	r3, r3, r4
ARM GAS  /tmp/ccdCpe1u.s 			page 20


 346 00da AB60     		str	r3, [r5, #8]
 347              	.LVL27:
 348              	.L18:
 349 00dc 0446     		mov	r4, r0
 177:Drivers/STM32H7xx_HAL_Driver/Src/stm32h7xx_hal_dma_ex.c ****       {
 350              		.loc 1 177 0
 351 00de 0368     		ldr	r3, [r0]
 352 00e0 4A4D     		ldr	r5, .L27
 353 00e2 4B48     		ldr	r0, .L27+4
 354              	.LVL28:
 355 00e4 8342     		cmp	r3, r0
 356 00e6 18BF     		it	ne
 357 00e8 AB42     		cmpne	r3, r5
 358 00ea 42D0     		beq	.L19
 177:Drivers/STM32H7xx_HAL_Driver/Src/stm32h7xx_hal_dma_ex.c ****       {
 359              		.loc 1 177 0 is_stmt 0 discriminator 2
 360 00ec 1830     		adds	r0, r0, #24
 361 00ee 8342     		cmp	r3, r0
 362 00f0 3FD0     		beq	.L19
 177:Drivers/STM32H7xx_HAL_Driver/Src/stm32h7xx_hal_dma_ex.c ****       {
 363              		.loc 1 177 0 discriminator 4
 364 00f2 1830     		adds	r0, r0, #24
 365 00f4 8342     		cmp	r3, r0
 366 00f6 3CD0     		beq	.L19
 177:Drivers/STM32H7xx_HAL_Driver/Src/stm32h7xx_hal_dma_ex.c ****       {
 367              		.loc 1 177 0 discriminator 6
 368 00f8 1830     		adds	r0, r0, #24
 369 00fa 8342     		cmp	r3, r0
 370 00fc 39D0     		beq	.L19
 177:Drivers/STM32H7xx_HAL_Driver/Src/stm32h7xx_hal_dma_ex.c ****       {
 371              		.loc 1 177 0 discriminator 8
 372 00fe 1830     		adds	r0, r0, #24
 373 0100 8342     		cmp	r3, r0
 374 0102 36D0     		beq	.L19
 177:Drivers/STM32H7xx_HAL_Driver/Src/stm32h7xx_hal_dma_ex.c ****       {
 375              		.loc 1 177 0 discriminator 10
 376 0104 1830     		adds	r0, r0, #24
 377 0106 8342     		cmp	r3, r0
 378 0108 33D0     		beq	.L19
 177:Drivers/STM32H7xx_HAL_Driver/Src/stm32h7xx_hal_dma_ex.c ****       {
 379              		.loc 1 177 0 discriminator 12
 380 010a 1830     		adds	r0, r0, #24
 381 010c 8342     		cmp	r3, r0
 382 010e 30D0     		beq	.L19
 177:Drivers/STM32H7xx_HAL_Driver/Src/stm32h7xx_hal_dma_ex.c ****       {
 383              		.loc 1 177 0 discriminator 14
 384 0110 00F55670 		add	r0, r0, #856
 385 0114 8342     		cmp	r3, r0
 386 0116 2CD0     		beq	.L19
 177:Drivers/STM32H7xx_HAL_Driver/Src/stm32h7xx_hal_dma_ex.c ****       {
 387              		.loc 1 177 0 discriminator 16
 388 0118 1830     		adds	r0, r0, #24
 389 011a 8342     		cmp	r3, r0
 390 011c 29D0     		beq	.L19
 177:Drivers/STM32H7xx_HAL_Driver/Src/stm32h7xx_hal_dma_ex.c ****       {
 391              		.loc 1 177 0 discriminator 18
 392 011e 1830     		adds	r0, r0, #24
ARM GAS  /tmp/ccdCpe1u.s 			page 21


 393 0120 8342     		cmp	r3, r0
 394 0122 26D0     		beq	.L19
 177:Drivers/STM32H7xx_HAL_Driver/Src/stm32h7xx_hal_dma_ex.c ****       {
 395              		.loc 1 177 0 discriminator 20
 396 0124 1830     		adds	r0, r0, #24
 397 0126 8342     		cmp	r3, r0
 398 0128 23D0     		beq	.L19
 177:Drivers/STM32H7xx_HAL_Driver/Src/stm32h7xx_hal_dma_ex.c ****       {
 399              		.loc 1 177 0 discriminator 22
 400 012a 1830     		adds	r0, r0, #24
 401 012c 8342     		cmp	r3, r0
 402 012e 20D0     		beq	.L19
 177:Drivers/STM32H7xx_HAL_Driver/Src/stm32h7xx_hal_dma_ex.c ****       {
 403              		.loc 1 177 0 discriminator 24
 404 0130 1830     		adds	r0, r0, #24
 405 0132 8342     		cmp	r3, r0
 406 0134 1DD0     		beq	.L19
 177:Drivers/STM32H7xx_HAL_Driver/Src/stm32h7xx_hal_dma_ex.c ****       {
 407              		.loc 1 177 0 discriminator 26
 408 0136 1830     		adds	r0, r0, #24
 409 0138 8342     		cmp	r3, r0
 410 013a 1AD0     		beq	.L19
 177:Drivers/STM32H7xx_HAL_Driver/Src/stm32h7xx_hal_dma_ex.c ****       {
 411              		.loc 1 177 0 discriminator 28
 412 013c 1830     		adds	r0, r0, #24
 413 013e 8342     		cmp	r3, r0
 414 0140 17D0     		beq	.L19
 177:Drivers/STM32H7xx_HAL_Driver/Src/stm32h7xx_hal_dma_ex.c ****       {
 415              		.loc 1 177 0 discriminator 30
 416 0142 3448     		ldr	r0, .L27+8
 417 0144 8342     		cmp	r3, r0
 418 0146 14D0     		beq	.L19
 177:Drivers/STM32H7xx_HAL_Driver/Src/stm32h7xx_hal_dma_ex.c ****       {
 419              		.loc 1 177 0 discriminator 32
 420 0148 1430     		adds	r0, r0, #20
 421 014a 8342     		cmp	r3, r0
 422 014c 11D0     		beq	.L19
 177:Drivers/STM32H7xx_HAL_Driver/Src/stm32h7xx_hal_dma_ex.c ****       {
 423              		.loc 1 177 0 discriminator 34
 424 014e 1430     		adds	r0, r0, #20
 425 0150 8342     		cmp	r3, r0
 426 0152 0ED0     		beq	.L19
 177:Drivers/STM32H7xx_HAL_Driver/Src/stm32h7xx_hal_dma_ex.c ****       {
 427              		.loc 1 177 0 discriminator 36
 428 0154 1430     		adds	r0, r0, #20
 429 0156 8342     		cmp	r3, r0
 430 0158 0BD0     		beq	.L19
 177:Drivers/STM32H7xx_HAL_Driver/Src/stm32h7xx_hal_dma_ex.c ****       {
 431              		.loc 1 177 0 discriminator 38
 432 015a 1430     		adds	r0, r0, #20
 433 015c 8342     		cmp	r3, r0
 434 015e 08D0     		beq	.L19
 177:Drivers/STM32H7xx_HAL_Driver/Src/stm32h7xx_hal_dma_ex.c ****       {
 435              		.loc 1 177 0 discriminator 40
 436 0160 1430     		adds	r0, r0, #20
 437 0162 8342     		cmp	r3, r0
 438 0164 05D0     		beq	.L19
ARM GAS  /tmp/ccdCpe1u.s 			page 22


 177:Drivers/STM32H7xx_HAL_Driver/Src/stm32h7xx_hal_dma_ex.c ****       {
 439              		.loc 1 177 0 discriminator 42
 440 0166 1430     		adds	r0, r0, #20
 441 0168 8342     		cmp	r3, r0
 442 016a 02D0     		beq	.L19
 177:Drivers/STM32H7xx_HAL_Driver/Src/stm32h7xx_hal_dma_ex.c ****       {
 443              		.loc 1 177 0 discriminator 44
 444 016c 1430     		adds	r0, r0, #20
 445 016e 8342     		cmp	r3, r0
 446 0170 0BD1     		bne	.L20
 447              	.L19:
 180:Drivers/STM32H7xx_HAL_Driver/Src/stm32h7xx_hal_dma_ex.c **** 
 448              		.loc 1 180 0 is_stmt 1
 449 0172 049B     		ldr	r3, [sp, #16]
 450 0174 2046     		mov	r0, r4
 451 0176 FFF7FEFF 		bl	DMA_MultiBufferSetConfig
 452              	.LVL29:
 183:Drivers/STM32H7xx_HAL_Driver/Src/stm32h7xx_hal_dma_ex.c **** 
 453              		.loc 1 183 0
 454 017a 636E     		ldr	r3, [r4, #100]
 455 017c A26E     		ldr	r2, [r4, #104]
 456 017e 5A60     		str	r2, [r3, #4]
 185:Drivers/STM32H7xx_HAL_Driver/Src/stm32h7xx_hal_dma_ex.c ****         {
 457              		.loc 1 185 0
 458 0180 E36E     		ldr	r3, [r4, #108]
 459 0182 13B1     		cbz	r3, .L20
 188:Drivers/STM32H7xx_HAL_Driver/Src/stm32h7xx_hal_dma_ex.c ****         }
 460              		.loc 1 188 0
 461 0184 236F     		ldr	r3, [r4, #112]
 462 0186 626F     		ldr	r2, [r4, #116]
 463 0188 5A60     		str	r2, [r3, #4]
 464              	.L20:
 193:Drivers/STM32H7xx_HAL_Driver/Src/stm32h7xx_hal_dma_ex.c ****     }
 465              		.loc 1 193 0
 466 018a 2368     		ldr	r3, [r4]
 467 018c 1F49     		ldr	r1, .L27
 468 018e 204A     		ldr	r2, .L27+4
 469 0190 9342     		cmp	r3, r2
 470 0192 18BF     		it	ne
 471 0194 8B42     		cmpne	r3, r1
 472 0196 30D0     		beq	.L21
 193:Drivers/STM32H7xx_HAL_Driver/Src/stm32h7xx_hal_dma_ex.c ****     }
 473              		.loc 1 193 0 is_stmt 0 discriminator 2
 474 0198 1832     		adds	r2, r2, #24
 475 019a 9342     		cmp	r3, r2
 476 019c 2DD0     		beq	.L21
 193:Drivers/STM32H7xx_HAL_Driver/Src/stm32h7xx_hal_dma_ex.c ****     }
 477              		.loc 1 193 0 discriminator 4
 478 019e 1832     		adds	r2, r2, #24
 479 01a0 9342     		cmp	r3, r2
 480 01a2 2AD0     		beq	.L21
 193:Drivers/STM32H7xx_HAL_Driver/Src/stm32h7xx_hal_dma_ex.c ****     }
 481              		.loc 1 193 0 discriminator 6
 482 01a4 1832     		adds	r2, r2, #24
 483 01a6 9342     		cmp	r3, r2
 484 01a8 27D0     		beq	.L21
 193:Drivers/STM32H7xx_HAL_Driver/Src/stm32h7xx_hal_dma_ex.c ****     }
ARM GAS  /tmp/ccdCpe1u.s 			page 23


 485              		.loc 1 193 0 discriminator 8
 486 01aa 1832     		adds	r2, r2, #24
 487 01ac 9342     		cmp	r3, r2
 488 01ae 24D0     		beq	.L21
 193:Drivers/STM32H7xx_HAL_Driver/Src/stm32h7xx_hal_dma_ex.c ****     }
 489              		.loc 1 193 0 discriminator 10
 490 01b0 1832     		adds	r2, r2, #24
 491 01b2 9342     		cmp	r3, r2
 492 01b4 21D0     		beq	.L21
 193:Drivers/STM32H7xx_HAL_Driver/Src/stm32h7xx_hal_dma_ex.c ****     }
 493              		.loc 1 193 0 discriminator 12
 494 01b6 1832     		adds	r2, r2, #24
 495 01b8 9342     		cmp	r3, r2
 496 01ba 1ED0     		beq	.L21
 193:Drivers/STM32H7xx_HAL_Driver/Src/stm32h7xx_hal_dma_ex.c ****     }
 497              		.loc 1 193 0 discriminator 14
 498 01bc 02F55672 		add	r2, r2, #856
 499 01c0 9342     		cmp	r3, r2
 500 01c2 1AD0     		beq	.L21
 193:Drivers/STM32H7xx_HAL_Driver/Src/stm32h7xx_hal_dma_ex.c ****     }
 501              		.loc 1 193 0 discriminator 16
 502 01c4 1832     		adds	r2, r2, #24
 503 01c6 9342     		cmp	r3, r2
 504 01c8 17D0     		beq	.L21
 193:Drivers/STM32H7xx_HAL_Driver/Src/stm32h7xx_hal_dma_ex.c ****     }
 505              		.loc 1 193 0 discriminator 18
 506 01ca 1832     		adds	r2, r2, #24
 507 01cc 9342     		cmp	r3, r2
 508 01ce 14D0     		beq	.L21
 193:Drivers/STM32H7xx_HAL_Driver/Src/stm32h7xx_hal_dma_ex.c ****     }
 509              		.loc 1 193 0 discriminator 20
 510 01d0 1832     		adds	r2, r2, #24
 511 01d2 9342     		cmp	r3, r2
 512 01d4 11D0     		beq	.L21
 193:Drivers/STM32H7xx_HAL_Driver/Src/stm32h7xx_hal_dma_ex.c ****     }
 513              		.loc 1 193 0 discriminator 22
 514 01d6 1832     		adds	r2, r2, #24
 515 01d8 9342     		cmp	r3, r2
 516 01da 0ED0     		beq	.L21
 193:Drivers/STM32H7xx_HAL_Driver/Src/stm32h7xx_hal_dma_ex.c ****     }
 517              		.loc 1 193 0 discriminator 24
 518 01dc 1832     		adds	r2, r2, #24
 519 01de 9342     		cmp	r3, r2
 520 01e0 0BD0     		beq	.L21
 193:Drivers/STM32H7xx_HAL_Driver/Src/stm32h7xx_hal_dma_ex.c ****     }
 521              		.loc 1 193 0 discriminator 26
 522 01e2 1832     		adds	r2, r2, #24
 523 01e4 9342     		cmp	r3, r2
 524 01e6 08D0     		beq	.L21
 193:Drivers/STM32H7xx_HAL_Driver/Src/stm32h7xx_hal_dma_ex.c ****     }
 525              		.loc 1 193 0 discriminator 28
 526 01e8 1832     		adds	r2, r2, #24
 527 01ea 9342     		cmp	r3, r2
 528 01ec 05D0     		beq	.L21
 193:Drivers/STM32H7xx_HAL_Driver/Src/stm32h7xx_hal_dma_ex.c ****     }
 529              		.loc 1 193 0 discriminator 30
 530 01ee 1A68     		ldr	r2, [r3]
ARM GAS  /tmp/ccdCpe1u.s 			page 24


 531 01f0 42F00102 		orr	r2, r2, #1
 532 01f4 1A60     		str	r2, [r3]
 122:Drivers/STM32H7xx_HAL_Driver/Src/stm32h7xx_hal_dma_ex.c ****   __IO uint32_t *ifcRegister_Base; /* DMA Stream Interrupt Clear register */
 533              		.loc 1 122 0 is_stmt 1 discriminator 30
 534 01f6 0020     		movs	r0, #0
 535 01f8 17E7     		b	.L15
 536              	.L21:
 193:Drivers/STM32H7xx_HAL_Driver/Src/stm32h7xx_hal_dma_ex.c ****     }
 537              		.loc 1 193 0 discriminator 29
 538 01fa 1A68     		ldr	r2, [r3]
 539 01fc 42F00102 		orr	r2, r2, #1
 540 0200 1A60     		str	r2, [r3]
 122:Drivers/STM32H7xx_HAL_Driver/Src/stm32h7xx_hal_dma_ex.c ****   __IO uint32_t *ifcRegister_Base; /* DMA Stream Interrupt Clear register */
 541              		.loc 1 122 0 discriminator 29
 542 0202 0020     		movs	r0, #0
 193:Drivers/STM32H7xx_HAL_Driver/Src/stm32h7xx_hal_dma_ex.c ****     }
 543              		.loc 1 193 0 discriminator 29
 544 0204 11E7     		b	.L15
 545              	.LVL30:
 546              	.L23:
 138:Drivers/STM32H7xx_HAL_Driver/Src/stm32h7xx_hal_dma_ex.c **** 
 547              		.loc 1 138 0
 548 0206 0220     		movs	r0, #2
 549              	.LVL31:
 550 0208 0FE7     		b	.L15
 551              	.L28:
 552 020a 00BF     		.align	2
 553              	.L27:
 554 020c 10000240 		.word	1073872912
 555 0210 28000240 		.word	1073872936
 556 0214 08540258 		.word	1476547592
 557              		.cfi_endproc
 558              	.LFE144:
 560              		.section	.text.HAL_DMAEx_MultiBufferStart_IT,"ax",%progbits
 561              		.align	1
 562              		.global	HAL_DMAEx_MultiBufferStart_IT
 563              		.syntax unified
 564              		.thumb
 565              		.thumb_func
 566              		.fpu fpv5-d16
 568              	HAL_DMAEx_MultiBufferStart_IT:
 569              	.LFB145:
 218:Drivers/STM32H7xx_HAL_Driver/Src/stm32h7xx_hal_dma_ex.c ****   HAL_StatusTypeDef status = HAL_OK;
 570              		.loc 1 218 0
 571              		.cfi_startproc
 572              		@ args = 4, pretend = 0, frame = 0
 573              		@ frame_needed = 0, uses_anonymous_args = 0
 574              	.LVL32:
 575 0000 70B5     		push	{r4, r5, r6, lr}
 576              	.LCFI4:
 577              		.cfi_def_cfa_offset 16
 578              		.cfi_offset 4, -16
 579              		.cfi_offset 5, -12
 580              		.cfi_offset 6, -8
 581              		.cfi_offset 14, -4
 582              	.LVL33:
 227:Drivers/STM32H7xx_HAL_Driver/Src/stm32h7xx_hal_dma_ex.c ****   {
ARM GAS  /tmp/ccdCpe1u.s 			page 25


 583              		.loc 1 227 0
 584 0002 8468     		ldr	r4, [r0, #8]
 585 0004 802C     		cmp	r4, #128
 586 0006 11D0     		beq	.L50
 234:Drivers/STM32H7xx_HAL_Driver/Src/stm32h7xx_hal_dma_ex.c **** 
 587              		.loc 1 234 0
 588 0008 90F83440 		ldrb	r4, [r0, #52]	@ zero_extendqisi2
 589 000c 012C     		cmp	r4, #1
 590 000e 00F0B881 		beq	.L47
 234:Drivers/STM32H7xx_HAL_Driver/Src/stm32h7xx_hal_dma_ex.c **** 
 591              		.loc 1 234 0 is_stmt 0 discriminator 2
 592 0012 0124     		movs	r4, #1
 593 0014 80F83440 		strb	r4, [r0, #52]
 236:Drivers/STM32H7xx_HAL_Driver/Src/stm32h7xx_hal_dma_ex.c ****   {
 594              		.loc 1 236 0 is_stmt 1 discriminator 2
 595 0018 90F83540 		ldrb	r4, [r0, #53]	@ zero_extendqisi2
 596 001c E4B2     		uxtb	r4, r4
 597 001e 012C     		cmp	r4, #1
 598 0020 09D0     		beq	.L51
 335:Drivers/STM32H7xx_HAL_Driver/Src/stm32h7xx_hal_dma_ex.c **** 
 599              		.loc 1 335 0
 600 0022 4FF40063 		mov	r3, #2048
 601              	.LVL34:
 602 0026 4365     		str	r3, [r0, #84]
 603              	.LVL35:
 338:Drivers/STM32H7xx_HAL_Driver/Src/stm32h7xx_hal_dma_ex.c ****   }
 604              		.loc 1 338 0
 605 0028 0120     		movs	r0, #1
 606              	.LVL36:
 607              	.L31:
 341:Drivers/STM32H7xx_HAL_Driver/Src/stm32h7xx_hal_dma_ex.c **** 
 608              		.loc 1 341 0
 609 002a 70BD     		pop	{r4, r5, r6, pc}
 610              	.LVL37:
 611              	.L50:
 229:Drivers/STM32H7xx_HAL_Driver/Src/stm32h7xx_hal_dma_ex.c ****     return HAL_ERROR;
 612              		.loc 1 229 0
 613 002c 4FF48073 		mov	r3, #256
 614              	.LVL38:
 615 0030 4365     		str	r3, [r0, #84]
 230:Drivers/STM32H7xx_HAL_Driver/Src/stm32h7xx_hal_dma_ex.c ****   }
 616              		.loc 1 230 0
 617 0032 0120     		movs	r0, #1
 618              	.LVL39:
 619 0034 F9E7     		b	.L31
 620              	.LVL40:
 621              	.L51:
 239:Drivers/STM32H7xx_HAL_Driver/Src/stm32h7xx_hal_dma_ex.c **** 
 622              		.loc 1 239 0
 623 0036 0224     		movs	r4, #2
 624 0038 80F83540 		strb	r4, [r0, #53]
 242:Drivers/STM32H7xx_HAL_Driver/Src/stm32h7xx_hal_dma_ex.c **** 
 625              		.loc 1 242 0
 626 003c 0024     		movs	r4, #0
 627 003e 4465     		str	r4, [r0, #84]
 244:Drivers/STM32H7xx_HAL_Driver/Src/stm32h7xx_hal_dma_ex.c ****     {
 628              		.loc 1 244 0
ARM GAS  /tmp/ccdCpe1u.s 			page 26


 629 0040 0468     		ldr	r4, [r0]
 630 0042 724E     		ldr	r6, .L54
 631 0044 724D     		ldr	r5, .L54+4
 632 0046 AC42     		cmp	r4, r5
 633 0048 18BF     		it	ne
 634 004a B442     		cmpne	r4, r6
 635 004c 39D0     		beq	.L33
 244:Drivers/STM32H7xx_HAL_Driver/Src/stm32h7xx_hal_dma_ex.c ****     {
 636              		.loc 1 244 0 is_stmt 0 discriminator 2
 637 004e 1835     		adds	r5, r5, #24
 638 0050 AC42     		cmp	r4, r5
 639 0052 36D0     		beq	.L33
 244:Drivers/STM32H7xx_HAL_Driver/Src/stm32h7xx_hal_dma_ex.c ****     {
 640              		.loc 1 244 0 discriminator 4
 641 0054 1835     		adds	r5, r5, #24
 642 0056 AC42     		cmp	r4, r5
 643 0058 33D0     		beq	.L33
 244:Drivers/STM32H7xx_HAL_Driver/Src/stm32h7xx_hal_dma_ex.c ****     {
 644              		.loc 1 244 0 discriminator 6
 645 005a 1835     		adds	r5, r5, #24
 646 005c AC42     		cmp	r4, r5
 647 005e 30D0     		beq	.L33
 244:Drivers/STM32H7xx_HAL_Driver/Src/stm32h7xx_hal_dma_ex.c ****     {
 648              		.loc 1 244 0 discriminator 8
 649 0060 1835     		adds	r5, r5, #24
 650 0062 AC42     		cmp	r4, r5
 651 0064 2DD0     		beq	.L33
 244:Drivers/STM32H7xx_HAL_Driver/Src/stm32h7xx_hal_dma_ex.c ****     {
 652              		.loc 1 244 0 discriminator 10
 653 0066 1835     		adds	r5, r5, #24
 654 0068 AC42     		cmp	r4, r5
 655 006a 2AD0     		beq	.L33
 244:Drivers/STM32H7xx_HAL_Driver/Src/stm32h7xx_hal_dma_ex.c ****     {
 656              		.loc 1 244 0 discriminator 12
 657 006c 1835     		adds	r5, r5, #24
 658 006e AC42     		cmp	r4, r5
 659 0070 27D0     		beq	.L33
 244:Drivers/STM32H7xx_HAL_Driver/Src/stm32h7xx_hal_dma_ex.c ****     {
 660              		.loc 1 244 0 discriminator 14
 661 0072 05F55675 		add	r5, r5, #856
 662 0076 AC42     		cmp	r4, r5
 663 0078 23D0     		beq	.L33
 244:Drivers/STM32H7xx_HAL_Driver/Src/stm32h7xx_hal_dma_ex.c ****     {
 664              		.loc 1 244 0 discriminator 16
 665 007a 1835     		adds	r5, r5, #24
 666 007c AC42     		cmp	r4, r5
 667 007e 20D0     		beq	.L33
 244:Drivers/STM32H7xx_HAL_Driver/Src/stm32h7xx_hal_dma_ex.c ****     {
 668              		.loc 1 244 0 discriminator 18
 669 0080 1835     		adds	r5, r5, #24
 670 0082 AC42     		cmp	r4, r5
 671 0084 1DD0     		beq	.L33
 244:Drivers/STM32H7xx_HAL_Driver/Src/stm32h7xx_hal_dma_ex.c ****     {
 672              		.loc 1 244 0 discriminator 20
 673 0086 1835     		adds	r5, r5, #24
 674 0088 AC42     		cmp	r4, r5
 675 008a 1AD0     		beq	.L33
ARM GAS  /tmp/ccdCpe1u.s 			page 27


 244:Drivers/STM32H7xx_HAL_Driver/Src/stm32h7xx_hal_dma_ex.c ****     {
 676              		.loc 1 244 0 discriminator 22
 677 008c 1835     		adds	r5, r5, #24
 678 008e AC42     		cmp	r4, r5
 679 0090 17D0     		beq	.L33
 244:Drivers/STM32H7xx_HAL_Driver/Src/stm32h7xx_hal_dma_ex.c ****     {
 680              		.loc 1 244 0 discriminator 24
 681 0092 1835     		adds	r5, r5, #24
 682 0094 AC42     		cmp	r4, r5
 683 0096 14D0     		beq	.L33
 244:Drivers/STM32H7xx_HAL_Driver/Src/stm32h7xx_hal_dma_ex.c ****     {
 684              		.loc 1 244 0 discriminator 26
 685 0098 1835     		adds	r5, r5, #24
 686 009a AC42     		cmp	r4, r5
 687 009c 11D0     		beq	.L33
 244:Drivers/STM32H7xx_HAL_Driver/Src/stm32h7xx_hal_dma_ex.c ****     {
 688              		.loc 1 244 0 discriminator 28
 689 009e 1835     		adds	r5, r5, #24
 690 00a0 AC42     		cmp	r4, r5
 691 00a2 0ED0     		beq	.L33
 261:Drivers/STM32H7xx_HAL_Driver/Src/stm32h7xx_hal_dma_ex.c **** 
 692              		.loc 1 261 0 is_stmt 1
 693 00a4 2668     		ldr	r6, [r4]
 694 00a6 48F22005 		movw	r5, #32800
 695 00aa 3543     		orrs	r5, r5, r6
 696 00ac 2560     		str	r5, [r4]
 264:Drivers/STM32H7xx_HAL_Driver/Src/stm32h7xx_hal_dma_ex.c **** 
 697              		.loc 1 264 0
 698 00ae 0468     		ldr	r4, [r0]
 699 00b0 2361     		str	r3, [r4, #16]
 267:Drivers/STM32H7xx_HAL_Driver/Src/stm32h7xx_hal_dma_ex.c **** 
 700              		.loc 1 267 0
 701 00b2 856D     		ldr	r5, [r0, #88]
 702              	.LVL41:
 270:Drivers/STM32H7xx_HAL_Driver/Src/stm32h7xx_hal_dma_ex.c ****     }
 703              		.loc 1 270 0
 704 00b4 C36D     		ldr	r3, [r0, #92]
 705              	.LVL42:
 706 00b6 03F01F04 		and	r4, r3, #31
 707              	.LVL43:
 708 00ba 0123     		movs	r3, #1
 709 00bc A340     		lsls	r3, r3, r4
 710 00be 6B60     		str	r3, [r5, #4]
 711 00c0 0CE0     		b	.L34
 712              	.LVL44:
 713              	.L33:
 247:Drivers/STM32H7xx_HAL_Driver/Src/stm32h7xx_hal_dma_ex.c **** 
 714              		.loc 1 247 0
 715 00c2 2568     		ldr	r5, [r4]
 716 00c4 45F48025 		orr	r5, r5, #262144
 717 00c8 2560     		str	r5, [r4]
 250:Drivers/STM32H7xx_HAL_Driver/Src/stm32h7xx_hal_dma_ex.c **** 
 718              		.loc 1 250 0
 719 00ca 0468     		ldr	r4, [r0]
 720 00cc 2361     		str	r3, [r4, #16]
 253:Drivers/STM32H7xx_HAL_Driver/Src/stm32h7xx_hal_dma_ex.c **** 
 721              		.loc 1 253 0
ARM GAS  /tmp/ccdCpe1u.s 			page 28


 722 00ce 856D     		ldr	r5, [r0, #88]
 723              	.LVL45:
 256:Drivers/STM32H7xx_HAL_Driver/Src/stm32h7xx_hal_dma_ex.c ****     }
 724              		.loc 1 256 0
 725 00d0 C36D     		ldr	r3, [r0, #92]
 726              	.LVL46:
 727 00d2 03F01F04 		and	r4, r3, #31
 728              	.LVL47:
 729 00d6 3F23     		movs	r3, #63
 730 00d8 A340     		lsls	r3, r3, r4
 731 00da AB60     		str	r3, [r5, #8]
 732              	.LVL48:
 733              	.L34:
 734 00dc 0446     		mov	r4, r0
 274:Drivers/STM32H7xx_HAL_Driver/Src/stm32h7xx_hal_dma_ex.c **** 
 735              		.loc 1 274 0
 736 00de 049B     		ldr	r3, [sp, #16]
 737 00e0 FFF7FEFF 		bl	DMA_MultiBufferSetConfig
 738              	.LVL49:
 276:Drivers/STM32H7xx_HAL_Driver/Src/stm32h7xx_hal_dma_ex.c ****     {
 739              		.loc 1 276 0
 740 00e4 2368     		ldr	r3, [r4]
 741 00e6 4949     		ldr	r1, .L54
 742 00e8 494A     		ldr	r2, .L54+4
 743 00ea 9342     		cmp	r3, r2
 744 00ec 18BF     		it	ne
 745 00ee 8B42     		cmpne	r3, r1
 746 00f0 42D0     		beq	.L35
 276:Drivers/STM32H7xx_HAL_Driver/Src/stm32h7xx_hal_dma_ex.c ****     {
 747              		.loc 1 276 0 is_stmt 0 discriminator 2
 748 00f2 1832     		adds	r2, r2, #24
 749 00f4 9342     		cmp	r3, r2
 750 00f6 3FD0     		beq	.L35
 276:Drivers/STM32H7xx_HAL_Driver/Src/stm32h7xx_hal_dma_ex.c ****     {
 751              		.loc 1 276 0 discriminator 4
 752 00f8 1832     		adds	r2, r2, #24
 753 00fa 9342     		cmp	r3, r2
 754 00fc 3CD0     		beq	.L35
 276:Drivers/STM32H7xx_HAL_Driver/Src/stm32h7xx_hal_dma_ex.c ****     {
 755              		.loc 1 276 0 discriminator 6
 756 00fe 1832     		adds	r2, r2, #24
 757 0100 9342     		cmp	r3, r2
 758 0102 39D0     		beq	.L35
 276:Drivers/STM32H7xx_HAL_Driver/Src/stm32h7xx_hal_dma_ex.c ****     {
 759              		.loc 1 276 0 discriminator 8
 760 0104 1832     		adds	r2, r2, #24
 761 0106 9342     		cmp	r3, r2
 762 0108 36D0     		beq	.L35
 276:Drivers/STM32H7xx_HAL_Driver/Src/stm32h7xx_hal_dma_ex.c ****     {
 763              		.loc 1 276 0 discriminator 10
 764 010a 1832     		adds	r2, r2, #24
 765 010c 9342     		cmp	r3, r2
 766 010e 33D0     		beq	.L35
 276:Drivers/STM32H7xx_HAL_Driver/Src/stm32h7xx_hal_dma_ex.c ****     {
 767              		.loc 1 276 0 discriminator 12
 768 0110 1832     		adds	r2, r2, #24
 769 0112 9342     		cmp	r3, r2
ARM GAS  /tmp/ccdCpe1u.s 			page 29


 770 0114 30D0     		beq	.L35
 276:Drivers/STM32H7xx_HAL_Driver/Src/stm32h7xx_hal_dma_ex.c ****     {
 771              		.loc 1 276 0 discriminator 14
 772 0116 02F55672 		add	r2, r2, #856
 773 011a 9342     		cmp	r3, r2
 774 011c 2CD0     		beq	.L35
 276:Drivers/STM32H7xx_HAL_Driver/Src/stm32h7xx_hal_dma_ex.c ****     {
 775              		.loc 1 276 0 discriminator 16
 776 011e 1832     		adds	r2, r2, #24
 777 0120 9342     		cmp	r3, r2
 778 0122 29D0     		beq	.L35
 276:Drivers/STM32H7xx_HAL_Driver/Src/stm32h7xx_hal_dma_ex.c ****     {
 779              		.loc 1 276 0 discriminator 18
 780 0124 1832     		adds	r2, r2, #24
 781 0126 9342     		cmp	r3, r2
 782 0128 26D0     		beq	.L35
 276:Drivers/STM32H7xx_HAL_Driver/Src/stm32h7xx_hal_dma_ex.c ****     {
 783              		.loc 1 276 0 discriminator 20
 784 012a 1832     		adds	r2, r2, #24
 785 012c 9342     		cmp	r3, r2
 786 012e 23D0     		beq	.L35
 276:Drivers/STM32H7xx_HAL_Driver/Src/stm32h7xx_hal_dma_ex.c ****     {
 787              		.loc 1 276 0 discriminator 22
 788 0130 1832     		adds	r2, r2, #24
 789 0132 9342     		cmp	r3, r2
 790 0134 20D0     		beq	.L35
 276:Drivers/STM32H7xx_HAL_Driver/Src/stm32h7xx_hal_dma_ex.c ****     {
 791              		.loc 1 276 0 discriminator 24
 792 0136 1832     		adds	r2, r2, #24
 793 0138 9342     		cmp	r3, r2
 794 013a 1DD0     		beq	.L35
 276:Drivers/STM32H7xx_HAL_Driver/Src/stm32h7xx_hal_dma_ex.c ****     {
 795              		.loc 1 276 0 discriminator 26
 796 013c 1832     		adds	r2, r2, #24
 797 013e 9342     		cmp	r3, r2
 798 0140 1AD0     		beq	.L35
 276:Drivers/STM32H7xx_HAL_Driver/Src/stm32h7xx_hal_dma_ex.c ****     {
 799              		.loc 1 276 0 discriminator 28
 800 0142 1832     		adds	r2, r2, #24
 801 0144 9342     		cmp	r3, r2
 802 0146 17D0     		beq	.L35
 276:Drivers/STM32H7xx_HAL_Driver/Src/stm32h7xx_hal_dma_ex.c ****     {
 803              		.loc 1 276 0 discriminator 30
 804 0148 324A     		ldr	r2, .L54+8
 805 014a 9342     		cmp	r3, r2
 806 014c 14D0     		beq	.L35
 276:Drivers/STM32H7xx_HAL_Driver/Src/stm32h7xx_hal_dma_ex.c ****     {
 807              		.loc 1 276 0 discriminator 32
 808 014e 1432     		adds	r2, r2, #20
 809 0150 9342     		cmp	r3, r2
 810 0152 11D0     		beq	.L35
 276:Drivers/STM32H7xx_HAL_Driver/Src/stm32h7xx_hal_dma_ex.c ****     {
 811              		.loc 1 276 0 discriminator 34
 812 0154 1432     		adds	r2, r2, #20
 813 0156 9342     		cmp	r3, r2
 814 0158 0ED0     		beq	.L35
 276:Drivers/STM32H7xx_HAL_Driver/Src/stm32h7xx_hal_dma_ex.c ****     {
ARM GAS  /tmp/ccdCpe1u.s 			page 30


 815              		.loc 1 276 0 discriminator 36
 816 015a 1432     		adds	r2, r2, #20
 817 015c 9342     		cmp	r3, r2
 818 015e 0BD0     		beq	.L35
 276:Drivers/STM32H7xx_HAL_Driver/Src/stm32h7xx_hal_dma_ex.c ****     {
 819              		.loc 1 276 0 discriminator 38
 820 0160 1432     		adds	r2, r2, #20
 821 0162 9342     		cmp	r3, r2
 822 0164 08D0     		beq	.L35
 276:Drivers/STM32H7xx_HAL_Driver/Src/stm32h7xx_hal_dma_ex.c ****     {
 823              		.loc 1 276 0 discriminator 40
 824 0166 1432     		adds	r2, r2, #20
 825 0168 9342     		cmp	r3, r2
 826 016a 05D0     		beq	.L35
 276:Drivers/STM32H7xx_HAL_Driver/Src/stm32h7xx_hal_dma_ex.c ****     {
 827              		.loc 1 276 0 discriminator 42
 828 016c 1432     		adds	r2, r2, #20
 829 016e 9342     		cmp	r3, r2
 830 0170 02D0     		beq	.L35
 276:Drivers/STM32H7xx_HAL_Driver/Src/stm32h7xx_hal_dma_ex.c ****     {
 831              		.loc 1 276 0 discriminator 44
 832 0172 1432     		adds	r2, r2, #20
 833 0174 9342     		cmp	r3, r2
 834 0176 07D1     		bne	.L36
 835              	.L35:
 279:Drivers/STM32H7xx_HAL_Driver/Src/stm32h7xx_hal_dma_ex.c **** 
 836              		.loc 1 279 0 is_stmt 1
 837 0178 636E     		ldr	r3, [r4, #100]
 838 017a A26E     		ldr	r2, [r4, #104]
 839 017c 5A60     		str	r2, [r3, #4]
 281:Drivers/STM32H7xx_HAL_Driver/Src/stm32h7xx_hal_dma_ex.c ****       {
 840              		.loc 1 281 0
 841 017e E36E     		ldr	r3, [r4, #108]
 842 0180 13B1     		cbz	r3, .L36
 284:Drivers/STM32H7xx_HAL_Driver/Src/stm32h7xx_hal_dma_ex.c ****       }
 843              		.loc 1 284 0
 844 0182 236F     		ldr	r3, [r4, #112]
 845 0184 626F     		ldr	r2, [r4, #116]
 846 0186 5A60     		str	r2, [r3, #4]
 847              	.L36:
 288:Drivers/STM32H7xx_HAL_Driver/Src/stm32h7xx_hal_dma_ex.c ****     {
 848              		.loc 1 288 0
 849 0188 2368     		ldr	r3, [r4]
 850 018a 2049     		ldr	r1, .L54
 851 018c 204A     		ldr	r2, .L54+4
 852 018e 9342     		cmp	r3, r2
 853 0190 18BF     		it	ne
 854 0192 8B42     		cmpne	r3, r1
 855 0194 40D0     		beq	.L37
 288:Drivers/STM32H7xx_HAL_Driver/Src/stm32h7xx_hal_dma_ex.c ****     {
 856              		.loc 1 288 0 is_stmt 0 discriminator 2
 857 0196 1832     		adds	r2, r2, #24
 858 0198 9342     		cmp	r3, r2
 859 019a 3DD0     		beq	.L37
 288:Drivers/STM32H7xx_HAL_Driver/Src/stm32h7xx_hal_dma_ex.c ****     {
 860              		.loc 1 288 0 discriminator 4
 861 019c 1832     		adds	r2, r2, #24
ARM GAS  /tmp/ccdCpe1u.s 			page 31


 862 019e 9342     		cmp	r3, r2
 863 01a0 3AD0     		beq	.L37
 288:Drivers/STM32H7xx_HAL_Driver/Src/stm32h7xx_hal_dma_ex.c ****     {
 864              		.loc 1 288 0 discriminator 6
 865 01a2 1832     		adds	r2, r2, #24
 866 01a4 9342     		cmp	r3, r2
 867 01a6 37D0     		beq	.L37
 288:Drivers/STM32H7xx_HAL_Driver/Src/stm32h7xx_hal_dma_ex.c ****     {
 868              		.loc 1 288 0 discriminator 8
 869 01a8 1832     		adds	r2, r2, #24
 870 01aa 9342     		cmp	r3, r2
 871 01ac 34D0     		beq	.L37
 288:Drivers/STM32H7xx_HAL_Driver/Src/stm32h7xx_hal_dma_ex.c ****     {
 872              		.loc 1 288 0 discriminator 10
 873 01ae 1832     		adds	r2, r2, #24
 874 01b0 9342     		cmp	r3, r2
 875 01b2 31D0     		beq	.L37
 288:Drivers/STM32H7xx_HAL_Driver/Src/stm32h7xx_hal_dma_ex.c ****     {
 876              		.loc 1 288 0 discriminator 12
 877 01b4 1832     		adds	r2, r2, #24
 878 01b6 9342     		cmp	r3, r2
 879 01b8 2ED0     		beq	.L37
 288:Drivers/STM32H7xx_HAL_Driver/Src/stm32h7xx_hal_dma_ex.c ****     {
 880              		.loc 1 288 0 discriminator 14
 881 01ba 02F55672 		add	r2, r2, #856
 882 01be 9342     		cmp	r3, r2
 883 01c0 2AD0     		beq	.L37
 288:Drivers/STM32H7xx_HAL_Driver/Src/stm32h7xx_hal_dma_ex.c ****     {
 884              		.loc 1 288 0 discriminator 16
 885 01c2 1832     		adds	r2, r2, #24
 886 01c4 9342     		cmp	r3, r2
 887 01c6 27D0     		beq	.L37
 288:Drivers/STM32H7xx_HAL_Driver/Src/stm32h7xx_hal_dma_ex.c ****     {
 888              		.loc 1 288 0 discriminator 18
 889 01c8 1832     		adds	r2, r2, #24
 890 01ca 9342     		cmp	r3, r2
 891 01cc 24D0     		beq	.L37
 288:Drivers/STM32H7xx_HAL_Driver/Src/stm32h7xx_hal_dma_ex.c ****     {
 892              		.loc 1 288 0 discriminator 20
 893 01ce 1832     		adds	r2, r2, #24
 894 01d0 9342     		cmp	r3, r2
 895 01d2 21D0     		beq	.L37
 288:Drivers/STM32H7xx_HAL_Driver/Src/stm32h7xx_hal_dma_ex.c ****     {
 896              		.loc 1 288 0 discriminator 22
 897 01d4 1832     		adds	r2, r2, #24
 898 01d6 9342     		cmp	r3, r2
 899 01d8 1ED0     		beq	.L37
 288:Drivers/STM32H7xx_HAL_Driver/Src/stm32h7xx_hal_dma_ex.c ****     {
 900              		.loc 1 288 0 discriminator 24
 901 01da 1832     		adds	r2, r2, #24
 902 01dc 9342     		cmp	r3, r2
 903 01de 1BD0     		beq	.L37
 288:Drivers/STM32H7xx_HAL_Driver/Src/stm32h7xx_hal_dma_ex.c ****     {
 904              		.loc 1 288 0 discriminator 26
 905 01e0 1832     		adds	r2, r2, #24
 906 01e2 9342     		cmp	r3, r2
 907 01e4 18D0     		beq	.L37
ARM GAS  /tmp/ccdCpe1u.s 			page 32


 288:Drivers/STM32H7xx_HAL_Driver/Src/stm32h7xx_hal_dma_ex.c ****     {
 908              		.loc 1 288 0 discriminator 28
 909 01e6 1832     		adds	r2, r2, #24
 910 01e8 9342     		cmp	r3, r2
 911 01ea 15D0     		beq	.L37
 303:Drivers/STM32H7xx_HAL_Driver/Src/stm32h7xx_hal_dma_ex.c **** 
 912              		.loc 1 303 0 is_stmt 1
 913 01ec 1A68     		ldr	r2, [r3]
 914 01ee 22F00E02 		bic	r2, r2, #14
 915 01f2 42F00A02 		orr	r2, r2, #10
 916 01f6 1A60     		str	r2, [r3]
 305:Drivers/STM32H7xx_HAL_Driver/Src/stm32h7xx_hal_dma_ex.c ****       {
 917              		.loc 1 305 0
 918 01f8 236C     		ldr	r3, [r4, #64]
 919 01fa 002B     		cmp	r3, #0
 920 01fc 00F0B680 		beq	.L52
 921              	.L38:
 308:Drivers/STM32H7xx_HAL_Driver/Src/stm32h7xx_hal_dma_ex.c ****       }
 922              		.loc 1 308 0
 923 0200 2268     		ldr	r2, [r4]
 924 0202 1368     		ldr	r3, [r2]
 925 0204 43F00403 		orr	r3, r3, #4
 926 0208 1360     		str	r3, [r2]
 927 020a 19E0     		b	.L41
 928              	.L55:
 929              		.align	2
 930              	.L54:
 931 020c 10000240 		.word	1073872912
 932 0210 28000240 		.word	1073872936
 933 0214 08540258 		.word	1476547592
 934              	.L37:
 291:Drivers/STM32H7xx_HAL_Driver/Src/stm32h7xx_hal_dma_ex.c ****       ((DMA_Stream_TypeDef   *)hdma->Instance)->FCR |= DMA_IT_FE;
 935              		.loc 1 291 0
 936 0218 1A68     		ldr	r2, [r3]
 937 021a 22F01E02 		bic	r2, r2, #30
 938 021e 42F01602 		orr	r2, r2, #22
 939 0222 1A60     		str	r2, [r3]
 292:Drivers/STM32H7xx_HAL_Driver/Src/stm32h7xx_hal_dma_ex.c **** 
 940              		.loc 1 292 0
 941 0224 2268     		ldr	r2, [r4]
 942 0226 5369     		ldr	r3, [r2, #20]
 943 0228 43F08003 		orr	r3, r3, #128
 944 022c 5361     		str	r3, [r2, #20]
 294:Drivers/STM32H7xx_HAL_Driver/Src/stm32h7xx_hal_dma_ex.c ****       {
 945              		.loc 1 294 0
 946 022e 236C     		ldr	r3, [r4, #64]
 947 0230 002B     		cmp	r3, #0
 948 0232 00F09680 		beq	.L53
 949              	.L40:
 297:Drivers/STM32H7xx_HAL_Driver/Src/stm32h7xx_hal_dma_ex.c ****       }
 950              		.loc 1 297 0
 951 0236 2268     		ldr	r2, [r4]
 952 0238 1368     		ldr	r3, [r2]
 953 023a 43F00803 		orr	r3, r3, #8
 954 023e 1360     		str	r3, [r2]
 955              	.L41:
 312:Drivers/STM32H7xx_HAL_Driver/Src/stm32h7xx_hal_dma_ex.c ****     {
ARM GAS  /tmp/ccdCpe1u.s 			page 33


 956              		.loc 1 312 0
 957 0240 2368     		ldr	r3, [r4]
 958 0242 5149     		ldr	r1, .L56
 959 0244 514A     		ldr	r2, .L56+4
 960 0246 9342     		cmp	r3, r2
 961 0248 18BF     		it	ne
 962 024a 8B42     		cmpne	r3, r1
 963 024c 42D0     		beq	.L42
 312:Drivers/STM32H7xx_HAL_Driver/Src/stm32h7xx_hal_dma_ex.c ****     {
 964              		.loc 1 312 0 is_stmt 0 discriminator 2
 965 024e 1832     		adds	r2, r2, #24
 966 0250 9342     		cmp	r3, r2
 967 0252 3FD0     		beq	.L42
 312:Drivers/STM32H7xx_HAL_Driver/Src/stm32h7xx_hal_dma_ex.c ****     {
 968              		.loc 1 312 0 discriminator 4
 969 0254 1832     		adds	r2, r2, #24
 970 0256 9342     		cmp	r3, r2
 971 0258 3CD0     		beq	.L42
 312:Drivers/STM32H7xx_HAL_Driver/Src/stm32h7xx_hal_dma_ex.c ****     {
 972              		.loc 1 312 0 discriminator 6
 973 025a 1832     		adds	r2, r2, #24
 974 025c 9342     		cmp	r3, r2
 975 025e 39D0     		beq	.L42
 312:Drivers/STM32H7xx_HAL_Driver/Src/stm32h7xx_hal_dma_ex.c ****     {
 976              		.loc 1 312 0 discriminator 8
 977 0260 1832     		adds	r2, r2, #24
 978 0262 9342     		cmp	r3, r2
 979 0264 36D0     		beq	.L42
 312:Drivers/STM32H7xx_HAL_Driver/Src/stm32h7xx_hal_dma_ex.c ****     {
 980              		.loc 1 312 0 discriminator 10
 981 0266 1832     		adds	r2, r2, #24
 982 0268 9342     		cmp	r3, r2
 983 026a 33D0     		beq	.L42
 312:Drivers/STM32H7xx_HAL_Driver/Src/stm32h7xx_hal_dma_ex.c ****     {
 984              		.loc 1 312 0 discriminator 12
 985 026c 1832     		adds	r2, r2, #24
 986 026e 9342     		cmp	r3, r2
 987 0270 30D0     		beq	.L42
 312:Drivers/STM32H7xx_HAL_Driver/Src/stm32h7xx_hal_dma_ex.c ****     {
 988              		.loc 1 312 0 discriminator 14
 989 0272 02F55672 		add	r2, r2, #856
 990 0276 9342     		cmp	r3, r2
 991 0278 2CD0     		beq	.L42
 312:Drivers/STM32H7xx_HAL_Driver/Src/stm32h7xx_hal_dma_ex.c ****     {
 992              		.loc 1 312 0 discriminator 16
 993 027a 1832     		adds	r2, r2, #24
 994 027c 9342     		cmp	r3, r2
 995 027e 29D0     		beq	.L42
 312:Drivers/STM32H7xx_HAL_Driver/Src/stm32h7xx_hal_dma_ex.c ****     {
 996              		.loc 1 312 0 discriminator 18
 997 0280 1832     		adds	r2, r2, #24
 998 0282 9342     		cmp	r3, r2
 999 0284 26D0     		beq	.L42
 312:Drivers/STM32H7xx_HAL_Driver/Src/stm32h7xx_hal_dma_ex.c ****     {
 1000              		.loc 1 312 0 discriminator 20
 1001 0286 1832     		adds	r2, r2, #24
 1002 0288 9342     		cmp	r3, r2
ARM GAS  /tmp/ccdCpe1u.s 			page 34


 1003 028a 23D0     		beq	.L42
 312:Drivers/STM32H7xx_HAL_Driver/Src/stm32h7xx_hal_dma_ex.c ****     {
 1004              		.loc 1 312 0 discriminator 22
 1005 028c 1832     		adds	r2, r2, #24
 1006 028e 9342     		cmp	r3, r2
 1007 0290 20D0     		beq	.L42
 312:Drivers/STM32H7xx_HAL_Driver/Src/stm32h7xx_hal_dma_ex.c ****     {
 1008              		.loc 1 312 0 discriminator 24
 1009 0292 1832     		adds	r2, r2, #24
 1010 0294 9342     		cmp	r3, r2
 1011 0296 1DD0     		beq	.L42
 312:Drivers/STM32H7xx_HAL_Driver/Src/stm32h7xx_hal_dma_ex.c ****     {
 1012              		.loc 1 312 0 discriminator 26
 1013 0298 1832     		adds	r2, r2, #24
 1014 029a 9342     		cmp	r3, r2
 1015 029c 1AD0     		beq	.L42
 312:Drivers/STM32H7xx_HAL_Driver/Src/stm32h7xx_hal_dma_ex.c ****     {
 1016              		.loc 1 312 0 discriminator 28
 1017 029e 1832     		adds	r2, r2, #24
 1018 02a0 9342     		cmp	r3, r2
 1019 02a2 17D0     		beq	.L42
 312:Drivers/STM32H7xx_HAL_Driver/Src/stm32h7xx_hal_dma_ex.c ****     {
 1020              		.loc 1 312 0 discriminator 30
 1021 02a4 3A4A     		ldr	r2, .L56+8
 1022 02a6 9342     		cmp	r3, r2
 1023 02a8 14D0     		beq	.L42
 312:Drivers/STM32H7xx_HAL_Driver/Src/stm32h7xx_hal_dma_ex.c ****     {
 1024              		.loc 1 312 0 discriminator 32
 1025 02aa 1432     		adds	r2, r2, #20
 1026 02ac 9342     		cmp	r3, r2
 1027 02ae 11D0     		beq	.L42
 312:Drivers/STM32H7xx_HAL_Driver/Src/stm32h7xx_hal_dma_ex.c ****     {
 1028              		.loc 1 312 0 discriminator 34
 1029 02b0 1432     		adds	r2, r2, #20
 1030 02b2 9342     		cmp	r3, r2
 1031 02b4 0ED0     		beq	.L42
 312:Drivers/STM32H7xx_HAL_Driver/Src/stm32h7xx_hal_dma_ex.c ****     {
 1032              		.loc 1 312 0 discriminator 36
 1033 02b6 1432     		adds	r2, r2, #20
 1034 02b8 9342     		cmp	r3, r2
 1035 02ba 0BD0     		beq	.L42
 312:Drivers/STM32H7xx_HAL_Driver/Src/stm32h7xx_hal_dma_ex.c ****     {
 1036              		.loc 1 312 0 discriminator 38
 1037 02bc 1432     		adds	r2, r2, #20
 1038 02be 9342     		cmp	r3, r2
 1039 02c0 08D0     		beq	.L42
 312:Drivers/STM32H7xx_HAL_Driver/Src/stm32h7xx_hal_dma_ex.c ****     {
 1040              		.loc 1 312 0 discriminator 40
 1041 02c2 1432     		adds	r2, r2, #20
 1042 02c4 9342     		cmp	r3, r2
 1043 02c6 05D0     		beq	.L42
 312:Drivers/STM32H7xx_HAL_Driver/Src/stm32h7xx_hal_dma_ex.c ****     {
 1044              		.loc 1 312 0 discriminator 42
 1045 02c8 1432     		adds	r2, r2, #20
 1046 02ca 9342     		cmp	r3, r2
 1047 02cc 02D0     		beq	.L42
 312:Drivers/STM32H7xx_HAL_Driver/Src/stm32h7xx_hal_dma_ex.c ****     {
ARM GAS  /tmp/ccdCpe1u.s 			page 35


 1048              		.loc 1 312 0 discriminator 44
 1049 02ce 1432     		adds	r2, r2, #20
 1050 02d0 9342     		cmp	r3, r2
 1051 02d2 0ED1     		bne	.L43
 1052              	.L42:
 315:Drivers/STM32H7xx_HAL_Driver/Src/stm32h7xx_hal_dma_ex.c ****       {
 1053              		.loc 1 315 0 is_stmt 1
 1054 02d4 236E     		ldr	r3, [r4, #96]
 1055 02d6 1A68     		ldr	r2, [r3]
 1056 02d8 12F4803F 		tst	r2, #65536
 1057 02dc 03D0     		beq	.L44
 318:Drivers/STM32H7xx_HAL_Driver/Src/stm32h7xx_hal_dma_ex.c ****       }
 1058              		.loc 1 318 0
 1059 02de 1A68     		ldr	r2, [r3]
 1060 02e0 42F48072 		orr	r2, r2, #256
 1061 02e4 1A60     		str	r2, [r3]
 1062              	.L44:
 321:Drivers/STM32H7xx_HAL_Driver/Src/stm32h7xx_hal_dma_ex.c ****       {
 1063              		.loc 1 321 0
 1064 02e6 E36E     		ldr	r3, [r4, #108]
 1065 02e8 1BB1     		cbz	r3, .L43
 325:Drivers/STM32H7xx_HAL_Driver/Src/stm32h7xx_hal_dma_ex.c ****       }
 1066              		.loc 1 325 0
 1067 02ea 1A68     		ldr	r2, [r3]
 1068 02ec 42F48072 		orr	r2, r2, #256
 1069 02f0 1A60     		str	r2, [r3]
 1070              	.L43:
 330:Drivers/STM32H7xx_HAL_Driver/Src/stm32h7xx_hal_dma_ex.c ****   }
 1071              		.loc 1 330 0
 1072 02f2 2368     		ldr	r3, [r4]
 1073 02f4 2449     		ldr	r1, .L56
 1074 02f6 254A     		ldr	r2, .L56+4
 1075 02f8 9342     		cmp	r3, r2
 1076 02fa 18BF     		it	ne
 1077 02fc 8B42     		cmpne	r3, r1
 1078 02fe 3AD0     		beq	.L45
 330:Drivers/STM32H7xx_HAL_Driver/Src/stm32h7xx_hal_dma_ex.c ****   }
 1079              		.loc 1 330 0 is_stmt 0 discriminator 2
 1080 0300 1832     		adds	r2, r2, #24
 1081 0302 9342     		cmp	r3, r2
 1082 0304 37D0     		beq	.L45
 330:Drivers/STM32H7xx_HAL_Driver/Src/stm32h7xx_hal_dma_ex.c ****   }
 1083              		.loc 1 330 0 discriminator 4
 1084 0306 1832     		adds	r2, r2, #24
 1085 0308 9342     		cmp	r3, r2
 1086 030a 34D0     		beq	.L45
 330:Drivers/STM32H7xx_HAL_Driver/Src/stm32h7xx_hal_dma_ex.c ****   }
 1087              		.loc 1 330 0 discriminator 6
 1088 030c 1832     		adds	r2, r2, #24
 1089 030e 9342     		cmp	r3, r2
 1090 0310 31D0     		beq	.L45
 330:Drivers/STM32H7xx_HAL_Driver/Src/stm32h7xx_hal_dma_ex.c ****   }
 1091              		.loc 1 330 0 discriminator 8
 1092 0312 1832     		adds	r2, r2, #24
 1093 0314 9342     		cmp	r3, r2
 1094 0316 2ED0     		beq	.L45
 330:Drivers/STM32H7xx_HAL_Driver/Src/stm32h7xx_hal_dma_ex.c ****   }
ARM GAS  /tmp/ccdCpe1u.s 			page 36


 1095              		.loc 1 330 0 discriminator 10
 1096 0318 1832     		adds	r2, r2, #24
 1097 031a 9342     		cmp	r3, r2
 1098 031c 2BD0     		beq	.L45
 330:Drivers/STM32H7xx_HAL_Driver/Src/stm32h7xx_hal_dma_ex.c ****   }
 1099              		.loc 1 330 0 discriminator 12
 1100 031e 1832     		adds	r2, r2, #24
 1101 0320 9342     		cmp	r3, r2
 1102 0322 28D0     		beq	.L45
 330:Drivers/STM32H7xx_HAL_Driver/Src/stm32h7xx_hal_dma_ex.c ****   }
 1103              		.loc 1 330 0 discriminator 14
 1104 0324 02F55672 		add	r2, r2, #856
 1105 0328 9342     		cmp	r3, r2
 1106 032a 24D0     		beq	.L45
 330:Drivers/STM32H7xx_HAL_Driver/Src/stm32h7xx_hal_dma_ex.c ****   }
 1107              		.loc 1 330 0 discriminator 16
 1108 032c 1832     		adds	r2, r2, #24
 1109 032e 9342     		cmp	r3, r2
 1110 0330 21D0     		beq	.L45
 330:Drivers/STM32H7xx_HAL_Driver/Src/stm32h7xx_hal_dma_ex.c ****   }
 1111              		.loc 1 330 0 discriminator 18
 1112 0332 1832     		adds	r2, r2, #24
 1113 0334 9342     		cmp	r3, r2
 1114 0336 1ED0     		beq	.L45
 330:Drivers/STM32H7xx_HAL_Driver/Src/stm32h7xx_hal_dma_ex.c ****   }
 1115              		.loc 1 330 0 discriminator 20
 1116 0338 1832     		adds	r2, r2, #24
 1117 033a 9342     		cmp	r3, r2
 1118 033c 1BD0     		beq	.L45
 330:Drivers/STM32H7xx_HAL_Driver/Src/stm32h7xx_hal_dma_ex.c ****   }
 1119              		.loc 1 330 0 discriminator 22
 1120 033e 1832     		adds	r2, r2, #24
 1121 0340 9342     		cmp	r3, r2
 1122 0342 18D0     		beq	.L45
 330:Drivers/STM32H7xx_HAL_Driver/Src/stm32h7xx_hal_dma_ex.c ****   }
 1123              		.loc 1 330 0 discriminator 24
 1124 0344 1832     		adds	r2, r2, #24
 1125 0346 9342     		cmp	r3, r2
 1126 0348 15D0     		beq	.L45
 330:Drivers/STM32H7xx_HAL_Driver/Src/stm32h7xx_hal_dma_ex.c ****   }
 1127              		.loc 1 330 0 discriminator 26
 1128 034a 1832     		adds	r2, r2, #24
 1129 034c 9342     		cmp	r3, r2
 1130 034e 12D0     		beq	.L45
 330:Drivers/STM32H7xx_HAL_Driver/Src/stm32h7xx_hal_dma_ex.c ****   }
 1131              		.loc 1 330 0 discriminator 28
 1132 0350 1832     		adds	r2, r2, #24
 1133 0352 9342     		cmp	r3, r2
 1134 0354 0FD0     		beq	.L45
 330:Drivers/STM32H7xx_HAL_Driver/Src/stm32h7xx_hal_dma_ex.c ****   }
 1135              		.loc 1 330 0 discriminator 30
 1136 0356 1A68     		ldr	r2, [r3]
 1137 0358 42F00102 		orr	r2, r2, #1
 1138 035c 1A60     		str	r2, [r3]
 219:Drivers/STM32H7xx_HAL_Driver/Src/stm32h7xx_hal_dma_ex.c ****   __IO uint32_t *ifcRegister_Base; /* DMA Stream Interrupt Clear register */
 1139              		.loc 1 219 0 is_stmt 1 discriminator 30
 1140 035e 0020     		movs	r0, #0
ARM GAS  /tmp/ccdCpe1u.s 			page 37


 1141 0360 63E6     		b	.L31
 1142              	.L53:
 294:Drivers/STM32H7xx_HAL_Driver/Src/stm32h7xx_hal_dma_ex.c ****       {
 1143              		.loc 1 294 0 discriminator 1
 1144 0362 A36C     		ldr	r3, [r4, #72]
 1145 0364 002B     		cmp	r3, #0
 1146 0366 7FF466AF 		bne	.L40
 1147 036a 69E7     		b	.L41
 1148              	.L52:
 305:Drivers/STM32H7xx_HAL_Driver/Src/stm32h7xx_hal_dma_ex.c ****       {
 1149              		.loc 1 305 0 discriminator 1
 1150 036c A36C     		ldr	r3, [r4, #72]
 1151 036e 002B     		cmp	r3, #0
 1152 0370 7FF446AF 		bne	.L38
 1153 0374 64E7     		b	.L41
 1154              	.L45:
 330:Drivers/STM32H7xx_HAL_Driver/Src/stm32h7xx_hal_dma_ex.c ****   }
 1155              		.loc 1 330 0 discriminator 29
 1156 0376 1A68     		ldr	r2, [r3]
 1157 0378 42F00102 		orr	r2, r2, #1
 1158 037c 1A60     		str	r2, [r3]
 219:Drivers/STM32H7xx_HAL_Driver/Src/stm32h7xx_hal_dma_ex.c ****   __IO uint32_t *ifcRegister_Base; /* DMA Stream Interrupt Clear register */
 1159              		.loc 1 219 0 discriminator 29
 1160 037e 0020     		movs	r0, #0
 330:Drivers/STM32H7xx_HAL_Driver/Src/stm32h7xx_hal_dma_ex.c ****   }
 1161              		.loc 1 330 0 discriminator 29
 1162 0380 53E6     		b	.L31
 1163              	.LVL50:
 1164              	.L47:
 234:Drivers/STM32H7xx_HAL_Driver/Src/stm32h7xx_hal_dma_ex.c **** 
 1165              		.loc 1 234 0
 1166 0382 0220     		movs	r0, #2
 1167              	.LVL51:
 1168 0384 51E6     		b	.L31
 1169              	.L57:
 1170 0386 00BF     		.align	2
 1171              	.L56:
 1172 0388 10000240 		.word	1073872912
 1173 038c 28000240 		.word	1073872936
 1174 0390 08540258 		.word	1476547592
 1175              		.cfi_endproc
 1176              	.LFE145:
 1178              		.section	.text.HAL_DMAEx_ChangeMemory,"ax",%progbits
 1179              		.align	1
 1180              		.global	HAL_DMAEx_ChangeMemory
 1181              		.syntax unified
 1182              		.thumb
 1183              		.thumb_func
 1184              		.fpu fpv5-d16
 1186              	HAL_DMAEx_ChangeMemory:
 1187              	.LFB146:
 358:Drivers/STM32H7xx_HAL_Driver/Src/stm32h7xx_hal_dma_ex.c ****   if(IS_DMA_STREAM_INSTANCE(hdma->Instance) != 0U) /* DMA1 or DMA2 instance */
 1188              		.loc 1 358 0
 1189              		.cfi_startproc
 1190              		@ args = 0, pretend = 0, frame = 0
 1191              		@ frame_needed = 0, uses_anonymous_args = 0
 1192              		@ link register save eliminated.
ARM GAS  /tmp/ccdCpe1u.s 			page 38


 1193              	.LVL52:
 1194 0000 10B4     		push	{r4}
 1195              	.LCFI5:
 1196              		.cfi_def_cfa_offset 4
 1197              		.cfi_offset 4, -4
 359:Drivers/STM32H7xx_HAL_Driver/Src/stm32h7xx_hal_dma_ex.c ****   {
 1198              		.loc 1 359 0
 1199 0002 0368     		ldr	r3, [r0]
 1200 0004 1E4C     		ldr	r4, .L67
 1201 0006 1F48     		ldr	r0, .L67+4
 1202              	.LVL53:
 1203 0008 8342     		cmp	r3, r0
 1204 000a 18BF     		it	ne
 1205 000c A342     		cmpne	r3, r4
 1206 000e 2DD0     		beq	.L59
 359:Drivers/STM32H7xx_HAL_Driver/Src/stm32h7xx_hal_dma_ex.c ****   {
 1207              		.loc 1 359 0 is_stmt 0 discriminator 2
 1208 0010 1830     		adds	r0, r0, #24
 1209 0012 8342     		cmp	r3, r0
 1210 0014 2AD0     		beq	.L59
 359:Drivers/STM32H7xx_HAL_Driver/Src/stm32h7xx_hal_dma_ex.c ****   {
 1211              		.loc 1 359 0 discriminator 4
 1212 0016 1830     		adds	r0, r0, #24
 1213 0018 8342     		cmp	r3, r0
 1214 001a 27D0     		beq	.L59
 359:Drivers/STM32H7xx_HAL_Driver/Src/stm32h7xx_hal_dma_ex.c ****   {
 1215              		.loc 1 359 0 discriminator 6
 1216 001c 1830     		adds	r0, r0, #24
 1217 001e 8342     		cmp	r3, r0
 1218 0020 24D0     		beq	.L59
 359:Drivers/STM32H7xx_HAL_Driver/Src/stm32h7xx_hal_dma_ex.c ****   {
 1219              		.loc 1 359 0 discriminator 8
 1220 0022 1830     		adds	r0, r0, #24
 1221 0024 8342     		cmp	r3, r0
 1222 0026 21D0     		beq	.L59
 359:Drivers/STM32H7xx_HAL_Driver/Src/stm32h7xx_hal_dma_ex.c ****   {
 1223              		.loc 1 359 0 discriminator 10
 1224 0028 1830     		adds	r0, r0, #24
 1225 002a 8342     		cmp	r3, r0
 1226 002c 1ED0     		beq	.L59
 359:Drivers/STM32H7xx_HAL_Driver/Src/stm32h7xx_hal_dma_ex.c ****   {
 1227              		.loc 1 359 0 discriminator 12
 1228 002e 1830     		adds	r0, r0, #24
 1229 0030 8342     		cmp	r3, r0
 1230 0032 1BD0     		beq	.L59
 359:Drivers/STM32H7xx_HAL_Driver/Src/stm32h7xx_hal_dma_ex.c ****   {
 1231              		.loc 1 359 0 discriminator 14
 1232 0034 00F55670 		add	r0, r0, #856
 1233 0038 8342     		cmp	r3, r0
 1234 003a 17D0     		beq	.L59
 359:Drivers/STM32H7xx_HAL_Driver/Src/stm32h7xx_hal_dma_ex.c ****   {
 1235              		.loc 1 359 0 discriminator 16
 1236 003c 1830     		adds	r0, r0, #24
 1237 003e 8342     		cmp	r3, r0
 1238 0040 14D0     		beq	.L59
 359:Drivers/STM32H7xx_HAL_Driver/Src/stm32h7xx_hal_dma_ex.c ****   {
 1239              		.loc 1 359 0 discriminator 18
ARM GAS  /tmp/ccdCpe1u.s 			page 39


 1240 0042 1830     		adds	r0, r0, #24
 1241 0044 8342     		cmp	r3, r0
 1242 0046 11D0     		beq	.L59
 359:Drivers/STM32H7xx_HAL_Driver/Src/stm32h7xx_hal_dma_ex.c ****   {
 1243              		.loc 1 359 0 discriminator 20
 1244 0048 1830     		adds	r0, r0, #24
 1245 004a 8342     		cmp	r3, r0
 1246 004c 0ED0     		beq	.L59
 359:Drivers/STM32H7xx_HAL_Driver/Src/stm32h7xx_hal_dma_ex.c ****   {
 1247              		.loc 1 359 0 discriminator 22
 1248 004e 1830     		adds	r0, r0, #24
 1249 0050 8342     		cmp	r3, r0
 1250 0052 0BD0     		beq	.L59
 359:Drivers/STM32H7xx_HAL_Driver/Src/stm32h7xx_hal_dma_ex.c ****   {
 1251              		.loc 1 359 0 discriminator 24
 1252 0054 1830     		adds	r0, r0, #24
 1253 0056 8342     		cmp	r3, r0
 1254 0058 08D0     		beq	.L59
 359:Drivers/STM32H7xx_HAL_Driver/Src/stm32h7xx_hal_dma_ex.c ****   {
 1255              		.loc 1 359 0 discriminator 26
 1256 005a 1830     		adds	r0, r0, #24
 1257 005c 8342     		cmp	r3, r0
 1258 005e 05D0     		beq	.L59
 359:Drivers/STM32H7xx_HAL_Driver/Src/stm32h7xx_hal_dma_ex.c ****   {
 1259              		.loc 1 359 0 discriminator 28
 1260 0060 1830     		adds	r0, r0, #24
 1261 0062 8342     		cmp	r3, r0
 1262 0064 02D0     		beq	.L59
 374:Drivers/STM32H7xx_HAL_Driver/Src/stm32h7xx_hal_dma_ex.c ****     {
 1263              		.loc 1 374 0 is_stmt 1
 1264 0066 4AB1     		cbz	r2, .L66
 382:Drivers/STM32H7xx_HAL_Driver/Src/stm32h7xx_hal_dma_ex.c ****     }
 1265              		.loc 1 382 0
 1266 0068 1961     		str	r1, [r3, #16]
 1267 006a 01E0     		b	.L63
 1268              	.L59:
 361:Drivers/STM32H7xx_HAL_Driver/Src/stm32h7xx_hal_dma_ex.c ****     {
 1269              		.loc 1 361 0
 1270 006c 22B9     		cbnz	r2, .L62
 364:Drivers/STM32H7xx_HAL_Driver/Src/stm32h7xx_hal_dma_ex.c ****     }
 1271              		.loc 1 364 0
 1272 006e D960     		str	r1, [r3, #12]
 1273              	.L63:
 387:Drivers/STM32H7xx_HAL_Driver/Src/stm32h7xx_hal_dma_ex.c **** 
 1274              		.loc 1 387 0
 1275 0070 0020     		movs	r0, #0
 1276 0072 5DF8044B 		ldr	r4, [sp], #4
 1277              	.LCFI6:
 1278              		.cfi_remember_state
 1279              		.cfi_restore 4
 1280              		.cfi_def_cfa_offset 0
 1281 0076 7047     		bx	lr
 1282              	.L62:
 1283              	.LCFI7:
 1284              		.cfi_restore_state
 369:Drivers/STM32H7xx_HAL_Driver/Src/stm32h7xx_hal_dma_ex.c ****     }
 1285              		.loc 1 369 0
ARM GAS  /tmp/ccdCpe1u.s 			page 40


 1286 0078 1961     		str	r1, [r3, #16]
 1287 007a F9E7     		b	.L63
 1288              	.L66:
 377:Drivers/STM32H7xx_HAL_Driver/Src/stm32h7xx_hal_dma_ex.c ****     }
 1289              		.loc 1 377 0
 1290 007c D960     		str	r1, [r3, #12]
 1291 007e F7E7     		b	.L63
 1292              	.L68:
 1293              		.align	2
 1294              	.L67:
 1295 0080 10000240 		.word	1073872912
 1296 0084 28000240 		.word	1073872936
 1297              		.cfi_endproc
 1298              	.LFE146:
 1300              		.section	.text.HAL_DMAEx_ConfigMuxSync,"ax",%progbits
 1301              		.align	1
 1302              		.global	HAL_DMAEx_ConfigMuxSync
 1303              		.syntax unified
 1304              		.thumb
 1305              		.thumb_func
 1306              		.fpu fpv5-d16
 1308              	HAL_DMAEx_ConfigMuxSync:
 1309              	.LFB147:
 397:Drivers/STM32H7xx_HAL_Driver/Src/stm32h7xx_hal_dma_ex.c ****   uint32_t syncSignalID = 0;
 1310              		.loc 1 397 0
 1311              		.cfi_startproc
 1312              		@ args = 0, pretend = 0, frame = 0
 1313              		@ frame_needed = 0, uses_anonymous_args = 0
 1314              		@ link register save eliminated.
 1315              	.LVL54:
 1316 0000 70B4     		push	{r4, r5, r6}
 1317              	.LCFI8:
 1318              		.cfi_def_cfa_offset 12
 1319              		.cfi_offset 4, -12
 1320              		.cfi_offset 5, -8
 1321              		.cfi_offset 6, -4
 1322              	.LVL55:
 407:Drivers/STM32H7xx_HAL_Driver/Src/stm32h7xx_hal_dma_ex.c ****   {
 1323              		.loc 1 407 0
 1324 0002 0B7A     		ldrb	r3, [r1, #8]	@ zero_extendqisi2
 1325 0004 012B     		cmp	r3, #1
 1326 0006 0CD0     		beq	.L76
 399:Drivers/STM32H7xx_HAL_Driver/Src/stm32h7xx_hal_dma_ex.c **** 
 1327              		.loc 1 399 0
 1328 0008 0022     		movs	r2, #0
 398:Drivers/STM32H7xx_HAL_Driver/Src/stm32h7xx_hal_dma_ex.c ****   uint32_t syncPolarity = 0;
 1329              		.loc 1 398 0
 1330 000a 1546     		mov	r5, r2
 1331              	.LVL56:
 1332              	.L70:
 424:Drivers/STM32H7xx_HAL_Driver/Src/stm32h7xx_hal_dma_ex.c ****   {
 1333              		.loc 1 424 0
 1334 000c 90F83530 		ldrb	r3, [r0, #53]	@ zero_extendqisi2
 1335 0010 DBB2     		uxtb	r3, r3
 1336 0012 012B     		cmp	r3, #1
 1337 0014 08D0     		beq	.L77
 448:Drivers/STM32H7xx_HAL_Driver/Src/stm32h7xx_hal_dma_ex.c **** 
ARM GAS  /tmp/ccdCpe1u.s 			page 41


 1338              		.loc 1 448 0
 1339 0016 4FF40063 		mov	r3, #2048
 1340 001a 4365     		str	r3, [r0, #84]
 451:Drivers/STM32H7xx_HAL_Driver/Src/stm32h7xx_hal_dma_ex.c ****   }
 1341              		.loc 1 451 0
 1342 001c 0120     		movs	r0, #1
 1343              	.LVL57:
 1344              	.L72:
 453:Drivers/STM32H7xx_HAL_Driver/Src/stm32h7xx_hal_dma_ex.c **** 
 1345              		.loc 1 453 0
 1346 001e 70BC     		pop	{r4, r5, r6}
 1347              	.LCFI9:
 1348              		.cfi_remember_state
 1349              		.cfi_restore 6
 1350              		.cfi_restore 5
 1351              		.cfi_restore 4
 1352              		.cfi_def_cfa_offset 0
 1353              	.LVL58:
 1354 0020 7047     		bx	lr
 1355              	.LVL59:
 1356              	.L76:
 1357              	.LCFI10:
 1358              		.cfi_restore_state
 419:Drivers/STM32H7xx_HAL_Driver/Src/stm32h7xx_hal_dma_ex.c ****     syncPolarity = pSyncConfig->SyncPolarity;
 1359              		.loc 1 419 0
 1360 0022 0D68     		ldr	r5, [r1]
 1361              	.LVL60:
 420:Drivers/STM32H7xx_HAL_Driver/Src/stm32h7xx_hal_dma_ex.c ****   }
 1362              		.loc 1 420 0
 1363 0024 4A68     		ldr	r2, [r1, #4]
 1364              	.LVL61:
 1365 0026 F1E7     		b	.L70
 1366              	.L77:
 427:Drivers/STM32H7xx_HAL_Driver/Src/stm32h7xx_hal_dma_ex.c **** 
 1367              		.loc 1 427 0
 1368 0028 90F83430 		ldrb	r3, [r0, #52]	@ zero_extendqisi2
 1369 002c 012B     		cmp	r3, #1
 1370 002e 1DD0     		beq	.L74
 427:Drivers/STM32H7xx_HAL_Driver/Src/stm32h7xx_hal_dma_ex.c **** 
 1371              		.loc 1 427 0 is_stmt 0 discriminator 2
 1372 0030 0123     		movs	r3, #1
 1373 0032 80F83430 		strb	r3, [r0, #52]
 430:Drivers/STM32H7xx_HAL_Driver/Src/stm32h7xx_hal_dma_ex.c **** 
 1374              		.loc 1 430 0 is_stmt 1 discriminator 2
 1375 0036 046E     		ldr	r4, [r0, #96]
 1376 0038 2368     		ldr	r3, [r4]
 1377 003a 23F48133 		bic	r3, r3, #66048
 1378 003e 2360     		str	r3, [r4]
 433:Drivers/STM32H7xx_HAL_Driver/Src/stm32h7xx_hal_dma_ex.c ****                (~DMAMUX_CxCR_DMAREQ_ID) , \
 1379              		.loc 1 433 0 discriminator 2
 1380 0040 066E     		ldr	r6, [r0, #96]
 1381 0042 3468     		ldr	r4, [r6]
 1382 0044 E4B2     		uxtb	r4, r4
 1383 0046 CB68     		ldr	r3, [r1, #12]
 1384 0048 013B     		subs	r3, r3, #1
 1385 004a DB04     		lsls	r3, r3, #19
 1386 004c 43EA0563 		orr	r3, r3, r5, lsl #24
ARM GAS  /tmp/ccdCpe1u.s 			page 42


 1387 0050 1343     		orrs	r3, r3, r2
 1388 0052 0A7A     		ldrb	r2, [r1, #8]	@ zero_extendqisi2
 1389              	.LVL62:
 1390 0054 43EA0243 		orr	r3, r3, r2, lsl #16
 1391 0058 4A7A     		ldrb	r2, [r1, #9]	@ zero_extendqisi2
 1392 005a 43EA4223 		orr	r3, r3, r2, lsl #9
 1393 005e 2343     		orrs	r3, r3, r4
 1394 0060 3360     		str	r3, [r6]
 441:Drivers/STM32H7xx_HAL_Driver/Src/stm32h7xx_hal_dma_ex.c **** 
 1395              		.loc 1 441 0 discriminator 2
 1396 0062 0023     		movs	r3, #0
 1397 0064 80F83430 		strb	r3, [r0, #52]
 443:Drivers/STM32H7xx_HAL_Driver/Src/stm32h7xx_hal_dma_ex.c ****   }
 1398              		.loc 1 443 0 discriminator 2
 1399 0068 1846     		mov	r0, r3
 1400              	.LVL63:
 1401 006a D8E7     		b	.L72
 1402              	.LVL64:
 1403              	.L74:
 427:Drivers/STM32H7xx_HAL_Driver/Src/stm32h7xx_hal_dma_ex.c **** 
 1404              		.loc 1 427 0
 1405 006c 0220     		movs	r0, #2
 1406              	.LVL65:
 1407 006e D6E7     		b	.L72
 1408              		.cfi_endproc
 1409              	.LFE147:
 1411              		.section	.text.HAL_DMAEx_ConfigMuxRequestGenerator,"ax",%progbits
 1412              		.align	1
 1413              		.global	HAL_DMAEx_ConfigMuxRequestGenerator
 1414              		.syntax unified
 1415              		.thumb
 1416              		.thumb_func
 1417              		.fpu fpv5-d16
 1419              	HAL_DMAEx_ConfigMuxRequestGenerator:
 1420              	.LFB148:
 465:Drivers/STM32H7xx_HAL_Driver/Src/stm32h7xx_hal_dma_ex.c ****   HAL_StatusTypeDef status;
 1421              		.loc 1 465 0
 1422              		.cfi_startproc
 1423              		@ args = 0, pretend = 0, frame = 0
 1424              		@ frame_needed = 0, uses_anonymous_args = 0
 1425              		@ link register save eliminated.
 1426              	.LVL66:
 467:Drivers/STM32H7xx_HAL_Driver/Src/stm32h7xx_hal_dma_ex.c **** 
 1427              		.loc 1 467 0
 1428 0000 90F83530 		ldrb	r3, [r0, #53]	@ zero_extendqisi2
 1429              	.LVL67:
 488:Drivers/STM32H7xx_HAL_Driver/Src/stm32h7xx_hal_dma_ex.c ****   {
 1430              		.loc 1 488 0
 1431 0004 C26E     		ldr	r2, [r0, #108]
 1432 0006 72B1     		cbz	r2, .L86
 465:Drivers/STM32H7xx_HAL_Driver/Src/stm32h7xx_hal_dma_ex.c ****   HAL_StatusTypeDef status;
 1433              		.loc 1 465 0
 1434 0008 10B4     		push	{r4}
 1435              	.LCFI11:
 1436              		.cfi_def_cfa_offset 4
 1437              		.cfi_offset 4, -4
 1438 000a DBB2     		uxtb	r3, r3
ARM GAS  /tmp/ccdCpe1u.s 			page 43


 496:Drivers/STM32H7xx_HAL_Driver/Src/stm32h7xx_hal_dma_ex.c ****   {
 1439              		.loc 1 496 0
 1440 000c 1468     		ldr	r4, [r2]
 1441 000e 14F4803F 		tst	r4, #65536
 1442 0012 01D1     		bne	.L81
 496:Drivers/STM32H7xx_HAL_Driver/Src/stm32h7xx_hal_dma_ex.c ****   {
 1443              		.loc 1 496 0 is_stmt 0 discriminator 1
 1444 0014 012B     		cmp	r3, #1
 1445 0016 0AD0     		beq	.L87
 1446              	.L81:
 515:Drivers/STM32H7xx_HAL_Driver/Src/stm32h7xx_hal_dma_ex.c **** 
 1447              		.loc 1 515 0 is_stmt 1
 1448 0018 4FF40063 		mov	r3, #2048
 1449              	.LVL68:
 1450 001c 4365     		str	r3, [r0, #84]
 1451              	.LVL69:
 521:Drivers/STM32H7xx_HAL_Driver/Src/stm32h7xx_hal_dma_ex.c **** }
 1452              		.loc 1 521 0
 1453 001e 0120     		movs	r0, #1
 1454              	.LVL70:
 1455              	.L80:
 522:Drivers/STM32H7xx_HAL_Driver/Src/stm32h7xx_hal_dma_ex.c **** 
 1456              		.loc 1 522 0
 1457 0020 5DF8044B 		ldr	r4, [sp], #4
 1458              	.LCFI12:
 1459              		.cfi_restore 4
 1460              		.cfi_def_cfa_offset 0
 1461 0024 7047     		bx	lr
 1462              	.LVL71:
 1463              	.L86:
 491:Drivers/STM32H7xx_HAL_Driver/Src/stm32h7xx_hal_dma_ex.c **** 
 1464              		.loc 1 491 0
 1465 0026 4023     		movs	r3, #64
 1466              	.LVL72:
 1467 0028 4365     		str	r3, [r0, #84]
 1468              	.LVL73:
 521:Drivers/STM32H7xx_HAL_Driver/Src/stm32h7xx_hal_dma_ex.c **** }
 1469              		.loc 1 521 0
 1470 002a 0120     		movs	r0, #1
 1471              	.LVL74:
 522:Drivers/STM32H7xx_HAL_Driver/Src/stm32h7xx_hal_dma_ex.c **** 
 1472              		.loc 1 522 0
 1473 002c 7047     		bx	lr
 1474              	.LVL75:
 1475              	.L87:
 1476              	.LCFI13:
 1477              		.cfi_def_cfa_offset 4
 1478              		.cfi_offset 4, -4
 501:Drivers/STM32H7xx_HAL_Driver/Src/stm32h7xx_hal_dma_ex.c **** 
 1479              		.loc 1 501 0
 1480 002e 90F83430 		ldrb	r3, [r0, #52]	@ zero_extendqisi2
 1481              	.LVL76:
 1482 0032 012B     		cmp	r3, #1
 1483 0034 0FD0     		beq	.L82
 501:Drivers/STM32H7xx_HAL_Driver/Src/stm32h7xx_hal_dma_ex.c **** 
 1484              		.loc 1 501 0 is_stmt 0 discriminator 2
 1485 0036 0123     		movs	r3, #1
ARM GAS  /tmp/ccdCpe1u.s 			page 44


 1486 0038 80F83430 		strb	r3, [r0, #52]
 504:Drivers/STM32H7xx_HAL_Driver/Src/stm32h7xx_hal_dma_ex.c ****                                   ((pRequestGeneratorConfig->RequestNumber - 1U) << DMAMUX_RGxCR_GN
 1487              		.loc 1 504 0 is_stmt 1 discriminator 2
 1488 003c 0B68     		ldr	r3, [r1]
 505:Drivers/STM32H7xx_HAL_Driver/Src/stm32h7xx_hal_dma_ex.c ****                                   pRequestGeneratorConfig->Polarity;
 1489              		.loc 1 505 0 discriminator 2
 1490 003e 8C68     		ldr	r4, [r1, #8]
 1491 0040 013C     		subs	r4, r4, #1
 504:Drivers/STM32H7xx_HAL_Driver/Src/stm32h7xx_hal_dma_ex.c ****                                   ((pRequestGeneratorConfig->RequestNumber - 1U) << DMAMUX_RGxCR_GN
 1492              		.loc 1 504 0 discriminator 2
 1493 0042 43EAC443 		orr	r3, r3, r4, lsl #19
 506:Drivers/STM32H7xx_HAL_Driver/Src/stm32h7xx_hal_dma_ex.c ****     /* Process Locked */
 1494              		.loc 1 506 0 discriminator 2
 1495 0046 4968     		ldr	r1, [r1, #4]
 1496              	.LVL77:
 505:Drivers/STM32H7xx_HAL_Driver/Src/stm32h7xx_hal_dma_ex.c ****                                   pRequestGeneratorConfig->Polarity;
 1497              		.loc 1 505 0 discriminator 2
 1498 0048 0B43     		orrs	r3, r3, r1
 504:Drivers/STM32H7xx_HAL_Driver/Src/stm32h7xx_hal_dma_ex.c ****                                   ((pRequestGeneratorConfig->RequestNumber - 1U) << DMAMUX_RGxCR_GN
 1499              		.loc 1 504 0 discriminator 2
 1500 004a 1360     		str	r3, [r2]
 508:Drivers/STM32H7xx_HAL_Driver/Src/stm32h7xx_hal_dma_ex.c **** 
 1501              		.loc 1 508 0 discriminator 2
 1502 004c 0023     		movs	r3, #0
 1503 004e 80F83430 		strb	r3, [r0, #52]
 510:Drivers/STM32H7xx_HAL_Driver/Src/stm32h7xx_hal_dma_ex.c ****   }
 1504              		.loc 1 510 0 discriminator 2
 1505 0052 1846     		mov	r0, r3
 1506              	.LVL78:
 1507 0054 E4E7     		b	.L80
 1508              	.LVL79:
 1509              	.L82:
 501:Drivers/STM32H7xx_HAL_Driver/Src/stm32h7xx_hal_dma_ex.c **** 
 1510              		.loc 1 501 0
 1511 0056 0220     		movs	r0, #2
 1512              	.LVL80:
 1513 0058 E2E7     		b	.L80
 1514              		.cfi_endproc
 1515              	.LFE148:
 1517              		.section	.text.HAL_DMAEx_EnableMuxRequestGenerator,"ax",%progbits
 1518              		.align	1
 1519              		.global	HAL_DMAEx_EnableMuxRequestGenerator
 1520              		.syntax unified
 1521              		.thumb
 1522              		.thumb_func
 1523              		.fpu fpv5-d16
 1525              	HAL_DMAEx_EnableMuxRequestGenerator:
 1526              	.LFB149:
 531:Drivers/STM32H7xx_HAL_Driver/Src/stm32h7xx_hal_dma_ex.c ****   /* Check the parameters */
 1527              		.loc 1 531 0
 1528              		.cfi_startproc
 1529              		@ args = 0, pretend = 0, frame = 0
 1530              		@ frame_needed = 0, uses_anonymous_args = 0
 1531              		@ link register save eliminated.
 1532              	.LVL81:
 537:Drivers/STM32H7xx_HAL_Driver/Src/stm32h7xx_hal_dma_ex.c ****   {
 1533              		.loc 1 537 0
ARM GAS  /tmp/ccdCpe1u.s 			page 45


 1534 0000 90F83530 		ldrb	r3, [r0, #53]	@ zero_extendqisi2
 1535 0004 3BB1     		cbz	r3, .L90
 537:Drivers/STM32H7xx_HAL_Driver/Src/stm32h7xx_hal_dma_ex.c ****   {
 1536              		.loc 1 537 0 is_stmt 0 discriminator 1
 1537 0006 C36E     		ldr	r3, [r0, #108]
 1538 0008 3BB1     		cbz	r3, .L91
 540:Drivers/STM32H7xx_HAL_Driver/Src/stm32h7xx_hal_dma_ex.c **** 
 1539              		.loc 1 540 0 is_stmt 1
 1540 000a 1A68     		ldr	r2, [r3]
 1541 000c 42F48032 		orr	r2, r2, #65536
 1542 0010 1A60     		str	r2, [r3]
 542:Drivers/STM32H7xx_HAL_Driver/Src/stm32h7xx_hal_dma_ex.c ****  }
 1543              		.loc 1 542 0
 1544 0012 0020     		movs	r0, #0
 1545              	.LVL82:
 1546 0014 7047     		bx	lr
 1547              	.LVL83:
 1548              	.L90:
 546:Drivers/STM32H7xx_HAL_Driver/Src/stm32h7xx_hal_dma_ex.c ****  }
 1549              		.loc 1 546 0
 1550 0016 0120     		movs	r0, #1
 1551              	.LVL84:
 1552 0018 7047     		bx	lr
 1553              	.LVL85:
 1554              	.L91:
 1555 001a 0120     		movs	r0, #1
 1556              	.LVL86:
 548:Drivers/STM32H7xx_HAL_Driver/Src/stm32h7xx_hal_dma_ex.c **** 
 1557              		.loc 1 548 0
 1558 001c 7047     		bx	lr
 1559              		.cfi_endproc
 1560              	.LFE149:
 1562              		.section	.text.HAL_DMAEx_DisableMuxRequestGenerator,"ax",%progbits
 1563              		.align	1
 1564              		.global	HAL_DMAEx_DisableMuxRequestGenerator
 1565              		.syntax unified
 1566              		.thumb
 1567              		.thumb_func
 1568              		.fpu fpv5-d16
 1570              	HAL_DMAEx_DisableMuxRequestGenerator:
 1571              	.LFB150:
 557:Drivers/STM32H7xx_HAL_Driver/Src/stm32h7xx_hal_dma_ex.c ****   /* Check the parameters */
 1572              		.loc 1 557 0
 1573              		.cfi_startproc
 1574              		@ args = 0, pretend = 0, frame = 0
 1575              		@ frame_needed = 0, uses_anonymous_args = 0
 1576              		@ link register save eliminated.
 1577              	.LVL87:
 563:Drivers/STM32H7xx_HAL_Driver/Src/stm32h7xx_hal_dma_ex.c ****   {
 1578              		.loc 1 563 0
 1579 0000 90F83530 		ldrb	r3, [r0, #53]	@ zero_extendqisi2
 1580 0004 3BB1     		cbz	r3, .L94
 563:Drivers/STM32H7xx_HAL_Driver/Src/stm32h7xx_hal_dma_ex.c ****   {
 1581              		.loc 1 563 0 is_stmt 0 discriminator 1
 1582 0006 C36E     		ldr	r3, [r0, #108]
 1583 0008 3BB1     		cbz	r3, .L95
 566:Drivers/STM32H7xx_HAL_Driver/Src/stm32h7xx_hal_dma_ex.c **** 
ARM GAS  /tmp/ccdCpe1u.s 			page 46


 1584              		.loc 1 566 0 is_stmt 1
 1585 000a 1A68     		ldr	r2, [r3]
 1586 000c 22F48032 		bic	r2, r2, #65536
 1587 0010 1A60     		str	r2, [r3]
 568:Drivers/STM32H7xx_HAL_Driver/Src/stm32h7xx_hal_dma_ex.c ****  }
 1588              		.loc 1 568 0
 1589 0012 0020     		movs	r0, #0
 1590              	.LVL88:
 1591 0014 7047     		bx	lr
 1592              	.LVL89:
 1593              	.L94:
 572:Drivers/STM32H7xx_HAL_Driver/Src/stm32h7xx_hal_dma_ex.c ****  }
 1594              		.loc 1 572 0
 1595 0016 0120     		movs	r0, #1
 1596              	.LVL90:
 1597 0018 7047     		bx	lr
 1598              	.LVL91:
 1599              	.L95:
 1600 001a 0120     		movs	r0, #1
 1601              	.LVL92:
 574:Drivers/STM32H7xx_HAL_Driver/Src/stm32h7xx_hal_dma_ex.c **** 
 1602              		.loc 1 574 0
 1603 001c 7047     		bx	lr
 1604              		.cfi_endproc
 1605              	.LFE150:
 1607              		.section	.text.HAL_DMAEx_MUX_IRQHandler,"ax",%progbits
 1608              		.align	1
 1609              		.global	HAL_DMAEx_MUX_IRQHandler
 1610              		.syntax unified
 1611              		.thumb
 1612              		.thumb_func
 1613              		.fpu fpv5-d16
 1615              	HAL_DMAEx_MUX_IRQHandler:
 1616              	.LFB151:
 583:Drivers/STM32H7xx_HAL_Driver/Src/stm32h7xx_hal_dma_ex.c ****   /* Check for DMAMUX Synchronization overrun */
 1617              		.loc 1 583 0
 1618              		.cfi_startproc
 1619              		@ args = 0, pretend = 0, frame = 0
 1620              		@ frame_needed = 0, uses_anonymous_args = 0
 1621              	.LVL93:
 1622 0000 10B5     		push	{r4, lr}
 1623              	.LCFI14:
 1624              		.cfi_def_cfa_offset 8
 1625              		.cfi_offset 4, -8
 1626              		.cfi_offset 14, -4
 1627 0002 0446     		mov	r4, r0
 585:Drivers/STM32H7xx_HAL_Driver/Src/stm32h7xx_hal_dma_ex.c ****   {
 1628              		.loc 1 585 0
 1629 0004 436E     		ldr	r3, [r0, #100]
 1630 0006 1A68     		ldr	r2, [r3]
 1631 0008 836E     		ldr	r3, [r0, #104]
 1632 000a 1A42     		tst	r2, r3
 1633 000c 0ED0     		beq	.L97
 588:Drivers/STM32H7xx_HAL_Driver/Src/stm32h7xx_hal_dma_ex.c **** 
 1634              		.loc 1 588 0
 1635 000e 026E     		ldr	r2, [r0, #96]
 1636 0010 1368     		ldr	r3, [r2]
ARM GAS  /tmp/ccdCpe1u.s 			page 47


 1637 0012 23F48073 		bic	r3, r3, #256
 1638 0016 1360     		str	r3, [r2]
 591:Drivers/STM32H7xx_HAL_Driver/Src/stm32h7xx_hal_dma_ex.c **** 
 1639              		.loc 1 591 0
 1640 0018 436E     		ldr	r3, [r0, #100]
 1641 001a 826E     		ldr	r2, [r0, #104]
 1642 001c 5A60     		str	r2, [r3, #4]
 594:Drivers/STM32H7xx_HAL_Driver/Src/stm32h7xx_hal_dma_ex.c **** 
 1643              		.loc 1 594 0
 1644 001e 436D     		ldr	r3, [r0, #84]
 1645 0020 43F40073 		orr	r3, r3, #512
 1646 0024 4365     		str	r3, [r0, #84]
 596:Drivers/STM32H7xx_HAL_Driver/Src/stm32h7xx_hal_dma_ex.c ****     {
 1647              		.loc 1 596 0
 1648 0026 C36C     		ldr	r3, [r0, #76]
 1649 0028 03B1     		cbz	r3, .L97
 599:Drivers/STM32H7xx_HAL_Driver/Src/stm32h7xx_hal_dma_ex.c ****     }
 1650              		.loc 1 599 0
 1651 002a 9847     		blx	r3
 1652              	.LVL94:
 1653              	.L97:
 603:Drivers/STM32H7xx_HAL_Driver/Src/stm32h7xx_hal_dma_ex.c ****   {
 1654              		.loc 1 603 0
 1655 002c E36E     		ldr	r3, [r4, #108]
 1656 002e 9BB1     		cbz	r3, .L96
 606:Drivers/STM32H7xx_HAL_Driver/Src/stm32h7xx_hal_dma_ex.c ****     {
 1657              		.loc 1 606 0
 1658 0030 226F     		ldr	r2, [r4, #112]
 1659 0032 1168     		ldr	r1, [r2]
 1660 0034 626F     		ldr	r2, [r4, #116]
 1661 0036 1142     		tst	r1, r2
 1662 0038 0ED0     		beq	.L96
 609:Drivers/STM32H7xx_HAL_Driver/Src/stm32h7xx_hal_dma_ex.c **** 
 1663              		.loc 1 609 0
 1664 003a 1A68     		ldr	r2, [r3]
 1665 003c 22F48072 		bic	r2, r2, #256
 1666 0040 1A60     		str	r2, [r3]
 612:Drivers/STM32H7xx_HAL_Driver/Src/stm32h7xx_hal_dma_ex.c **** 
 1667              		.loc 1 612 0
 1668 0042 236F     		ldr	r3, [r4, #112]
 1669 0044 626F     		ldr	r2, [r4, #116]
 1670 0046 5A60     		str	r2, [r3, #4]
 615:Drivers/STM32H7xx_HAL_Driver/Src/stm32h7xx_hal_dma_ex.c **** 
 1671              		.loc 1 615 0
 1672 0048 636D     		ldr	r3, [r4, #84]
 1673 004a 43F48063 		orr	r3, r3, #1024
 1674 004e 6365     		str	r3, [r4, #84]
 617:Drivers/STM32H7xx_HAL_Driver/Src/stm32h7xx_hal_dma_ex.c ****       {
 1675              		.loc 1 617 0
 1676 0050 E36C     		ldr	r3, [r4, #76]
 1677 0052 0BB1     		cbz	r3, .L96
 620:Drivers/STM32H7xx_HAL_Driver/Src/stm32h7xx_hal_dma_ex.c ****       }
 1678              		.loc 1 620 0
 1679 0054 2046     		mov	r0, r4
 1680 0056 9847     		blx	r3
 1681              	.LVL95:
 1682              	.L96:
ARM GAS  /tmp/ccdCpe1u.s 			page 48


 624:Drivers/STM32H7xx_HAL_Driver/Src/stm32h7xx_hal_dma_ex.c **** 
 1683              		.loc 1 624 0
 1684 0058 10BD     		pop	{r4, pc}
 1685              		.cfi_endproc
 1686              	.LFE151:
 1688              		.text
 1689              	.Letext0:
 1690              		.file 2 "/opt/gcc-arm-none-eabi-7-2017-q4-major/arm-none-eabi/include/machine/_default_types.h"
 1691              		.file 3 "/opt/gcc-arm-none-eabi-7-2017-q4-major/arm-none-eabi/include/sys/_stdint.h"
 1692              		.file 4 "Drivers/CMSIS/Include/core_cm7.h"
 1693              		.file 5 "Drivers/CMSIS/Device/ST/STM32H7xx/Include/system_stm32h7xx.h"
 1694              		.file 6 "Drivers/CMSIS/Device/ST/STM32H7xx/Include/stm32h743xx.h"
 1695              		.file 7 "Drivers/CMSIS/Device/ST/STM32H7xx/Include/stm32h7xx.h"
 1696              		.file 8 "/opt/gcc-arm-none-eabi-7-2017-q4-major/arm-none-eabi/include/sys/lock.h"
 1697              		.file 9 "/opt/gcc-arm-none-eabi-7-2017-q4-major/arm-none-eabi/include/sys/_types.h"
 1698              		.file 10 "/opt/gcc-arm-none-eabi-7-2017-q4-major/lib/gcc/arm-none-eabi/7.2.1/include/stddef.h"
 1699              		.file 11 "/opt/gcc-arm-none-eabi-7-2017-q4-major/arm-none-eabi/include/sys/reent.h"
 1700              		.file 12 "/opt/gcc-arm-none-eabi-7-2017-q4-major/arm-none-eabi/include/math.h"
 1701              		.file 13 "Drivers/STM32H7xx_HAL_Driver/Inc/stm32h7xx_hal_def.h"
 1702              		.file 14 "Drivers/STM32H7xx_HAL_Driver/Inc/stm32h7xx_hal_dma.h"
 1703              		.file 15 "Drivers/STM32H7xx_HAL_Driver/Inc/stm32h7xx_hal_dma_ex.h"
 1704              		.file 16 "Drivers/STM32H7xx_HAL_Driver/Inc/stm32h7xx_hal_flash.h"
 1705              		.file 17 "Drivers/STM32H7xx_HAL_Driver/Inc/stm32h7xx_hal.h"
ARM GAS  /tmp/ccdCpe1u.s 			page 49

