ARM GAS  /tmp/ccBO8Lmd.s 			page 1


   1              		.cpu cortex-m7
   2              		.eabi_attribute 28, 1
   3              		.eabi_attribute 20, 1
   4              		.eabi_attribute 21, 1
   5              		.eabi_attribute 23, 3
   6              		.eabi_attribute 24, 1
   7              		.eabi_attribute 25, 1
   8              		.eabi_attribute 26, 1
   9              		.eabi_attribute 30, 1
  10              		.eabi_attribute 34, 1
  11              		.eabi_attribute 18, 4
  12              		.file	"stm32h7xx_hal_dma.c"
  13              		.text
  14              	.Ltext0:
  15              		.cfi_sections	.debug_frame
  16              		.section	.text.DMA_SetConfig,"ax",%progbits
  17              		.align	1
  18              		.syntax unified
  19              		.thumb
  20              		.thumb_func
  21              		.fpu fpv5-d16
  23              	DMA_SetConfig:
  24              	.LFB156:
  25              		.file 1 "Drivers/STM32H7xx_HAL_Driver/Src/stm32h7xx_hal_dma.c"
   1:Drivers/STM32H7xx_HAL_Driver/Src/stm32h7xx_hal_dma.c **** /**
   2:Drivers/STM32H7xx_HAL_Driver/Src/stm32h7xx_hal_dma.c ****   ******************************************************************************
   3:Drivers/STM32H7xx_HAL_Driver/Src/stm32h7xx_hal_dma.c ****   * @file    stm32h7xx_hal_dma.c
   4:Drivers/STM32H7xx_HAL_Driver/Src/stm32h7xx_hal_dma.c ****   * @author  MCD Application Team
   5:Drivers/STM32H7xx_HAL_Driver/Src/stm32h7xx_hal_dma.c ****   * @brief   DMA HAL module driver.
   6:Drivers/STM32H7xx_HAL_Driver/Src/stm32h7xx_hal_dma.c ****   *          This file provides firmware functions to manage the following
   7:Drivers/STM32H7xx_HAL_Driver/Src/stm32h7xx_hal_dma.c ****   *          functionalities of the Direct Memory Access (DMA) peripheral:
   8:Drivers/STM32H7xx_HAL_Driver/Src/stm32h7xx_hal_dma.c ****   *           + Initialization and de-initialization functions
   9:Drivers/STM32H7xx_HAL_Driver/Src/stm32h7xx_hal_dma.c ****   *           + IO operation functions
  10:Drivers/STM32H7xx_HAL_Driver/Src/stm32h7xx_hal_dma.c ****   *           + Peripheral State and errors functions
  11:Drivers/STM32H7xx_HAL_Driver/Src/stm32h7xx_hal_dma.c ****   ******************************************************************************
  12:Drivers/STM32H7xx_HAL_Driver/Src/stm32h7xx_hal_dma.c ****   * @attention
  13:Drivers/STM32H7xx_HAL_Driver/Src/stm32h7xx_hal_dma.c ****   *
  14:Drivers/STM32H7xx_HAL_Driver/Src/stm32h7xx_hal_dma.c ****   * Copyright (c) 2017 STMicroelectronics.
  15:Drivers/STM32H7xx_HAL_Driver/Src/stm32h7xx_hal_dma.c ****   * All rights reserved.
  16:Drivers/STM32H7xx_HAL_Driver/Src/stm32h7xx_hal_dma.c ****   *
  17:Drivers/STM32H7xx_HAL_Driver/Src/stm32h7xx_hal_dma.c ****   * This software is licensed under terms that can be found in the LICENSE file
  18:Drivers/STM32H7xx_HAL_Driver/Src/stm32h7xx_hal_dma.c ****   * in the root directory of this software component.
  19:Drivers/STM32H7xx_HAL_Driver/Src/stm32h7xx_hal_dma.c ****   * If no LICENSE file comes with this software, it is provided AS-IS.
  20:Drivers/STM32H7xx_HAL_Driver/Src/stm32h7xx_hal_dma.c ****   *
  21:Drivers/STM32H7xx_HAL_Driver/Src/stm32h7xx_hal_dma.c ****   ******************************************************************************
  22:Drivers/STM32H7xx_HAL_Driver/Src/stm32h7xx_hal_dma.c ****   @verbatim
  23:Drivers/STM32H7xx_HAL_Driver/Src/stm32h7xx_hal_dma.c ****   ==============================================================================
  24:Drivers/STM32H7xx_HAL_Driver/Src/stm32h7xx_hal_dma.c ****                         ##### How to use this driver #####
  25:Drivers/STM32H7xx_HAL_Driver/Src/stm32h7xx_hal_dma.c ****   ==============================================================================
  26:Drivers/STM32H7xx_HAL_Driver/Src/stm32h7xx_hal_dma.c ****   [..]
  27:Drivers/STM32H7xx_HAL_Driver/Src/stm32h7xx_hal_dma.c ****    (#) Enable and configure the peripheral to be connected to the DMA Stream
  28:Drivers/STM32H7xx_HAL_Driver/Src/stm32h7xx_hal_dma.c ****        (except for internal SRAM/FLASH memories: no initialization is
  29:Drivers/STM32H7xx_HAL_Driver/Src/stm32h7xx_hal_dma.c ****        necessary) please refer to Reference manual for connection between peripherals
  30:Drivers/STM32H7xx_HAL_Driver/Src/stm32h7xx_hal_dma.c ****        and DMA requests .
  31:Drivers/STM32H7xx_HAL_Driver/Src/stm32h7xx_hal_dma.c **** 
  32:Drivers/STM32H7xx_HAL_Driver/Src/stm32h7xx_hal_dma.c ****    (#) For a given Stream, program the required configuration through the following parameters:
  33:Drivers/STM32H7xx_HAL_Driver/Src/stm32h7xx_hal_dma.c ****        Transfer Direction, Source and Destination data formats,
ARM GAS  /tmp/ccBO8Lmd.s 			page 2


  34:Drivers/STM32H7xx_HAL_Driver/Src/stm32h7xx_hal_dma.c ****        Circular, Normal or peripheral flow control mode, Stream Priority level,
  35:Drivers/STM32H7xx_HAL_Driver/Src/stm32h7xx_hal_dma.c ****        Source and Destination Increment mode, FIFO mode and its Threshold (if needed),
  36:Drivers/STM32H7xx_HAL_Driver/Src/stm32h7xx_hal_dma.c ****        Burst mode for Source and/or Destination (if needed) using HAL_DMA_Init() function.
  37:Drivers/STM32H7xx_HAL_Driver/Src/stm32h7xx_hal_dma.c **** 
  38:Drivers/STM32H7xx_HAL_Driver/Src/stm32h7xx_hal_dma.c ****      *** Polling mode IO operation ***
  39:Drivers/STM32H7xx_HAL_Driver/Src/stm32h7xx_hal_dma.c ****      =================================
  40:Drivers/STM32H7xx_HAL_Driver/Src/stm32h7xx_hal_dma.c ****     [..]
  41:Drivers/STM32H7xx_HAL_Driver/Src/stm32h7xx_hal_dma.c ****           (+) Use HAL_DMA_Start() to start DMA transfer after the configuration of Source
  42:Drivers/STM32H7xx_HAL_Driver/Src/stm32h7xx_hal_dma.c ****               address and destination address and the Length of data to be transferred
  43:Drivers/STM32H7xx_HAL_Driver/Src/stm32h7xx_hal_dma.c ****           (+) Use HAL_DMA_PollForTransfer() to poll for the end of current transfer, in this
  44:Drivers/STM32H7xx_HAL_Driver/Src/stm32h7xx_hal_dma.c ****               case a fixed Timeout can be configured by User depending from his application.
  45:Drivers/STM32H7xx_HAL_Driver/Src/stm32h7xx_hal_dma.c **** 
  46:Drivers/STM32H7xx_HAL_Driver/Src/stm32h7xx_hal_dma.c ****      *** Interrupt mode IO operation ***
  47:Drivers/STM32H7xx_HAL_Driver/Src/stm32h7xx_hal_dma.c ****      ===================================
  48:Drivers/STM32H7xx_HAL_Driver/Src/stm32h7xx_hal_dma.c ****     [..]
  49:Drivers/STM32H7xx_HAL_Driver/Src/stm32h7xx_hal_dma.c ****           (+) Configure the DMA interrupt priority using HAL_NVIC_SetPriority()
  50:Drivers/STM32H7xx_HAL_Driver/Src/stm32h7xx_hal_dma.c ****           (+) Enable the DMA IRQ handler using HAL_NVIC_EnableIRQ()
  51:Drivers/STM32H7xx_HAL_Driver/Src/stm32h7xx_hal_dma.c ****           (+) Use HAL_DMA_Start_IT() to start DMA transfer after the configuration of
  52:Drivers/STM32H7xx_HAL_Driver/Src/stm32h7xx_hal_dma.c ****               Source address and destination address and the Length of data to be transferred. In t
  53:Drivers/STM32H7xx_HAL_Driver/Src/stm32h7xx_hal_dma.c ****               case the DMA interrupt is configured
  54:Drivers/STM32H7xx_HAL_Driver/Src/stm32h7xx_hal_dma.c ****           (+) Use HAL_DMA_IRQHandler() called under DMA_IRQHandler() Interrupt subroutine
  55:Drivers/STM32H7xx_HAL_Driver/Src/stm32h7xx_hal_dma.c ****           (+) At the end of data transfer HAL_DMA_IRQHandler() function is executed and user can
  56:Drivers/STM32H7xx_HAL_Driver/Src/stm32h7xx_hal_dma.c ****               add his own function by customization of function pointer XferCpltCallback and
  57:Drivers/STM32H7xx_HAL_Driver/Src/stm32h7xx_hal_dma.c ****               XferErrorCallback (i.e a member of DMA handle structure).
  58:Drivers/STM32H7xx_HAL_Driver/Src/stm32h7xx_hal_dma.c ****     [..]
  59:Drivers/STM32H7xx_HAL_Driver/Src/stm32h7xx_hal_dma.c ****      (#) Use HAL_DMA_GetState() function to return the DMA state and HAL_DMA_GetError() in case of 
  60:Drivers/STM32H7xx_HAL_Driver/Src/stm32h7xx_hal_dma.c ****          detection.
  61:Drivers/STM32H7xx_HAL_Driver/Src/stm32h7xx_hal_dma.c **** 
  62:Drivers/STM32H7xx_HAL_Driver/Src/stm32h7xx_hal_dma.c ****      (#) Use HAL_DMA_Abort() function to abort the current transfer
  63:Drivers/STM32H7xx_HAL_Driver/Src/stm32h7xx_hal_dma.c **** 
  64:Drivers/STM32H7xx_HAL_Driver/Src/stm32h7xx_hal_dma.c ****      -@-   In Memory-to-Memory transfer mode, Circular mode is not allowed.
  65:Drivers/STM32H7xx_HAL_Driver/Src/stm32h7xx_hal_dma.c **** 
  66:Drivers/STM32H7xx_HAL_Driver/Src/stm32h7xx_hal_dma.c ****      -@-   The FIFO is used mainly to reduce bus usage and to allow data packing/unpacking: it is
  67:Drivers/STM32H7xx_HAL_Driver/Src/stm32h7xx_hal_dma.c ****            possible to set different Data Sizes for the Peripheral and the Memory (ie. you can set
  68:Drivers/STM32H7xx_HAL_Driver/Src/stm32h7xx_hal_dma.c ****            Half-Word data size for the peripheral to access its data register and set Word data siz
  69:Drivers/STM32H7xx_HAL_Driver/Src/stm32h7xx_hal_dma.c ****            for the Memory to gain in access time. Each two half words will be packed and written in
  70:Drivers/STM32H7xx_HAL_Driver/Src/stm32h7xx_hal_dma.c ****            a single access to a Word in the Memory).
  71:Drivers/STM32H7xx_HAL_Driver/Src/stm32h7xx_hal_dma.c **** 
  72:Drivers/STM32H7xx_HAL_Driver/Src/stm32h7xx_hal_dma.c ****      -@-   When FIFO is disabled, it is not allowed to configure different Data Sizes for Source
  73:Drivers/STM32H7xx_HAL_Driver/Src/stm32h7xx_hal_dma.c ****            and Destination. In this case the Peripheral Data Size will be applied to both Source
  74:Drivers/STM32H7xx_HAL_Driver/Src/stm32h7xx_hal_dma.c ****            and Destination.
  75:Drivers/STM32H7xx_HAL_Driver/Src/stm32h7xx_hal_dma.c **** 
  76:Drivers/STM32H7xx_HAL_Driver/Src/stm32h7xx_hal_dma.c ****      *** DMA HAL driver macros list ***
  77:Drivers/STM32H7xx_HAL_Driver/Src/stm32h7xx_hal_dma.c ****      =============================================
  78:Drivers/STM32H7xx_HAL_Driver/Src/stm32h7xx_hal_dma.c ****      [..]
  79:Drivers/STM32H7xx_HAL_Driver/Src/stm32h7xx_hal_dma.c ****        Below the list of most used macros in DMA HAL driver.
  80:Drivers/STM32H7xx_HAL_Driver/Src/stm32h7xx_hal_dma.c **** 
  81:Drivers/STM32H7xx_HAL_Driver/Src/stm32h7xx_hal_dma.c ****       (+) __HAL_DMA_ENABLE: Enable the specified DMA Stream.
  82:Drivers/STM32H7xx_HAL_Driver/Src/stm32h7xx_hal_dma.c ****       (+) __HAL_DMA_DISABLE: Disable the specified DMA Stream.
  83:Drivers/STM32H7xx_HAL_Driver/Src/stm32h7xx_hal_dma.c ****       (+) __HAL_DMA_GET_FS: Return the current DMA Stream FIFO filled level.
  84:Drivers/STM32H7xx_HAL_Driver/Src/stm32h7xx_hal_dma.c ****       (+) __HAL_DMA_ENABLE_IT: Enable the specified DMA Stream interrupts.
  85:Drivers/STM32H7xx_HAL_Driver/Src/stm32h7xx_hal_dma.c ****       (+) __HAL_DMA_DISABLE_IT: Disable the specified DMA Stream interrupts.
  86:Drivers/STM32H7xx_HAL_Driver/Src/stm32h7xx_hal_dma.c ****       (+) __HAL_DMA_GET_IT_SOURCE: Check whether the specified DMA Stream interrupt has occurred or
  87:Drivers/STM32H7xx_HAL_Driver/Src/stm32h7xx_hal_dma.c **** 
  88:Drivers/STM32H7xx_HAL_Driver/Src/stm32h7xx_hal_dma.c ****      [..]
  89:Drivers/STM32H7xx_HAL_Driver/Src/stm32h7xx_hal_dma.c ****       (@) You can refer to the DMA HAL driver header file for more useful macros.
  90:Drivers/STM32H7xx_HAL_Driver/Src/stm32h7xx_hal_dma.c **** 
ARM GAS  /tmp/ccBO8Lmd.s 			page 3


  91:Drivers/STM32H7xx_HAL_Driver/Src/stm32h7xx_hal_dma.c ****   @endverbatim
  92:Drivers/STM32H7xx_HAL_Driver/Src/stm32h7xx_hal_dma.c ****   */
  93:Drivers/STM32H7xx_HAL_Driver/Src/stm32h7xx_hal_dma.c **** 
  94:Drivers/STM32H7xx_HAL_Driver/Src/stm32h7xx_hal_dma.c **** /* Includes ------------------------------------------------------------------*/
  95:Drivers/STM32H7xx_HAL_Driver/Src/stm32h7xx_hal_dma.c **** #include "stm32h7xx_hal.h"
  96:Drivers/STM32H7xx_HAL_Driver/Src/stm32h7xx_hal_dma.c **** 
  97:Drivers/STM32H7xx_HAL_Driver/Src/stm32h7xx_hal_dma.c **** /** @addtogroup STM32H7xx_HAL_Driver
  98:Drivers/STM32H7xx_HAL_Driver/Src/stm32h7xx_hal_dma.c ****   * @{
  99:Drivers/STM32H7xx_HAL_Driver/Src/stm32h7xx_hal_dma.c ****   */
 100:Drivers/STM32H7xx_HAL_Driver/Src/stm32h7xx_hal_dma.c **** 
 101:Drivers/STM32H7xx_HAL_Driver/Src/stm32h7xx_hal_dma.c **** /** @defgroup DMA DMA
 102:Drivers/STM32H7xx_HAL_Driver/Src/stm32h7xx_hal_dma.c ****   * @brief DMA HAL module driver
 103:Drivers/STM32H7xx_HAL_Driver/Src/stm32h7xx_hal_dma.c ****   * @{
 104:Drivers/STM32H7xx_HAL_Driver/Src/stm32h7xx_hal_dma.c ****   */
 105:Drivers/STM32H7xx_HAL_Driver/Src/stm32h7xx_hal_dma.c **** 
 106:Drivers/STM32H7xx_HAL_Driver/Src/stm32h7xx_hal_dma.c **** #ifdef HAL_DMA_MODULE_ENABLED
 107:Drivers/STM32H7xx_HAL_Driver/Src/stm32h7xx_hal_dma.c **** 
 108:Drivers/STM32H7xx_HAL_Driver/Src/stm32h7xx_hal_dma.c **** /* Private types -------------------------------------------------------------*/
 109:Drivers/STM32H7xx_HAL_Driver/Src/stm32h7xx_hal_dma.c **** /** @addtogroup DMA_Private_Types
 110:Drivers/STM32H7xx_HAL_Driver/Src/stm32h7xx_hal_dma.c ****   * @{
 111:Drivers/STM32H7xx_HAL_Driver/Src/stm32h7xx_hal_dma.c ****   */
 112:Drivers/STM32H7xx_HAL_Driver/Src/stm32h7xx_hal_dma.c **** typedef struct
 113:Drivers/STM32H7xx_HAL_Driver/Src/stm32h7xx_hal_dma.c **** {
 114:Drivers/STM32H7xx_HAL_Driver/Src/stm32h7xx_hal_dma.c ****   __IO uint32_t ISR;   /*!< DMA interrupt status register */
 115:Drivers/STM32H7xx_HAL_Driver/Src/stm32h7xx_hal_dma.c ****   __IO uint32_t Reserved0;
 116:Drivers/STM32H7xx_HAL_Driver/Src/stm32h7xx_hal_dma.c ****   __IO uint32_t IFCR;  /*!< DMA interrupt flag clear register */
 117:Drivers/STM32H7xx_HAL_Driver/Src/stm32h7xx_hal_dma.c **** } DMA_Base_Registers;
 118:Drivers/STM32H7xx_HAL_Driver/Src/stm32h7xx_hal_dma.c **** 
 119:Drivers/STM32H7xx_HAL_Driver/Src/stm32h7xx_hal_dma.c **** typedef struct
 120:Drivers/STM32H7xx_HAL_Driver/Src/stm32h7xx_hal_dma.c **** {
 121:Drivers/STM32H7xx_HAL_Driver/Src/stm32h7xx_hal_dma.c ****   __IO uint32_t ISR;   /*!< BDMA interrupt status register */
 122:Drivers/STM32H7xx_HAL_Driver/Src/stm32h7xx_hal_dma.c ****   __IO uint32_t IFCR;  /*!< BDMA interrupt flag clear register */
 123:Drivers/STM32H7xx_HAL_Driver/Src/stm32h7xx_hal_dma.c **** } BDMA_Base_Registers;
 124:Drivers/STM32H7xx_HAL_Driver/Src/stm32h7xx_hal_dma.c **** /**
 125:Drivers/STM32H7xx_HAL_Driver/Src/stm32h7xx_hal_dma.c ****   * @}
 126:Drivers/STM32H7xx_HAL_Driver/Src/stm32h7xx_hal_dma.c ****   */
 127:Drivers/STM32H7xx_HAL_Driver/Src/stm32h7xx_hal_dma.c **** 
 128:Drivers/STM32H7xx_HAL_Driver/Src/stm32h7xx_hal_dma.c **** /* Private variables ---------------------------------------------------------*/
 129:Drivers/STM32H7xx_HAL_Driver/Src/stm32h7xx_hal_dma.c **** /* Private constants ---------------------------------------------------------*/
 130:Drivers/STM32H7xx_HAL_Driver/Src/stm32h7xx_hal_dma.c **** /** @addtogroup DMA_Private_Constants
 131:Drivers/STM32H7xx_HAL_Driver/Src/stm32h7xx_hal_dma.c ****  * @{
 132:Drivers/STM32H7xx_HAL_Driver/Src/stm32h7xx_hal_dma.c ****  */
 133:Drivers/STM32H7xx_HAL_Driver/Src/stm32h7xx_hal_dma.c **** #define HAL_TIMEOUT_DMA_ABORT         (5U)  /* 5 ms */
 134:Drivers/STM32H7xx_HAL_Driver/Src/stm32h7xx_hal_dma.c **** 
 135:Drivers/STM32H7xx_HAL_Driver/Src/stm32h7xx_hal_dma.c **** #define BDMA_PERIPH_TO_MEMORY         (0x00000000U)                /*!< Peripheral to memory direct
 136:Drivers/STM32H7xx_HAL_Driver/Src/stm32h7xx_hal_dma.c **** #define BDMA_MEMORY_TO_PERIPH         ((uint32_t)BDMA_CCR_DIR)     /*!< Memory to peripheral direct
 137:Drivers/STM32H7xx_HAL_Driver/Src/stm32h7xx_hal_dma.c **** #define BDMA_MEMORY_TO_MEMORY         ((uint32_t)BDMA_CCR_MEM2MEM) /*!< Memory to memory direction 
 138:Drivers/STM32H7xx_HAL_Driver/Src/stm32h7xx_hal_dma.c **** 
 139:Drivers/STM32H7xx_HAL_Driver/Src/stm32h7xx_hal_dma.c **** /* DMA to BDMA conversion */
 140:Drivers/STM32H7xx_HAL_Driver/Src/stm32h7xx_hal_dma.c **** #define DMA_TO_BDMA_DIRECTION(__DMA_DIRECTION__) (((__DMA_DIRECTION__) == DMA_MEMORY_TO_PERIPH)? BD
 141:Drivers/STM32H7xx_HAL_Driver/Src/stm32h7xx_hal_dma.c ****                                                   ((__DMA_DIRECTION__) == DMA_MEMORY_TO_MEMORY)? BD
 142:Drivers/STM32H7xx_HAL_Driver/Src/stm32h7xx_hal_dma.c ****                                                   BDMA_PERIPH_TO_MEMORY)
 143:Drivers/STM32H7xx_HAL_Driver/Src/stm32h7xx_hal_dma.c **** 
 144:Drivers/STM32H7xx_HAL_Driver/Src/stm32h7xx_hal_dma.c **** #define DMA_TO_BDMA_PERIPHERAL_INC(__DMA_PERIPHERAL_INC__) ((__DMA_PERIPHERAL_INC__) >> 3U)
 145:Drivers/STM32H7xx_HAL_Driver/Src/stm32h7xx_hal_dma.c **** #define DMA_TO_BDMA_MEMORY_INC(__DMA_MEMORY_INC__) ((__DMA_MEMORY_INC__) >> 3U)
 146:Drivers/STM32H7xx_HAL_Driver/Src/stm32h7xx_hal_dma.c **** 
 147:Drivers/STM32H7xx_HAL_Driver/Src/stm32h7xx_hal_dma.c **** #define DMA_TO_BDMA_PDATA_SIZE(__DMA_PDATA_SIZE__) ((__DMA_PDATA_SIZE__) >> 3U)
ARM GAS  /tmp/ccBO8Lmd.s 			page 4


 148:Drivers/STM32H7xx_HAL_Driver/Src/stm32h7xx_hal_dma.c **** #define DMA_TO_BDMA_MDATA_SIZE(__DMA_MDATA_SIZE__) ((__DMA_MDATA_SIZE__) >> 3U)
 149:Drivers/STM32H7xx_HAL_Driver/Src/stm32h7xx_hal_dma.c **** 
 150:Drivers/STM32H7xx_HAL_Driver/Src/stm32h7xx_hal_dma.c **** #define DMA_TO_BDMA_MODE(__DMA_MODE__) ((__DMA_MODE__) >> 3U)
 151:Drivers/STM32H7xx_HAL_Driver/Src/stm32h7xx_hal_dma.c **** 
 152:Drivers/STM32H7xx_HAL_Driver/Src/stm32h7xx_hal_dma.c **** #define DMA_TO_BDMA_PRIORITY(__DMA_PRIORITY__) ((__DMA_PRIORITY__) >> 4U)
 153:Drivers/STM32H7xx_HAL_Driver/Src/stm32h7xx_hal_dma.c **** 
 154:Drivers/STM32H7xx_HAL_Driver/Src/stm32h7xx_hal_dma.c **** #if defined(UART9)
 155:Drivers/STM32H7xx_HAL_Driver/Src/stm32h7xx_hal_dma.c **** #define IS_DMA_UART_USART_REQUEST(__REQUEST__) ((((__REQUEST__) >= DMA_REQUEST_USART1_RX)  &&  ((__
 156:Drivers/STM32H7xx_HAL_Driver/Src/stm32h7xx_hal_dma.c ****                                                  (((__REQUEST__) >= DMA_REQUEST_UART4_RX)  &&  ((__
 157:Drivers/STM32H7xx_HAL_Driver/Src/stm32h7xx_hal_dma.c ****                                                  (((__REQUEST__) >= DMA_REQUEST_USART6_RX) &&  ((__
 158:Drivers/STM32H7xx_HAL_Driver/Src/stm32h7xx_hal_dma.c ****                                                  (((__REQUEST__) >= DMA_REQUEST_UART7_RX)  &&  ((__
 159:Drivers/STM32H7xx_HAL_Driver/Src/stm32h7xx_hal_dma.c ****                                                  (((__REQUEST__) >= DMA_REQUEST_UART9_RX)  &&  ((__
 160:Drivers/STM32H7xx_HAL_Driver/Src/stm32h7xx_hal_dma.c **** #else
 161:Drivers/STM32H7xx_HAL_Driver/Src/stm32h7xx_hal_dma.c **** #define IS_DMA_UART_USART_REQUEST(__REQUEST__) ((((__REQUEST__) >= DMA_REQUEST_USART1_RX)  &&  ((__
 162:Drivers/STM32H7xx_HAL_Driver/Src/stm32h7xx_hal_dma.c ****                                                  (((__REQUEST__) >= DMA_REQUEST_UART4_RX)  &&  ((__
 163:Drivers/STM32H7xx_HAL_Driver/Src/stm32h7xx_hal_dma.c ****                                                  (((__REQUEST__) >= DMA_REQUEST_USART6_RX) &&  ((__
 164:Drivers/STM32H7xx_HAL_Driver/Src/stm32h7xx_hal_dma.c ****                                                  (((__REQUEST__) >= DMA_REQUEST_UART7_RX)  &&  ((__
 165:Drivers/STM32H7xx_HAL_Driver/Src/stm32h7xx_hal_dma.c **** 
 166:Drivers/STM32H7xx_HAL_Driver/Src/stm32h7xx_hal_dma.c **** #endif
 167:Drivers/STM32H7xx_HAL_Driver/Src/stm32h7xx_hal_dma.c **** /**
 168:Drivers/STM32H7xx_HAL_Driver/Src/stm32h7xx_hal_dma.c ****   * @}
 169:Drivers/STM32H7xx_HAL_Driver/Src/stm32h7xx_hal_dma.c ****   */
 170:Drivers/STM32H7xx_HAL_Driver/Src/stm32h7xx_hal_dma.c **** /* Private macros ------------------------------------------------------------*/
 171:Drivers/STM32H7xx_HAL_Driver/Src/stm32h7xx_hal_dma.c **** /* Private functions ---------------------------------------------------------*/
 172:Drivers/STM32H7xx_HAL_Driver/Src/stm32h7xx_hal_dma.c **** /** @addtogroup DMA_Private_Functions
 173:Drivers/STM32H7xx_HAL_Driver/Src/stm32h7xx_hal_dma.c ****   * @{
 174:Drivers/STM32H7xx_HAL_Driver/Src/stm32h7xx_hal_dma.c ****   */
 175:Drivers/STM32H7xx_HAL_Driver/Src/stm32h7xx_hal_dma.c **** static void DMA_SetConfig(DMA_HandleTypeDef *hdma, uint32_t SrcAddress, uint32_t DstAddress, uint32
 176:Drivers/STM32H7xx_HAL_Driver/Src/stm32h7xx_hal_dma.c **** static uint32_t DMA_CalcBaseAndBitshift(DMA_HandleTypeDef *hdma);
 177:Drivers/STM32H7xx_HAL_Driver/Src/stm32h7xx_hal_dma.c **** static HAL_StatusTypeDef DMA_CheckFifoParam(DMA_HandleTypeDef *hdma);
 178:Drivers/STM32H7xx_HAL_Driver/Src/stm32h7xx_hal_dma.c **** static void DMA_CalcDMAMUXChannelBaseAndMask(DMA_HandleTypeDef *hdma);
 179:Drivers/STM32H7xx_HAL_Driver/Src/stm32h7xx_hal_dma.c **** static void DMA_CalcDMAMUXRequestGenBaseAndMask(DMA_HandleTypeDef *hdma);
 180:Drivers/STM32H7xx_HAL_Driver/Src/stm32h7xx_hal_dma.c **** 
 181:Drivers/STM32H7xx_HAL_Driver/Src/stm32h7xx_hal_dma.c **** /**
 182:Drivers/STM32H7xx_HAL_Driver/Src/stm32h7xx_hal_dma.c ****   * @}
 183:Drivers/STM32H7xx_HAL_Driver/Src/stm32h7xx_hal_dma.c ****   */
 184:Drivers/STM32H7xx_HAL_Driver/Src/stm32h7xx_hal_dma.c **** 
 185:Drivers/STM32H7xx_HAL_Driver/Src/stm32h7xx_hal_dma.c **** /* Exported functions ---------------------------------------------------------*/
 186:Drivers/STM32H7xx_HAL_Driver/Src/stm32h7xx_hal_dma.c **** /** @addtogroup DMA_Exported_Functions
 187:Drivers/STM32H7xx_HAL_Driver/Src/stm32h7xx_hal_dma.c ****   * @{
 188:Drivers/STM32H7xx_HAL_Driver/Src/stm32h7xx_hal_dma.c ****   */
 189:Drivers/STM32H7xx_HAL_Driver/Src/stm32h7xx_hal_dma.c **** 
 190:Drivers/STM32H7xx_HAL_Driver/Src/stm32h7xx_hal_dma.c **** /** @addtogroup DMA_Exported_Functions_Group1
 191:Drivers/STM32H7xx_HAL_Driver/Src/stm32h7xx_hal_dma.c ****   *
 192:Drivers/STM32H7xx_HAL_Driver/Src/stm32h7xx_hal_dma.c **** @verbatim
 193:Drivers/STM32H7xx_HAL_Driver/Src/stm32h7xx_hal_dma.c ****  ===============================================================================
 194:Drivers/STM32H7xx_HAL_Driver/Src/stm32h7xx_hal_dma.c ****              ##### Initialization and de-initialization functions  #####
 195:Drivers/STM32H7xx_HAL_Driver/Src/stm32h7xx_hal_dma.c ****  ===============================================================================
 196:Drivers/STM32H7xx_HAL_Driver/Src/stm32h7xx_hal_dma.c ****     [..]
 197:Drivers/STM32H7xx_HAL_Driver/Src/stm32h7xx_hal_dma.c ****     This section provides functions allowing to initialize the DMA Stream source
 198:Drivers/STM32H7xx_HAL_Driver/Src/stm32h7xx_hal_dma.c ****     and destination incrementation and data sizes, transfer direction,
 199:Drivers/STM32H7xx_HAL_Driver/Src/stm32h7xx_hal_dma.c ****     circular/normal mode selection, memory-to-memory mode selection and Stream priority value.
 200:Drivers/STM32H7xx_HAL_Driver/Src/stm32h7xx_hal_dma.c ****     [..]
 201:Drivers/STM32H7xx_HAL_Driver/Src/stm32h7xx_hal_dma.c ****     The HAL_DMA_Init() function follows the DMA configuration procedures as described in
 202:Drivers/STM32H7xx_HAL_Driver/Src/stm32h7xx_hal_dma.c ****     reference manual.
 203:Drivers/STM32H7xx_HAL_Driver/Src/stm32h7xx_hal_dma.c ****     The HAL_DMA_DeInit function allows to deinitialize the DMA stream.
 204:Drivers/STM32H7xx_HAL_Driver/Src/stm32h7xx_hal_dma.c **** 
ARM GAS  /tmp/ccBO8Lmd.s 			page 5


 205:Drivers/STM32H7xx_HAL_Driver/Src/stm32h7xx_hal_dma.c **** @endverbatim
 206:Drivers/STM32H7xx_HAL_Driver/Src/stm32h7xx_hal_dma.c ****   * @{
 207:Drivers/STM32H7xx_HAL_Driver/Src/stm32h7xx_hal_dma.c ****   */
 208:Drivers/STM32H7xx_HAL_Driver/Src/stm32h7xx_hal_dma.c **** 
 209:Drivers/STM32H7xx_HAL_Driver/Src/stm32h7xx_hal_dma.c **** /**
 210:Drivers/STM32H7xx_HAL_Driver/Src/stm32h7xx_hal_dma.c ****   * @brief  Initialize the DMA according to the specified
 211:Drivers/STM32H7xx_HAL_Driver/Src/stm32h7xx_hal_dma.c ****   *         parameters in the DMA_InitTypeDef and create the associated handle.
 212:Drivers/STM32H7xx_HAL_Driver/Src/stm32h7xx_hal_dma.c ****   * @param  hdma: Pointer to a DMA_HandleTypeDef structure that contains
 213:Drivers/STM32H7xx_HAL_Driver/Src/stm32h7xx_hal_dma.c ****   *               the configuration information for the specified DMA Stream.
 214:Drivers/STM32H7xx_HAL_Driver/Src/stm32h7xx_hal_dma.c ****   * @retval HAL status
 215:Drivers/STM32H7xx_HAL_Driver/Src/stm32h7xx_hal_dma.c ****   */
 216:Drivers/STM32H7xx_HAL_Driver/Src/stm32h7xx_hal_dma.c **** HAL_StatusTypeDef HAL_DMA_Init(DMA_HandleTypeDef *hdma)
 217:Drivers/STM32H7xx_HAL_Driver/Src/stm32h7xx_hal_dma.c **** {
 218:Drivers/STM32H7xx_HAL_Driver/Src/stm32h7xx_hal_dma.c ****   uint32_t registerValue;
 219:Drivers/STM32H7xx_HAL_Driver/Src/stm32h7xx_hal_dma.c ****   uint32_t tickstart = HAL_GetTick();
 220:Drivers/STM32H7xx_HAL_Driver/Src/stm32h7xx_hal_dma.c ****   DMA_Base_Registers *regs_dma;
 221:Drivers/STM32H7xx_HAL_Driver/Src/stm32h7xx_hal_dma.c ****   BDMA_Base_Registers *regs_bdma;
 222:Drivers/STM32H7xx_HAL_Driver/Src/stm32h7xx_hal_dma.c **** 
 223:Drivers/STM32H7xx_HAL_Driver/Src/stm32h7xx_hal_dma.c ****   /* Check the DMA peripheral handle */
 224:Drivers/STM32H7xx_HAL_Driver/Src/stm32h7xx_hal_dma.c ****   if(hdma == NULL)
 225:Drivers/STM32H7xx_HAL_Driver/Src/stm32h7xx_hal_dma.c ****   {
 226:Drivers/STM32H7xx_HAL_Driver/Src/stm32h7xx_hal_dma.c ****     return HAL_ERROR;
 227:Drivers/STM32H7xx_HAL_Driver/Src/stm32h7xx_hal_dma.c ****   }
 228:Drivers/STM32H7xx_HAL_Driver/Src/stm32h7xx_hal_dma.c **** 
 229:Drivers/STM32H7xx_HAL_Driver/Src/stm32h7xx_hal_dma.c ****   /* Check the parameters */
 230:Drivers/STM32H7xx_HAL_Driver/Src/stm32h7xx_hal_dma.c ****   assert_param(IS_DMA_ALL_INSTANCE(hdma->Instance));
 231:Drivers/STM32H7xx_HAL_Driver/Src/stm32h7xx_hal_dma.c ****   assert_param(IS_DMA_DIRECTION(hdma->Init.Direction));
 232:Drivers/STM32H7xx_HAL_Driver/Src/stm32h7xx_hal_dma.c ****   assert_param(IS_DMA_PERIPHERAL_INC_STATE(hdma->Init.PeriphInc));
 233:Drivers/STM32H7xx_HAL_Driver/Src/stm32h7xx_hal_dma.c ****   assert_param(IS_DMA_MEMORY_INC_STATE(hdma->Init.MemInc));
 234:Drivers/STM32H7xx_HAL_Driver/Src/stm32h7xx_hal_dma.c ****   assert_param(IS_DMA_PERIPHERAL_DATA_SIZE(hdma->Init.PeriphDataAlignment));
 235:Drivers/STM32H7xx_HAL_Driver/Src/stm32h7xx_hal_dma.c ****   assert_param(IS_DMA_MEMORY_DATA_SIZE(hdma->Init.MemDataAlignment));
 236:Drivers/STM32H7xx_HAL_Driver/Src/stm32h7xx_hal_dma.c ****   assert_param(IS_DMA_MODE(hdma->Init.Mode));
 237:Drivers/STM32H7xx_HAL_Driver/Src/stm32h7xx_hal_dma.c ****   assert_param(IS_DMA_PRIORITY(hdma->Init.Priority));
 238:Drivers/STM32H7xx_HAL_Driver/Src/stm32h7xx_hal_dma.c **** 
 239:Drivers/STM32H7xx_HAL_Driver/Src/stm32h7xx_hal_dma.c ****   if(IS_DMA_STREAM_INSTANCE(hdma->Instance) != 0U) /* DMA1 or DMA2 instance */
 240:Drivers/STM32H7xx_HAL_Driver/Src/stm32h7xx_hal_dma.c ****   {
 241:Drivers/STM32H7xx_HAL_Driver/Src/stm32h7xx_hal_dma.c ****     assert_param(IS_DMA_REQUEST(hdma->Init.Request));
 242:Drivers/STM32H7xx_HAL_Driver/Src/stm32h7xx_hal_dma.c ****     assert_param(IS_DMA_FIFO_MODE_STATE(hdma->Init.FIFOMode));
 243:Drivers/STM32H7xx_HAL_Driver/Src/stm32h7xx_hal_dma.c ****     /* Check the memory burst, peripheral burst and FIFO threshold parameters only
 244:Drivers/STM32H7xx_HAL_Driver/Src/stm32h7xx_hal_dma.c ****        when FIFO mode is enabled */
 245:Drivers/STM32H7xx_HAL_Driver/Src/stm32h7xx_hal_dma.c ****     if(hdma->Init.FIFOMode != DMA_FIFOMODE_DISABLE)
 246:Drivers/STM32H7xx_HAL_Driver/Src/stm32h7xx_hal_dma.c ****     {
 247:Drivers/STM32H7xx_HAL_Driver/Src/stm32h7xx_hal_dma.c ****       assert_param(IS_DMA_FIFO_THRESHOLD(hdma->Init.FIFOThreshold));
 248:Drivers/STM32H7xx_HAL_Driver/Src/stm32h7xx_hal_dma.c ****       assert_param(IS_DMA_MEMORY_BURST(hdma->Init.MemBurst));
 249:Drivers/STM32H7xx_HAL_Driver/Src/stm32h7xx_hal_dma.c ****       assert_param(IS_DMA_PERIPHERAL_BURST(hdma->Init.PeriphBurst));
 250:Drivers/STM32H7xx_HAL_Driver/Src/stm32h7xx_hal_dma.c ****     }
 251:Drivers/STM32H7xx_HAL_Driver/Src/stm32h7xx_hal_dma.c **** 
 252:Drivers/STM32H7xx_HAL_Driver/Src/stm32h7xx_hal_dma.c ****     /* Change DMA peripheral state */
 253:Drivers/STM32H7xx_HAL_Driver/Src/stm32h7xx_hal_dma.c ****     hdma->State = HAL_DMA_STATE_BUSY;
 254:Drivers/STM32H7xx_HAL_Driver/Src/stm32h7xx_hal_dma.c **** 
 255:Drivers/STM32H7xx_HAL_Driver/Src/stm32h7xx_hal_dma.c ****     /* Allocate lock resource */
 256:Drivers/STM32H7xx_HAL_Driver/Src/stm32h7xx_hal_dma.c ****     __HAL_UNLOCK(hdma);
 257:Drivers/STM32H7xx_HAL_Driver/Src/stm32h7xx_hal_dma.c **** 
 258:Drivers/STM32H7xx_HAL_Driver/Src/stm32h7xx_hal_dma.c ****     /* Disable the peripheral */
 259:Drivers/STM32H7xx_HAL_Driver/Src/stm32h7xx_hal_dma.c ****     __HAL_DMA_DISABLE(hdma);
 260:Drivers/STM32H7xx_HAL_Driver/Src/stm32h7xx_hal_dma.c **** 
 261:Drivers/STM32H7xx_HAL_Driver/Src/stm32h7xx_hal_dma.c ****     /* Check if the DMA Stream is effectively disabled */
ARM GAS  /tmp/ccBO8Lmd.s 			page 6


 262:Drivers/STM32H7xx_HAL_Driver/Src/stm32h7xx_hal_dma.c ****     while((((DMA_Stream_TypeDef   *)hdma->Instance)->CR & DMA_SxCR_EN) != 0U)
 263:Drivers/STM32H7xx_HAL_Driver/Src/stm32h7xx_hal_dma.c ****     {
 264:Drivers/STM32H7xx_HAL_Driver/Src/stm32h7xx_hal_dma.c ****       /* Check for the Timeout */
 265:Drivers/STM32H7xx_HAL_Driver/Src/stm32h7xx_hal_dma.c ****       if((HAL_GetTick() - tickstart ) > HAL_TIMEOUT_DMA_ABORT)
 266:Drivers/STM32H7xx_HAL_Driver/Src/stm32h7xx_hal_dma.c ****       {
 267:Drivers/STM32H7xx_HAL_Driver/Src/stm32h7xx_hal_dma.c ****         /* Update error code */
 268:Drivers/STM32H7xx_HAL_Driver/Src/stm32h7xx_hal_dma.c ****         hdma->ErrorCode = HAL_DMA_ERROR_TIMEOUT;
 269:Drivers/STM32H7xx_HAL_Driver/Src/stm32h7xx_hal_dma.c **** 
 270:Drivers/STM32H7xx_HAL_Driver/Src/stm32h7xx_hal_dma.c ****         /* Change the DMA state */
 271:Drivers/STM32H7xx_HAL_Driver/Src/stm32h7xx_hal_dma.c ****         hdma->State = HAL_DMA_STATE_ERROR;
 272:Drivers/STM32H7xx_HAL_Driver/Src/stm32h7xx_hal_dma.c **** 
 273:Drivers/STM32H7xx_HAL_Driver/Src/stm32h7xx_hal_dma.c ****         return HAL_ERROR;
 274:Drivers/STM32H7xx_HAL_Driver/Src/stm32h7xx_hal_dma.c ****       }
 275:Drivers/STM32H7xx_HAL_Driver/Src/stm32h7xx_hal_dma.c ****     }
 276:Drivers/STM32H7xx_HAL_Driver/Src/stm32h7xx_hal_dma.c **** 
 277:Drivers/STM32H7xx_HAL_Driver/Src/stm32h7xx_hal_dma.c ****     /* Get the CR register value */
 278:Drivers/STM32H7xx_HAL_Driver/Src/stm32h7xx_hal_dma.c ****     registerValue = ((DMA_Stream_TypeDef   *)hdma->Instance)->CR;
 279:Drivers/STM32H7xx_HAL_Driver/Src/stm32h7xx_hal_dma.c **** 
 280:Drivers/STM32H7xx_HAL_Driver/Src/stm32h7xx_hal_dma.c ****     /* Clear CHSEL, MBURST, PBURST, PL, MSIZE, PSIZE, MINC, PINC, CIRC, DIR, CT and DBM bits */
 281:Drivers/STM32H7xx_HAL_Driver/Src/stm32h7xx_hal_dma.c ****     registerValue &= ((uint32_t)~(DMA_SxCR_MBURST | DMA_SxCR_PBURST | \
 282:Drivers/STM32H7xx_HAL_Driver/Src/stm32h7xx_hal_dma.c ****                         DMA_SxCR_PL    | DMA_SxCR_MSIZE  | DMA_SxCR_PSIZE  | \
 283:Drivers/STM32H7xx_HAL_Driver/Src/stm32h7xx_hal_dma.c ****                         DMA_SxCR_MINC  | DMA_SxCR_PINC   | DMA_SxCR_CIRC   | \
 284:Drivers/STM32H7xx_HAL_Driver/Src/stm32h7xx_hal_dma.c ****                         DMA_SxCR_DIR   | DMA_SxCR_CT     | DMA_SxCR_DBM));
 285:Drivers/STM32H7xx_HAL_Driver/Src/stm32h7xx_hal_dma.c **** 
 286:Drivers/STM32H7xx_HAL_Driver/Src/stm32h7xx_hal_dma.c ****     /* Prepare the DMA Stream configuration */
 287:Drivers/STM32H7xx_HAL_Driver/Src/stm32h7xx_hal_dma.c ****     registerValue |=  hdma->Init.Direction           |
 288:Drivers/STM32H7xx_HAL_Driver/Src/stm32h7xx_hal_dma.c ****             hdma->Init.PeriphInc           | hdma->Init.MemInc           |
 289:Drivers/STM32H7xx_HAL_Driver/Src/stm32h7xx_hal_dma.c ****             hdma->Init.PeriphDataAlignment | hdma->Init.MemDataAlignment |
 290:Drivers/STM32H7xx_HAL_Driver/Src/stm32h7xx_hal_dma.c ****             hdma->Init.Mode                | hdma->Init.Priority;
 291:Drivers/STM32H7xx_HAL_Driver/Src/stm32h7xx_hal_dma.c **** 
 292:Drivers/STM32H7xx_HAL_Driver/Src/stm32h7xx_hal_dma.c ****     /* the Memory burst and peripheral burst are not used when the FIFO is disabled */
 293:Drivers/STM32H7xx_HAL_Driver/Src/stm32h7xx_hal_dma.c ****     if(hdma->Init.FIFOMode == DMA_FIFOMODE_ENABLE)
 294:Drivers/STM32H7xx_HAL_Driver/Src/stm32h7xx_hal_dma.c ****     {
 295:Drivers/STM32H7xx_HAL_Driver/Src/stm32h7xx_hal_dma.c ****       /* Get memory burst and peripheral burst */
 296:Drivers/STM32H7xx_HAL_Driver/Src/stm32h7xx_hal_dma.c ****       registerValue |=  hdma->Init.MemBurst | hdma->Init.PeriphBurst;
 297:Drivers/STM32H7xx_HAL_Driver/Src/stm32h7xx_hal_dma.c ****     }
 298:Drivers/STM32H7xx_HAL_Driver/Src/stm32h7xx_hal_dma.c **** 
 299:Drivers/STM32H7xx_HAL_Driver/Src/stm32h7xx_hal_dma.c ****     /* Work around for Errata 2.22: UART/USART- DMA transfer lock: DMA stream could be
 300:Drivers/STM32H7xx_HAL_Driver/Src/stm32h7xx_hal_dma.c ****                                     lock when transferring data to/from USART/UART */
 301:Drivers/STM32H7xx_HAL_Driver/Src/stm32h7xx_hal_dma.c **** #if (STM32H7_DEV_ID == 0x450UL)
 302:Drivers/STM32H7xx_HAL_Driver/Src/stm32h7xx_hal_dma.c ****     if((DBGMCU->IDCODE & 0xFFFF0000U) >= 0x20000000U)
 303:Drivers/STM32H7xx_HAL_Driver/Src/stm32h7xx_hal_dma.c ****     {
 304:Drivers/STM32H7xx_HAL_Driver/Src/stm32h7xx_hal_dma.c **** #endif /* STM32H7_DEV_ID == 0x450UL */
 305:Drivers/STM32H7xx_HAL_Driver/Src/stm32h7xx_hal_dma.c ****       if(IS_DMA_UART_USART_REQUEST(hdma->Init.Request) != 0U)
 306:Drivers/STM32H7xx_HAL_Driver/Src/stm32h7xx_hal_dma.c ****       {
 307:Drivers/STM32H7xx_HAL_Driver/Src/stm32h7xx_hal_dma.c ****         registerValue |= DMA_SxCR_TRBUFF;
 308:Drivers/STM32H7xx_HAL_Driver/Src/stm32h7xx_hal_dma.c ****       }
 309:Drivers/STM32H7xx_HAL_Driver/Src/stm32h7xx_hal_dma.c **** #if (STM32H7_DEV_ID == 0x450UL)
 310:Drivers/STM32H7xx_HAL_Driver/Src/stm32h7xx_hal_dma.c ****     }
 311:Drivers/STM32H7xx_HAL_Driver/Src/stm32h7xx_hal_dma.c **** #endif /* STM32H7_DEV_ID == 0x450UL */
 312:Drivers/STM32H7xx_HAL_Driver/Src/stm32h7xx_hal_dma.c **** 
 313:Drivers/STM32H7xx_HAL_Driver/Src/stm32h7xx_hal_dma.c ****     /* Write to DMA Stream CR register */
 314:Drivers/STM32H7xx_HAL_Driver/Src/stm32h7xx_hal_dma.c ****     ((DMA_Stream_TypeDef   *)hdma->Instance)->CR = registerValue;
 315:Drivers/STM32H7xx_HAL_Driver/Src/stm32h7xx_hal_dma.c **** 
 316:Drivers/STM32H7xx_HAL_Driver/Src/stm32h7xx_hal_dma.c ****     /* Get the FCR register value */
 317:Drivers/STM32H7xx_HAL_Driver/Src/stm32h7xx_hal_dma.c ****     registerValue = ((DMA_Stream_TypeDef   *)hdma->Instance)->FCR;
 318:Drivers/STM32H7xx_HAL_Driver/Src/stm32h7xx_hal_dma.c **** 
ARM GAS  /tmp/ccBO8Lmd.s 			page 7


 319:Drivers/STM32H7xx_HAL_Driver/Src/stm32h7xx_hal_dma.c ****     /* Clear Direct mode and FIFO threshold bits */
 320:Drivers/STM32H7xx_HAL_Driver/Src/stm32h7xx_hal_dma.c ****     registerValue &= (uint32_t)~(DMA_SxFCR_DMDIS | DMA_SxFCR_FTH);
 321:Drivers/STM32H7xx_HAL_Driver/Src/stm32h7xx_hal_dma.c **** 
 322:Drivers/STM32H7xx_HAL_Driver/Src/stm32h7xx_hal_dma.c ****     /* Prepare the DMA Stream FIFO configuration */
 323:Drivers/STM32H7xx_HAL_Driver/Src/stm32h7xx_hal_dma.c ****     registerValue |= hdma->Init.FIFOMode;
 324:Drivers/STM32H7xx_HAL_Driver/Src/stm32h7xx_hal_dma.c **** 
 325:Drivers/STM32H7xx_HAL_Driver/Src/stm32h7xx_hal_dma.c ****     /* the FIFO threshold is not used when the FIFO mode is disabled */
 326:Drivers/STM32H7xx_HAL_Driver/Src/stm32h7xx_hal_dma.c ****     if(hdma->Init.FIFOMode == DMA_FIFOMODE_ENABLE)
 327:Drivers/STM32H7xx_HAL_Driver/Src/stm32h7xx_hal_dma.c ****     {
 328:Drivers/STM32H7xx_HAL_Driver/Src/stm32h7xx_hal_dma.c ****       /* Get the FIFO threshold */
 329:Drivers/STM32H7xx_HAL_Driver/Src/stm32h7xx_hal_dma.c ****       registerValue |= hdma->Init.FIFOThreshold;
 330:Drivers/STM32H7xx_HAL_Driver/Src/stm32h7xx_hal_dma.c **** 
 331:Drivers/STM32H7xx_HAL_Driver/Src/stm32h7xx_hal_dma.c ****       /* Check compatibility between FIFO threshold level and size of the memory burst */
 332:Drivers/STM32H7xx_HAL_Driver/Src/stm32h7xx_hal_dma.c ****       /* for INCR4, INCR8, INCR16 */
 333:Drivers/STM32H7xx_HAL_Driver/Src/stm32h7xx_hal_dma.c ****       if(hdma->Init.MemBurst != DMA_MBURST_SINGLE)
 334:Drivers/STM32H7xx_HAL_Driver/Src/stm32h7xx_hal_dma.c ****       {
 335:Drivers/STM32H7xx_HAL_Driver/Src/stm32h7xx_hal_dma.c ****         if (DMA_CheckFifoParam(hdma) != HAL_OK)
 336:Drivers/STM32H7xx_HAL_Driver/Src/stm32h7xx_hal_dma.c ****         {
 337:Drivers/STM32H7xx_HAL_Driver/Src/stm32h7xx_hal_dma.c ****           /* Update error code */
 338:Drivers/STM32H7xx_HAL_Driver/Src/stm32h7xx_hal_dma.c ****           hdma->ErrorCode = HAL_DMA_ERROR_PARAM;
 339:Drivers/STM32H7xx_HAL_Driver/Src/stm32h7xx_hal_dma.c **** 
 340:Drivers/STM32H7xx_HAL_Driver/Src/stm32h7xx_hal_dma.c ****           /* Change the DMA state */
 341:Drivers/STM32H7xx_HAL_Driver/Src/stm32h7xx_hal_dma.c ****           hdma->State = HAL_DMA_STATE_READY;
 342:Drivers/STM32H7xx_HAL_Driver/Src/stm32h7xx_hal_dma.c **** 
 343:Drivers/STM32H7xx_HAL_Driver/Src/stm32h7xx_hal_dma.c ****           return HAL_ERROR;
 344:Drivers/STM32H7xx_HAL_Driver/Src/stm32h7xx_hal_dma.c ****         }
 345:Drivers/STM32H7xx_HAL_Driver/Src/stm32h7xx_hal_dma.c ****       }
 346:Drivers/STM32H7xx_HAL_Driver/Src/stm32h7xx_hal_dma.c ****     }
 347:Drivers/STM32H7xx_HAL_Driver/Src/stm32h7xx_hal_dma.c **** 
 348:Drivers/STM32H7xx_HAL_Driver/Src/stm32h7xx_hal_dma.c ****     /* Write to DMA Stream FCR */
 349:Drivers/STM32H7xx_HAL_Driver/Src/stm32h7xx_hal_dma.c ****     ((DMA_Stream_TypeDef   *)hdma->Instance)->FCR = registerValue;
 350:Drivers/STM32H7xx_HAL_Driver/Src/stm32h7xx_hal_dma.c **** 
 351:Drivers/STM32H7xx_HAL_Driver/Src/stm32h7xx_hal_dma.c ****     /* Initialize StreamBaseAddress and StreamIndex parameters to be used to calculate
 352:Drivers/STM32H7xx_HAL_Driver/Src/stm32h7xx_hal_dma.c ****        DMA steam Base Address needed by HAL_DMA_IRQHandler() and HAL_DMA_PollForTransfer() */
 353:Drivers/STM32H7xx_HAL_Driver/Src/stm32h7xx_hal_dma.c ****     regs_dma = (DMA_Base_Registers *)DMA_CalcBaseAndBitshift(hdma);
 354:Drivers/STM32H7xx_HAL_Driver/Src/stm32h7xx_hal_dma.c **** 
 355:Drivers/STM32H7xx_HAL_Driver/Src/stm32h7xx_hal_dma.c ****     /* Clear all interrupt flags */
 356:Drivers/STM32H7xx_HAL_Driver/Src/stm32h7xx_hal_dma.c ****     regs_dma->IFCR = 0x3FUL << (hdma->StreamIndex & 0x1FU);
 357:Drivers/STM32H7xx_HAL_Driver/Src/stm32h7xx_hal_dma.c ****   }
 358:Drivers/STM32H7xx_HAL_Driver/Src/stm32h7xx_hal_dma.c ****   else if(IS_BDMA_CHANNEL_INSTANCE(hdma->Instance) != 0U) /* BDMA instance(s) */
 359:Drivers/STM32H7xx_HAL_Driver/Src/stm32h7xx_hal_dma.c ****   {
 360:Drivers/STM32H7xx_HAL_Driver/Src/stm32h7xx_hal_dma.c ****     if(IS_BDMA_CHANNEL_DMAMUX_INSTANCE(hdma->Instance) != 0U)
 361:Drivers/STM32H7xx_HAL_Driver/Src/stm32h7xx_hal_dma.c ****     {
 362:Drivers/STM32H7xx_HAL_Driver/Src/stm32h7xx_hal_dma.c ****       /* Check the request parameter */
 363:Drivers/STM32H7xx_HAL_Driver/Src/stm32h7xx_hal_dma.c ****       assert_param(IS_BDMA_REQUEST(hdma->Init.Request));
 364:Drivers/STM32H7xx_HAL_Driver/Src/stm32h7xx_hal_dma.c ****     }
 365:Drivers/STM32H7xx_HAL_Driver/Src/stm32h7xx_hal_dma.c **** 
 366:Drivers/STM32H7xx_HAL_Driver/Src/stm32h7xx_hal_dma.c ****     /* Change DMA peripheral state */
 367:Drivers/STM32H7xx_HAL_Driver/Src/stm32h7xx_hal_dma.c ****     hdma->State = HAL_DMA_STATE_BUSY;
 368:Drivers/STM32H7xx_HAL_Driver/Src/stm32h7xx_hal_dma.c **** 
 369:Drivers/STM32H7xx_HAL_Driver/Src/stm32h7xx_hal_dma.c ****     /* Allocate lock resource */
 370:Drivers/STM32H7xx_HAL_Driver/Src/stm32h7xx_hal_dma.c ****     __HAL_UNLOCK(hdma);
 371:Drivers/STM32H7xx_HAL_Driver/Src/stm32h7xx_hal_dma.c **** 
 372:Drivers/STM32H7xx_HAL_Driver/Src/stm32h7xx_hal_dma.c ****     /* Get the CR register value */
 373:Drivers/STM32H7xx_HAL_Driver/Src/stm32h7xx_hal_dma.c ****     registerValue = ((BDMA_Channel_TypeDef *)hdma->Instance)->CCR;
 374:Drivers/STM32H7xx_HAL_Driver/Src/stm32h7xx_hal_dma.c **** 
 375:Drivers/STM32H7xx_HAL_Driver/Src/stm32h7xx_hal_dma.c ****     /* Clear PL, MSIZE, PSIZE, MINC, PINC, CIRC, DIR, MEM2MEM, DBM and CT bits */
ARM GAS  /tmp/ccBO8Lmd.s 			page 8


 376:Drivers/STM32H7xx_HAL_Driver/Src/stm32h7xx_hal_dma.c ****     registerValue &= ((uint32_t)~(BDMA_CCR_PL    | BDMA_CCR_MSIZE   | BDMA_CCR_PSIZE  | \
 377:Drivers/STM32H7xx_HAL_Driver/Src/stm32h7xx_hal_dma.c ****                                   BDMA_CCR_MINC  | BDMA_CCR_PINC    | BDMA_CCR_CIRC   | \
 378:Drivers/STM32H7xx_HAL_Driver/Src/stm32h7xx_hal_dma.c ****                                   BDMA_CCR_DIR   | BDMA_CCR_MEM2MEM | BDMA_CCR_DBM    | \
 379:Drivers/STM32H7xx_HAL_Driver/Src/stm32h7xx_hal_dma.c ****                                   BDMA_CCR_CT));
 380:Drivers/STM32H7xx_HAL_Driver/Src/stm32h7xx_hal_dma.c **** 
 381:Drivers/STM32H7xx_HAL_Driver/Src/stm32h7xx_hal_dma.c ****     /* Prepare the DMA Channel configuration */
 382:Drivers/STM32H7xx_HAL_Driver/Src/stm32h7xx_hal_dma.c ****     registerValue |=  DMA_TO_BDMA_DIRECTION(hdma->Init.Direction)            |
 383:Drivers/STM32H7xx_HAL_Driver/Src/stm32h7xx_hal_dma.c ****                       DMA_TO_BDMA_PERIPHERAL_INC(hdma->Init.PeriphInc)       |
 384:Drivers/STM32H7xx_HAL_Driver/Src/stm32h7xx_hal_dma.c ****                       DMA_TO_BDMA_MEMORY_INC(hdma->Init.MemInc)              |
 385:Drivers/STM32H7xx_HAL_Driver/Src/stm32h7xx_hal_dma.c ****                       DMA_TO_BDMA_PDATA_SIZE(hdma->Init.PeriphDataAlignment) |
 386:Drivers/STM32H7xx_HAL_Driver/Src/stm32h7xx_hal_dma.c ****                       DMA_TO_BDMA_MDATA_SIZE(hdma->Init.MemDataAlignment)    |
 387:Drivers/STM32H7xx_HAL_Driver/Src/stm32h7xx_hal_dma.c ****                       DMA_TO_BDMA_MODE(hdma->Init.Mode)                      |
 388:Drivers/STM32H7xx_HAL_Driver/Src/stm32h7xx_hal_dma.c ****                       DMA_TO_BDMA_PRIORITY(hdma->Init.Priority);
 389:Drivers/STM32H7xx_HAL_Driver/Src/stm32h7xx_hal_dma.c **** 
 390:Drivers/STM32H7xx_HAL_Driver/Src/stm32h7xx_hal_dma.c ****     /* Write to DMA Channel CR register */
 391:Drivers/STM32H7xx_HAL_Driver/Src/stm32h7xx_hal_dma.c ****     ((BDMA_Channel_TypeDef *)hdma->Instance)->CCR = registerValue;
 392:Drivers/STM32H7xx_HAL_Driver/Src/stm32h7xx_hal_dma.c **** 
 393:Drivers/STM32H7xx_HAL_Driver/Src/stm32h7xx_hal_dma.c ****     /* calculation of the channel index */
 394:Drivers/STM32H7xx_HAL_Driver/Src/stm32h7xx_hal_dma.c ****     hdma->StreamIndex = (((uint32_t)((uint32_t*)hdma->Instance) - (uint32_t)BDMA_Channel0) / ((uint
 395:Drivers/STM32H7xx_HAL_Driver/Src/stm32h7xx_hal_dma.c **** 
 396:Drivers/STM32H7xx_HAL_Driver/Src/stm32h7xx_hal_dma.c ****     /* Initialize StreamBaseAddress and StreamIndex parameters to be used to calculate
 397:Drivers/STM32H7xx_HAL_Driver/Src/stm32h7xx_hal_dma.c ****     DMA steam Base Address needed by HAL_DMA_IRQHandler() and HAL_DMA_PollForTransfer() */
 398:Drivers/STM32H7xx_HAL_Driver/Src/stm32h7xx_hal_dma.c ****     regs_bdma = (BDMA_Base_Registers *)DMA_CalcBaseAndBitshift(hdma);
 399:Drivers/STM32H7xx_HAL_Driver/Src/stm32h7xx_hal_dma.c **** 
 400:Drivers/STM32H7xx_HAL_Driver/Src/stm32h7xx_hal_dma.c ****     /* Clear all interrupt flags */
 401:Drivers/STM32H7xx_HAL_Driver/Src/stm32h7xx_hal_dma.c ****     regs_bdma->IFCR = ((BDMA_IFCR_CGIF0) << (hdma->StreamIndex & 0x1FU));
 402:Drivers/STM32H7xx_HAL_Driver/Src/stm32h7xx_hal_dma.c ****   }
 403:Drivers/STM32H7xx_HAL_Driver/Src/stm32h7xx_hal_dma.c ****   else
 404:Drivers/STM32H7xx_HAL_Driver/Src/stm32h7xx_hal_dma.c ****   {
 405:Drivers/STM32H7xx_HAL_Driver/Src/stm32h7xx_hal_dma.c ****     hdma->ErrorCode = HAL_DMA_ERROR_PARAM;
 406:Drivers/STM32H7xx_HAL_Driver/Src/stm32h7xx_hal_dma.c ****     hdma->State     = HAL_DMA_STATE_ERROR;
 407:Drivers/STM32H7xx_HAL_Driver/Src/stm32h7xx_hal_dma.c **** 
 408:Drivers/STM32H7xx_HAL_Driver/Src/stm32h7xx_hal_dma.c ****     return HAL_ERROR;
 409:Drivers/STM32H7xx_HAL_Driver/Src/stm32h7xx_hal_dma.c ****   }
 410:Drivers/STM32H7xx_HAL_Driver/Src/stm32h7xx_hal_dma.c **** 
 411:Drivers/STM32H7xx_HAL_Driver/Src/stm32h7xx_hal_dma.c ****   if(IS_DMA_DMAMUX_ALL_INSTANCE(hdma->Instance) != 0U) /* No DMAMUX available for BDMA1 */
 412:Drivers/STM32H7xx_HAL_Driver/Src/stm32h7xx_hal_dma.c ****   {
 413:Drivers/STM32H7xx_HAL_Driver/Src/stm32h7xx_hal_dma.c ****     /* Initialize parameters for DMAMUX channel :
 414:Drivers/STM32H7xx_HAL_Driver/Src/stm32h7xx_hal_dma.c ****     DMAmuxChannel, DMAmuxChannelStatus and DMAmuxChannelStatusMask
 415:Drivers/STM32H7xx_HAL_Driver/Src/stm32h7xx_hal_dma.c ****     */
 416:Drivers/STM32H7xx_HAL_Driver/Src/stm32h7xx_hal_dma.c ****     DMA_CalcDMAMUXChannelBaseAndMask(hdma);
 417:Drivers/STM32H7xx_HAL_Driver/Src/stm32h7xx_hal_dma.c **** 
 418:Drivers/STM32H7xx_HAL_Driver/Src/stm32h7xx_hal_dma.c ****     if(hdma->Init.Direction == DMA_MEMORY_TO_MEMORY)
 419:Drivers/STM32H7xx_HAL_Driver/Src/stm32h7xx_hal_dma.c ****     {
 420:Drivers/STM32H7xx_HAL_Driver/Src/stm32h7xx_hal_dma.c ****       /* if memory to memory force the request to 0*/
 421:Drivers/STM32H7xx_HAL_Driver/Src/stm32h7xx_hal_dma.c ****       hdma->Init.Request = DMA_REQUEST_MEM2MEM;
 422:Drivers/STM32H7xx_HAL_Driver/Src/stm32h7xx_hal_dma.c ****     }
 423:Drivers/STM32H7xx_HAL_Driver/Src/stm32h7xx_hal_dma.c **** 
 424:Drivers/STM32H7xx_HAL_Driver/Src/stm32h7xx_hal_dma.c ****     /* Set peripheral request  to DMAMUX channel */
 425:Drivers/STM32H7xx_HAL_Driver/Src/stm32h7xx_hal_dma.c ****     hdma->DMAmuxChannel->CCR = (hdma->Init.Request & DMAMUX_CxCR_DMAREQ_ID);
 426:Drivers/STM32H7xx_HAL_Driver/Src/stm32h7xx_hal_dma.c **** 
 427:Drivers/STM32H7xx_HAL_Driver/Src/stm32h7xx_hal_dma.c ****     /* Clear the DMAMUX synchro overrun flag */
 428:Drivers/STM32H7xx_HAL_Driver/Src/stm32h7xx_hal_dma.c ****     hdma->DMAmuxChannelStatus->CFR = hdma->DMAmuxChannelStatusMask;
 429:Drivers/STM32H7xx_HAL_Driver/Src/stm32h7xx_hal_dma.c **** 
 430:Drivers/STM32H7xx_HAL_Driver/Src/stm32h7xx_hal_dma.c ****     /* Initialize parameters for DMAMUX request generator :
 431:Drivers/STM32H7xx_HAL_Driver/Src/stm32h7xx_hal_dma.c ****     if the DMA request is DMA_REQUEST_GENERATOR0 to DMA_REQUEST_GENERATOR7
 432:Drivers/STM32H7xx_HAL_Driver/Src/stm32h7xx_hal_dma.c ****     */
ARM GAS  /tmp/ccBO8Lmd.s 			page 9


 433:Drivers/STM32H7xx_HAL_Driver/Src/stm32h7xx_hal_dma.c ****     if((hdma->Init.Request >= DMA_REQUEST_GENERATOR0) && (hdma->Init.Request <= DMA_REQUEST_GENERAT
 434:Drivers/STM32H7xx_HAL_Driver/Src/stm32h7xx_hal_dma.c ****     {
 435:Drivers/STM32H7xx_HAL_Driver/Src/stm32h7xx_hal_dma.c ****       /* Initialize parameters for DMAMUX request generator :
 436:Drivers/STM32H7xx_HAL_Driver/Src/stm32h7xx_hal_dma.c ****       DMAmuxRequestGen, DMAmuxRequestGenStatus and DMAmuxRequestGenStatusMask */
 437:Drivers/STM32H7xx_HAL_Driver/Src/stm32h7xx_hal_dma.c ****       DMA_CalcDMAMUXRequestGenBaseAndMask(hdma);
 438:Drivers/STM32H7xx_HAL_Driver/Src/stm32h7xx_hal_dma.c **** 
 439:Drivers/STM32H7xx_HAL_Driver/Src/stm32h7xx_hal_dma.c ****       /* Reset the DMAMUX request generator register */
 440:Drivers/STM32H7xx_HAL_Driver/Src/stm32h7xx_hal_dma.c ****       hdma->DMAmuxRequestGen->RGCR = 0U;
 441:Drivers/STM32H7xx_HAL_Driver/Src/stm32h7xx_hal_dma.c **** 
 442:Drivers/STM32H7xx_HAL_Driver/Src/stm32h7xx_hal_dma.c ****       /* Clear the DMAMUX request generator overrun flag */
 443:Drivers/STM32H7xx_HAL_Driver/Src/stm32h7xx_hal_dma.c ****       hdma->DMAmuxRequestGenStatus->RGCFR = hdma->DMAmuxRequestGenStatusMask;
 444:Drivers/STM32H7xx_HAL_Driver/Src/stm32h7xx_hal_dma.c ****     }
 445:Drivers/STM32H7xx_HAL_Driver/Src/stm32h7xx_hal_dma.c ****     else
 446:Drivers/STM32H7xx_HAL_Driver/Src/stm32h7xx_hal_dma.c ****     {
 447:Drivers/STM32H7xx_HAL_Driver/Src/stm32h7xx_hal_dma.c ****       hdma->DMAmuxRequestGen = 0U;
 448:Drivers/STM32H7xx_HAL_Driver/Src/stm32h7xx_hal_dma.c ****       hdma->DMAmuxRequestGenStatus = 0U;
 449:Drivers/STM32H7xx_HAL_Driver/Src/stm32h7xx_hal_dma.c ****       hdma->DMAmuxRequestGenStatusMask = 0U;
 450:Drivers/STM32H7xx_HAL_Driver/Src/stm32h7xx_hal_dma.c ****     }
 451:Drivers/STM32H7xx_HAL_Driver/Src/stm32h7xx_hal_dma.c ****   }
 452:Drivers/STM32H7xx_HAL_Driver/Src/stm32h7xx_hal_dma.c **** 
 453:Drivers/STM32H7xx_HAL_Driver/Src/stm32h7xx_hal_dma.c ****   /* Initialize the error code */
 454:Drivers/STM32H7xx_HAL_Driver/Src/stm32h7xx_hal_dma.c ****   hdma->ErrorCode = HAL_DMA_ERROR_NONE;
 455:Drivers/STM32H7xx_HAL_Driver/Src/stm32h7xx_hal_dma.c **** 
 456:Drivers/STM32H7xx_HAL_Driver/Src/stm32h7xx_hal_dma.c ****   /* Initialize the DMA state */
 457:Drivers/STM32H7xx_HAL_Driver/Src/stm32h7xx_hal_dma.c ****   hdma->State = HAL_DMA_STATE_READY;
 458:Drivers/STM32H7xx_HAL_Driver/Src/stm32h7xx_hal_dma.c **** 
 459:Drivers/STM32H7xx_HAL_Driver/Src/stm32h7xx_hal_dma.c ****   return HAL_OK;
 460:Drivers/STM32H7xx_HAL_Driver/Src/stm32h7xx_hal_dma.c **** }
 461:Drivers/STM32H7xx_HAL_Driver/Src/stm32h7xx_hal_dma.c **** 
 462:Drivers/STM32H7xx_HAL_Driver/Src/stm32h7xx_hal_dma.c **** /**
 463:Drivers/STM32H7xx_HAL_Driver/Src/stm32h7xx_hal_dma.c ****   * @brief  DeInitializes the DMA peripheral
 464:Drivers/STM32H7xx_HAL_Driver/Src/stm32h7xx_hal_dma.c ****   * @param  hdma: pointer to a DMA_HandleTypeDef structure that contains
 465:Drivers/STM32H7xx_HAL_Driver/Src/stm32h7xx_hal_dma.c ****   *               the configuration information for the specified DMA Stream.
 466:Drivers/STM32H7xx_HAL_Driver/Src/stm32h7xx_hal_dma.c ****   * @retval HAL status
 467:Drivers/STM32H7xx_HAL_Driver/Src/stm32h7xx_hal_dma.c ****   */
 468:Drivers/STM32H7xx_HAL_Driver/Src/stm32h7xx_hal_dma.c **** HAL_StatusTypeDef HAL_DMA_DeInit(DMA_HandleTypeDef *hdma)
 469:Drivers/STM32H7xx_HAL_Driver/Src/stm32h7xx_hal_dma.c **** {
 470:Drivers/STM32H7xx_HAL_Driver/Src/stm32h7xx_hal_dma.c ****   DMA_Base_Registers *regs_dma;
 471:Drivers/STM32H7xx_HAL_Driver/Src/stm32h7xx_hal_dma.c ****   BDMA_Base_Registers *regs_bdma;
 472:Drivers/STM32H7xx_HAL_Driver/Src/stm32h7xx_hal_dma.c **** 
 473:Drivers/STM32H7xx_HAL_Driver/Src/stm32h7xx_hal_dma.c ****   /* Check the DMA peripheral handle */
 474:Drivers/STM32H7xx_HAL_Driver/Src/stm32h7xx_hal_dma.c ****   if(hdma == NULL)
 475:Drivers/STM32H7xx_HAL_Driver/Src/stm32h7xx_hal_dma.c ****   {
 476:Drivers/STM32H7xx_HAL_Driver/Src/stm32h7xx_hal_dma.c ****     return HAL_ERROR;
 477:Drivers/STM32H7xx_HAL_Driver/Src/stm32h7xx_hal_dma.c ****   }
 478:Drivers/STM32H7xx_HAL_Driver/Src/stm32h7xx_hal_dma.c **** 
 479:Drivers/STM32H7xx_HAL_Driver/Src/stm32h7xx_hal_dma.c ****   /* Disable the selected DMA Streamx */
 480:Drivers/STM32H7xx_HAL_Driver/Src/stm32h7xx_hal_dma.c ****   __HAL_DMA_DISABLE(hdma);
 481:Drivers/STM32H7xx_HAL_Driver/Src/stm32h7xx_hal_dma.c **** 
 482:Drivers/STM32H7xx_HAL_Driver/Src/stm32h7xx_hal_dma.c ****   if(IS_DMA_STREAM_INSTANCE(hdma->Instance) != 0U) /* DMA1 or DMA2 instance */
 483:Drivers/STM32H7xx_HAL_Driver/Src/stm32h7xx_hal_dma.c ****   {
 484:Drivers/STM32H7xx_HAL_Driver/Src/stm32h7xx_hal_dma.c ****     /* Reset DMA Streamx control register */
 485:Drivers/STM32H7xx_HAL_Driver/Src/stm32h7xx_hal_dma.c ****     ((DMA_Stream_TypeDef   *)hdma->Instance)->CR   = 0U;
 486:Drivers/STM32H7xx_HAL_Driver/Src/stm32h7xx_hal_dma.c **** 
 487:Drivers/STM32H7xx_HAL_Driver/Src/stm32h7xx_hal_dma.c ****     /* Reset DMA Streamx number of data to transfer register */
 488:Drivers/STM32H7xx_HAL_Driver/Src/stm32h7xx_hal_dma.c ****     ((DMA_Stream_TypeDef   *)hdma->Instance)->NDTR = 0U;
 489:Drivers/STM32H7xx_HAL_Driver/Src/stm32h7xx_hal_dma.c **** 
ARM GAS  /tmp/ccBO8Lmd.s 			page 10


 490:Drivers/STM32H7xx_HAL_Driver/Src/stm32h7xx_hal_dma.c ****     /* Reset DMA Streamx peripheral address register */
 491:Drivers/STM32H7xx_HAL_Driver/Src/stm32h7xx_hal_dma.c ****     ((DMA_Stream_TypeDef   *)hdma->Instance)->PAR  = 0U;
 492:Drivers/STM32H7xx_HAL_Driver/Src/stm32h7xx_hal_dma.c **** 
 493:Drivers/STM32H7xx_HAL_Driver/Src/stm32h7xx_hal_dma.c ****     /* Reset DMA Streamx memory 0 address register */
 494:Drivers/STM32H7xx_HAL_Driver/Src/stm32h7xx_hal_dma.c ****     ((DMA_Stream_TypeDef   *)hdma->Instance)->M0AR = 0U;
 495:Drivers/STM32H7xx_HAL_Driver/Src/stm32h7xx_hal_dma.c **** 
 496:Drivers/STM32H7xx_HAL_Driver/Src/stm32h7xx_hal_dma.c ****     /* Reset DMA Streamx memory 1 address register */
 497:Drivers/STM32H7xx_HAL_Driver/Src/stm32h7xx_hal_dma.c ****     ((DMA_Stream_TypeDef   *)hdma->Instance)->M1AR = 0U;
 498:Drivers/STM32H7xx_HAL_Driver/Src/stm32h7xx_hal_dma.c **** 
 499:Drivers/STM32H7xx_HAL_Driver/Src/stm32h7xx_hal_dma.c ****     /* Reset DMA Streamx FIFO control register */
 500:Drivers/STM32H7xx_HAL_Driver/Src/stm32h7xx_hal_dma.c ****     ((DMA_Stream_TypeDef   *)hdma->Instance)->FCR  = (uint32_t)0x00000021U;
 501:Drivers/STM32H7xx_HAL_Driver/Src/stm32h7xx_hal_dma.c **** 
 502:Drivers/STM32H7xx_HAL_Driver/Src/stm32h7xx_hal_dma.c ****     /* Get DMA steam Base Address */
 503:Drivers/STM32H7xx_HAL_Driver/Src/stm32h7xx_hal_dma.c ****     regs_dma = (DMA_Base_Registers *)DMA_CalcBaseAndBitshift(hdma);
 504:Drivers/STM32H7xx_HAL_Driver/Src/stm32h7xx_hal_dma.c **** 
 505:Drivers/STM32H7xx_HAL_Driver/Src/stm32h7xx_hal_dma.c ****     /* Clear all interrupt flags at correct offset within the register */
 506:Drivers/STM32H7xx_HAL_Driver/Src/stm32h7xx_hal_dma.c ****     regs_dma->IFCR = 0x3FUL << (hdma->StreamIndex & 0x1FU);
 507:Drivers/STM32H7xx_HAL_Driver/Src/stm32h7xx_hal_dma.c ****   }
 508:Drivers/STM32H7xx_HAL_Driver/Src/stm32h7xx_hal_dma.c ****   else if(IS_BDMA_CHANNEL_INSTANCE(hdma->Instance) != 0U) /* BDMA instance(s) */
 509:Drivers/STM32H7xx_HAL_Driver/Src/stm32h7xx_hal_dma.c ****   {
 510:Drivers/STM32H7xx_HAL_Driver/Src/stm32h7xx_hal_dma.c ****     /* Reset DMA Channel control register */
 511:Drivers/STM32H7xx_HAL_Driver/Src/stm32h7xx_hal_dma.c ****     ((BDMA_Channel_TypeDef *)hdma->Instance)->CCR  = 0U;
 512:Drivers/STM32H7xx_HAL_Driver/Src/stm32h7xx_hal_dma.c **** 
 513:Drivers/STM32H7xx_HAL_Driver/Src/stm32h7xx_hal_dma.c ****     /* Reset DMA Channel Number of Data to Transfer register */
 514:Drivers/STM32H7xx_HAL_Driver/Src/stm32h7xx_hal_dma.c ****     ((BDMA_Channel_TypeDef *)hdma->Instance)->CNDTR = 0U;
 515:Drivers/STM32H7xx_HAL_Driver/Src/stm32h7xx_hal_dma.c **** 
 516:Drivers/STM32H7xx_HAL_Driver/Src/stm32h7xx_hal_dma.c ****     /* Reset DMA Channel peripheral address register */
 517:Drivers/STM32H7xx_HAL_Driver/Src/stm32h7xx_hal_dma.c ****     ((BDMA_Channel_TypeDef *)hdma->Instance)->CPAR  = 0U;
 518:Drivers/STM32H7xx_HAL_Driver/Src/stm32h7xx_hal_dma.c **** 
 519:Drivers/STM32H7xx_HAL_Driver/Src/stm32h7xx_hal_dma.c ****     /* Reset DMA Channel memory 0 address register */
 520:Drivers/STM32H7xx_HAL_Driver/Src/stm32h7xx_hal_dma.c ****     ((BDMA_Channel_TypeDef *)hdma->Instance)->CM0AR = 0U;
 521:Drivers/STM32H7xx_HAL_Driver/Src/stm32h7xx_hal_dma.c **** 
 522:Drivers/STM32H7xx_HAL_Driver/Src/stm32h7xx_hal_dma.c ****     /* Reset DMA Channel memory 1 address register */
 523:Drivers/STM32H7xx_HAL_Driver/Src/stm32h7xx_hal_dma.c ****     ((BDMA_Channel_TypeDef *)hdma->Instance)->CM1AR = 0U;
 524:Drivers/STM32H7xx_HAL_Driver/Src/stm32h7xx_hal_dma.c **** 
 525:Drivers/STM32H7xx_HAL_Driver/Src/stm32h7xx_hal_dma.c ****     /* Get DMA steam Base Address */
 526:Drivers/STM32H7xx_HAL_Driver/Src/stm32h7xx_hal_dma.c ****     regs_bdma = (BDMA_Base_Registers *)DMA_CalcBaseAndBitshift(hdma);
 527:Drivers/STM32H7xx_HAL_Driver/Src/stm32h7xx_hal_dma.c **** 
 528:Drivers/STM32H7xx_HAL_Driver/Src/stm32h7xx_hal_dma.c ****     /* Clear all interrupt flags at correct offset within the register */
 529:Drivers/STM32H7xx_HAL_Driver/Src/stm32h7xx_hal_dma.c ****     regs_bdma->IFCR = ((BDMA_IFCR_CGIF0) << (hdma->StreamIndex & 0x1FU));
 530:Drivers/STM32H7xx_HAL_Driver/Src/stm32h7xx_hal_dma.c ****   }
 531:Drivers/STM32H7xx_HAL_Driver/Src/stm32h7xx_hal_dma.c ****   else
 532:Drivers/STM32H7xx_HAL_Driver/Src/stm32h7xx_hal_dma.c ****   {
 533:Drivers/STM32H7xx_HAL_Driver/Src/stm32h7xx_hal_dma.c ****     /* Return error status */
 534:Drivers/STM32H7xx_HAL_Driver/Src/stm32h7xx_hal_dma.c ****     return HAL_ERROR;
 535:Drivers/STM32H7xx_HAL_Driver/Src/stm32h7xx_hal_dma.c ****   }
 536:Drivers/STM32H7xx_HAL_Driver/Src/stm32h7xx_hal_dma.c **** 
 537:Drivers/STM32H7xx_HAL_Driver/Src/stm32h7xx_hal_dma.c **** #if defined (BDMA1) /* No DMAMUX available for BDMA1 available on  STM32H7Ax/Bx devices only */
 538:Drivers/STM32H7xx_HAL_Driver/Src/stm32h7xx_hal_dma.c ****   if(IS_DMA_DMAMUX_ALL_INSTANCE(hdma->Instance) != 0U) /* No DMAMUX available for BDMA1 */
 539:Drivers/STM32H7xx_HAL_Driver/Src/stm32h7xx_hal_dma.c **** #endif /* BDMA1 */
 540:Drivers/STM32H7xx_HAL_Driver/Src/stm32h7xx_hal_dma.c ****   {
 541:Drivers/STM32H7xx_HAL_Driver/Src/stm32h7xx_hal_dma.c ****     /* Initialize parameters for DMAMUX channel :
 542:Drivers/STM32H7xx_HAL_Driver/Src/stm32h7xx_hal_dma.c ****     DMAmuxChannel, DMAmuxChannelStatus and DMAmuxChannelStatusMask */
 543:Drivers/STM32H7xx_HAL_Driver/Src/stm32h7xx_hal_dma.c ****     DMA_CalcDMAMUXChannelBaseAndMask(hdma);
 544:Drivers/STM32H7xx_HAL_Driver/Src/stm32h7xx_hal_dma.c **** 
 545:Drivers/STM32H7xx_HAL_Driver/Src/stm32h7xx_hal_dma.c ****     if(hdma->DMAmuxChannel != 0U)
 546:Drivers/STM32H7xx_HAL_Driver/Src/stm32h7xx_hal_dma.c ****     {
ARM GAS  /tmp/ccBO8Lmd.s 			page 11


 547:Drivers/STM32H7xx_HAL_Driver/Src/stm32h7xx_hal_dma.c ****       /* Resett he DMAMUX channel that corresponds to the DMA stream */
 548:Drivers/STM32H7xx_HAL_Driver/Src/stm32h7xx_hal_dma.c ****       hdma->DMAmuxChannel->CCR = 0U;
 549:Drivers/STM32H7xx_HAL_Driver/Src/stm32h7xx_hal_dma.c **** 
 550:Drivers/STM32H7xx_HAL_Driver/Src/stm32h7xx_hal_dma.c ****       /* Clear the DMAMUX synchro overrun flag */
 551:Drivers/STM32H7xx_HAL_Driver/Src/stm32h7xx_hal_dma.c ****       hdma->DMAmuxChannelStatus->CFR = hdma->DMAmuxChannelStatusMask;
 552:Drivers/STM32H7xx_HAL_Driver/Src/stm32h7xx_hal_dma.c ****     }
 553:Drivers/STM32H7xx_HAL_Driver/Src/stm32h7xx_hal_dma.c **** 
 554:Drivers/STM32H7xx_HAL_Driver/Src/stm32h7xx_hal_dma.c ****     if((hdma->Init.Request >= DMA_REQUEST_GENERATOR0) && (hdma->Init.Request <= DMA_REQUEST_GENERAT
 555:Drivers/STM32H7xx_HAL_Driver/Src/stm32h7xx_hal_dma.c ****     {
 556:Drivers/STM32H7xx_HAL_Driver/Src/stm32h7xx_hal_dma.c ****       /* Initialize parameters for DMAMUX request generator :
 557:Drivers/STM32H7xx_HAL_Driver/Src/stm32h7xx_hal_dma.c ****       DMAmuxRequestGen, DMAmuxRequestGenStatus and DMAmuxRequestGenStatusMask */
 558:Drivers/STM32H7xx_HAL_Driver/Src/stm32h7xx_hal_dma.c ****       DMA_CalcDMAMUXRequestGenBaseAndMask(hdma);
 559:Drivers/STM32H7xx_HAL_Driver/Src/stm32h7xx_hal_dma.c **** 
 560:Drivers/STM32H7xx_HAL_Driver/Src/stm32h7xx_hal_dma.c ****       /* Reset the DMAMUX request generator register */
 561:Drivers/STM32H7xx_HAL_Driver/Src/stm32h7xx_hal_dma.c ****       hdma->DMAmuxRequestGen->RGCR = 0U;
 562:Drivers/STM32H7xx_HAL_Driver/Src/stm32h7xx_hal_dma.c **** 
 563:Drivers/STM32H7xx_HAL_Driver/Src/stm32h7xx_hal_dma.c ****       /* Clear the DMAMUX request generator overrun flag */
 564:Drivers/STM32H7xx_HAL_Driver/Src/stm32h7xx_hal_dma.c ****       hdma->DMAmuxRequestGenStatus->RGCFR = hdma->DMAmuxRequestGenStatusMask;
 565:Drivers/STM32H7xx_HAL_Driver/Src/stm32h7xx_hal_dma.c ****     }
 566:Drivers/STM32H7xx_HAL_Driver/Src/stm32h7xx_hal_dma.c **** 
 567:Drivers/STM32H7xx_HAL_Driver/Src/stm32h7xx_hal_dma.c ****     hdma->DMAmuxRequestGen = 0U;
 568:Drivers/STM32H7xx_HAL_Driver/Src/stm32h7xx_hal_dma.c ****     hdma->DMAmuxRequestGenStatus = 0U;
 569:Drivers/STM32H7xx_HAL_Driver/Src/stm32h7xx_hal_dma.c ****     hdma->DMAmuxRequestGenStatusMask = 0U;
 570:Drivers/STM32H7xx_HAL_Driver/Src/stm32h7xx_hal_dma.c ****   }
 571:Drivers/STM32H7xx_HAL_Driver/Src/stm32h7xx_hal_dma.c **** 
 572:Drivers/STM32H7xx_HAL_Driver/Src/stm32h7xx_hal_dma.c **** 
 573:Drivers/STM32H7xx_HAL_Driver/Src/stm32h7xx_hal_dma.c ****   /* Clean callbacks */
 574:Drivers/STM32H7xx_HAL_Driver/Src/stm32h7xx_hal_dma.c ****   hdma->XferCpltCallback       = NULL;
 575:Drivers/STM32H7xx_HAL_Driver/Src/stm32h7xx_hal_dma.c ****   hdma->XferHalfCpltCallback   = NULL;
 576:Drivers/STM32H7xx_HAL_Driver/Src/stm32h7xx_hal_dma.c ****   hdma->XferM1CpltCallback     = NULL;
 577:Drivers/STM32H7xx_HAL_Driver/Src/stm32h7xx_hal_dma.c ****   hdma->XferM1HalfCpltCallback = NULL;
 578:Drivers/STM32H7xx_HAL_Driver/Src/stm32h7xx_hal_dma.c ****   hdma->XferErrorCallback      = NULL;
 579:Drivers/STM32H7xx_HAL_Driver/Src/stm32h7xx_hal_dma.c ****   hdma->XferAbortCallback      = NULL;
 580:Drivers/STM32H7xx_HAL_Driver/Src/stm32h7xx_hal_dma.c **** 
 581:Drivers/STM32H7xx_HAL_Driver/Src/stm32h7xx_hal_dma.c ****   /* Initialize the error code */
 582:Drivers/STM32H7xx_HAL_Driver/Src/stm32h7xx_hal_dma.c ****   hdma->ErrorCode = HAL_DMA_ERROR_NONE;
 583:Drivers/STM32H7xx_HAL_Driver/Src/stm32h7xx_hal_dma.c **** 
 584:Drivers/STM32H7xx_HAL_Driver/Src/stm32h7xx_hal_dma.c ****   /* Initialize the DMA state */
 585:Drivers/STM32H7xx_HAL_Driver/Src/stm32h7xx_hal_dma.c ****   hdma->State = HAL_DMA_STATE_RESET;
 586:Drivers/STM32H7xx_HAL_Driver/Src/stm32h7xx_hal_dma.c **** 
 587:Drivers/STM32H7xx_HAL_Driver/Src/stm32h7xx_hal_dma.c ****   /* Release Lock */
 588:Drivers/STM32H7xx_HAL_Driver/Src/stm32h7xx_hal_dma.c ****   __HAL_UNLOCK(hdma);
 589:Drivers/STM32H7xx_HAL_Driver/Src/stm32h7xx_hal_dma.c **** 
 590:Drivers/STM32H7xx_HAL_Driver/Src/stm32h7xx_hal_dma.c ****   return HAL_OK;
 591:Drivers/STM32H7xx_HAL_Driver/Src/stm32h7xx_hal_dma.c **** }
 592:Drivers/STM32H7xx_HAL_Driver/Src/stm32h7xx_hal_dma.c **** 
 593:Drivers/STM32H7xx_HAL_Driver/Src/stm32h7xx_hal_dma.c **** /**
 594:Drivers/STM32H7xx_HAL_Driver/Src/stm32h7xx_hal_dma.c ****   * @}
 595:Drivers/STM32H7xx_HAL_Driver/Src/stm32h7xx_hal_dma.c ****   */
 596:Drivers/STM32H7xx_HAL_Driver/Src/stm32h7xx_hal_dma.c **** 
 597:Drivers/STM32H7xx_HAL_Driver/Src/stm32h7xx_hal_dma.c **** /** @addtogroup DMA_Exported_Functions_Group2
 598:Drivers/STM32H7xx_HAL_Driver/Src/stm32h7xx_hal_dma.c ****   *
 599:Drivers/STM32H7xx_HAL_Driver/Src/stm32h7xx_hal_dma.c **** @verbatim
 600:Drivers/STM32H7xx_HAL_Driver/Src/stm32h7xx_hal_dma.c ****  ===============================================================================
 601:Drivers/STM32H7xx_HAL_Driver/Src/stm32h7xx_hal_dma.c ****                       #####  IO operation functions  #####
 602:Drivers/STM32H7xx_HAL_Driver/Src/stm32h7xx_hal_dma.c ****  ===============================================================================
 603:Drivers/STM32H7xx_HAL_Driver/Src/stm32h7xx_hal_dma.c ****     [..]  This section provides functions allowing to:
ARM GAS  /tmp/ccBO8Lmd.s 			page 12


 604:Drivers/STM32H7xx_HAL_Driver/Src/stm32h7xx_hal_dma.c ****       (+) Configure the source, destination address and data length and Start DMA transfer
 605:Drivers/STM32H7xx_HAL_Driver/Src/stm32h7xx_hal_dma.c ****       (+) Configure the source, destination address and data length and
 606:Drivers/STM32H7xx_HAL_Driver/Src/stm32h7xx_hal_dma.c ****           Start DMA transfer with interrupt
 607:Drivers/STM32H7xx_HAL_Driver/Src/stm32h7xx_hal_dma.c ****       (+) Register and Unregister DMA callbacks
 608:Drivers/STM32H7xx_HAL_Driver/Src/stm32h7xx_hal_dma.c ****       (+) Abort DMA transfer
 609:Drivers/STM32H7xx_HAL_Driver/Src/stm32h7xx_hal_dma.c ****       (+) Poll for transfer complete
 610:Drivers/STM32H7xx_HAL_Driver/Src/stm32h7xx_hal_dma.c ****       (+) Handle DMA interrupt request
 611:Drivers/STM32H7xx_HAL_Driver/Src/stm32h7xx_hal_dma.c **** 
 612:Drivers/STM32H7xx_HAL_Driver/Src/stm32h7xx_hal_dma.c **** @endverbatim
 613:Drivers/STM32H7xx_HAL_Driver/Src/stm32h7xx_hal_dma.c ****   * @{
 614:Drivers/STM32H7xx_HAL_Driver/Src/stm32h7xx_hal_dma.c ****   */
 615:Drivers/STM32H7xx_HAL_Driver/Src/stm32h7xx_hal_dma.c **** 
 616:Drivers/STM32H7xx_HAL_Driver/Src/stm32h7xx_hal_dma.c **** /**
 617:Drivers/STM32H7xx_HAL_Driver/Src/stm32h7xx_hal_dma.c ****   * @brief  Starts the DMA Transfer.
 618:Drivers/STM32H7xx_HAL_Driver/Src/stm32h7xx_hal_dma.c ****   * @param  hdma      : pointer to a DMA_HandleTypeDef structure that contains
 619:Drivers/STM32H7xx_HAL_Driver/Src/stm32h7xx_hal_dma.c ****   *                     the configuration information for the specified DMA Stream.
 620:Drivers/STM32H7xx_HAL_Driver/Src/stm32h7xx_hal_dma.c ****   * @param  SrcAddress: The source memory Buffer address
 621:Drivers/STM32H7xx_HAL_Driver/Src/stm32h7xx_hal_dma.c ****   * @param  DstAddress: The destination memory Buffer address
 622:Drivers/STM32H7xx_HAL_Driver/Src/stm32h7xx_hal_dma.c ****   * @param  DataLength: The length of data to be transferred from source to destination
 623:Drivers/STM32H7xx_HAL_Driver/Src/stm32h7xx_hal_dma.c ****   * @retval HAL status
 624:Drivers/STM32H7xx_HAL_Driver/Src/stm32h7xx_hal_dma.c ****   */
 625:Drivers/STM32H7xx_HAL_Driver/Src/stm32h7xx_hal_dma.c **** HAL_StatusTypeDef HAL_DMA_Start(DMA_HandleTypeDef *hdma, uint32_t SrcAddress, uint32_t DstAddress, 
 626:Drivers/STM32H7xx_HAL_Driver/Src/stm32h7xx_hal_dma.c **** {
 627:Drivers/STM32H7xx_HAL_Driver/Src/stm32h7xx_hal_dma.c ****   HAL_StatusTypeDef status = HAL_OK;
 628:Drivers/STM32H7xx_HAL_Driver/Src/stm32h7xx_hal_dma.c **** 
 629:Drivers/STM32H7xx_HAL_Driver/Src/stm32h7xx_hal_dma.c ****   /* Check the parameters */
 630:Drivers/STM32H7xx_HAL_Driver/Src/stm32h7xx_hal_dma.c ****   assert_param(IS_DMA_BUFFER_SIZE(DataLength));
 631:Drivers/STM32H7xx_HAL_Driver/Src/stm32h7xx_hal_dma.c **** 
 632:Drivers/STM32H7xx_HAL_Driver/Src/stm32h7xx_hal_dma.c ****   /* Check the DMA peripheral handle */
 633:Drivers/STM32H7xx_HAL_Driver/Src/stm32h7xx_hal_dma.c ****   if(hdma == NULL)
 634:Drivers/STM32H7xx_HAL_Driver/Src/stm32h7xx_hal_dma.c ****   {
 635:Drivers/STM32H7xx_HAL_Driver/Src/stm32h7xx_hal_dma.c ****     return HAL_ERROR;
 636:Drivers/STM32H7xx_HAL_Driver/Src/stm32h7xx_hal_dma.c ****   }
 637:Drivers/STM32H7xx_HAL_Driver/Src/stm32h7xx_hal_dma.c **** 
 638:Drivers/STM32H7xx_HAL_Driver/Src/stm32h7xx_hal_dma.c ****   /* Process locked */
 639:Drivers/STM32H7xx_HAL_Driver/Src/stm32h7xx_hal_dma.c ****   __HAL_LOCK(hdma);
 640:Drivers/STM32H7xx_HAL_Driver/Src/stm32h7xx_hal_dma.c **** 
 641:Drivers/STM32H7xx_HAL_Driver/Src/stm32h7xx_hal_dma.c ****   if(HAL_DMA_STATE_READY == hdma->State)
 642:Drivers/STM32H7xx_HAL_Driver/Src/stm32h7xx_hal_dma.c ****   {
 643:Drivers/STM32H7xx_HAL_Driver/Src/stm32h7xx_hal_dma.c ****     /* Change DMA peripheral state */
 644:Drivers/STM32H7xx_HAL_Driver/Src/stm32h7xx_hal_dma.c ****     hdma->State = HAL_DMA_STATE_BUSY;
 645:Drivers/STM32H7xx_HAL_Driver/Src/stm32h7xx_hal_dma.c **** 
 646:Drivers/STM32H7xx_HAL_Driver/Src/stm32h7xx_hal_dma.c ****     /* Initialize the error code */
 647:Drivers/STM32H7xx_HAL_Driver/Src/stm32h7xx_hal_dma.c ****     hdma->ErrorCode = HAL_DMA_ERROR_NONE;
 648:Drivers/STM32H7xx_HAL_Driver/Src/stm32h7xx_hal_dma.c **** 
 649:Drivers/STM32H7xx_HAL_Driver/Src/stm32h7xx_hal_dma.c ****     /* Disable the peripheral */
 650:Drivers/STM32H7xx_HAL_Driver/Src/stm32h7xx_hal_dma.c ****     __HAL_DMA_DISABLE(hdma);
 651:Drivers/STM32H7xx_HAL_Driver/Src/stm32h7xx_hal_dma.c **** 
 652:Drivers/STM32H7xx_HAL_Driver/Src/stm32h7xx_hal_dma.c ****     /* Configure the source, destination address and the data length */
 653:Drivers/STM32H7xx_HAL_Driver/Src/stm32h7xx_hal_dma.c ****     DMA_SetConfig(hdma, SrcAddress, DstAddress, DataLength);
 654:Drivers/STM32H7xx_HAL_Driver/Src/stm32h7xx_hal_dma.c **** 
 655:Drivers/STM32H7xx_HAL_Driver/Src/stm32h7xx_hal_dma.c ****     /* Enable the Peripheral */
 656:Drivers/STM32H7xx_HAL_Driver/Src/stm32h7xx_hal_dma.c ****     __HAL_DMA_ENABLE(hdma);
 657:Drivers/STM32H7xx_HAL_Driver/Src/stm32h7xx_hal_dma.c ****   }
 658:Drivers/STM32H7xx_HAL_Driver/Src/stm32h7xx_hal_dma.c ****   else
 659:Drivers/STM32H7xx_HAL_Driver/Src/stm32h7xx_hal_dma.c ****   {
 660:Drivers/STM32H7xx_HAL_Driver/Src/stm32h7xx_hal_dma.c ****     /* Set the error code to busy */
ARM GAS  /tmp/ccBO8Lmd.s 			page 13


 661:Drivers/STM32H7xx_HAL_Driver/Src/stm32h7xx_hal_dma.c ****     hdma->ErrorCode = HAL_DMA_ERROR_BUSY;
 662:Drivers/STM32H7xx_HAL_Driver/Src/stm32h7xx_hal_dma.c **** 
 663:Drivers/STM32H7xx_HAL_Driver/Src/stm32h7xx_hal_dma.c ****     /* Process unlocked */
 664:Drivers/STM32H7xx_HAL_Driver/Src/stm32h7xx_hal_dma.c ****     __HAL_UNLOCK(hdma);
 665:Drivers/STM32H7xx_HAL_Driver/Src/stm32h7xx_hal_dma.c **** 
 666:Drivers/STM32H7xx_HAL_Driver/Src/stm32h7xx_hal_dma.c ****     /* Return error status */
 667:Drivers/STM32H7xx_HAL_Driver/Src/stm32h7xx_hal_dma.c ****     status = HAL_ERROR;
 668:Drivers/STM32H7xx_HAL_Driver/Src/stm32h7xx_hal_dma.c ****   }
 669:Drivers/STM32H7xx_HAL_Driver/Src/stm32h7xx_hal_dma.c ****   return status;
 670:Drivers/STM32H7xx_HAL_Driver/Src/stm32h7xx_hal_dma.c **** }
 671:Drivers/STM32H7xx_HAL_Driver/Src/stm32h7xx_hal_dma.c **** 
 672:Drivers/STM32H7xx_HAL_Driver/Src/stm32h7xx_hal_dma.c **** /**
 673:Drivers/STM32H7xx_HAL_Driver/Src/stm32h7xx_hal_dma.c ****   * @brief  Start the DMA Transfer with interrupt enabled.
 674:Drivers/STM32H7xx_HAL_Driver/Src/stm32h7xx_hal_dma.c ****   * @param  hdma:       pointer to a DMA_HandleTypeDef structure that contains
 675:Drivers/STM32H7xx_HAL_Driver/Src/stm32h7xx_hal_dma.c ****   *                     the configuration information for the specified DMA Stream.
 676:Drivers/STM32H7xx_HAL_Driver/Src/stm32h7xx_hal_dma.c ****   * @param  SrcAddress: The source memory Buffer address
 677:Drivers/STM32H7xx_HAL_Driver/Src/stm32h7xx_hal_dma.c ****   * @param  DstAddress: The destination memory Buffer address
 678:Drivers/STM32H7xx_HAL_Driver/Src/stm32h7xx_hal_dma.c ****   * @param  DataLength: The length of data to be transferred from source to destination
 679:Drivers/STM32H7xx_HAL_Driver/Src/stm32h7xx_hal_dma.c ****   * @retval HAL status
 680:Drivers/STM32H7xx_HAL_Driver/Src/stm32h7xx_hal_dma.c ****   */
 681:Drivers/STM32H7xx_HAL_Driver/Src/stm32h7xx_hal_dma.c **** HAL_StatusTypeDef HAL_DMA_Start_IT(DMA_HandleTypeDef *hdma, uint32_t SrcAddress, uint32_t DstAddres
 682:Drivers/STM32H7xx_HAL_Driver/Src/stm32h7xx_hal_dma.c **** {
 683:Drivers/STM32H7xx_HAL_Driver/Src/stm32h7xx_hal_dma.c ****   HAL_StatusTypeDef status = HAL_OK;
 684:Drivers/STM32H7xx_HAL_Driver/Src/stm32h7xx_hal_dma.c **** 
 685:Drivers/STM32H7xx_HAL_Driver/Src/stm32h7xx_hal_dma.c ****   /* Check the parameters */
 686:Drivers/STM32H7xx_HAL_Driver/Src/stm32h7xx_hal_dma.c ****   assert_param(IS_DMA_BUFFER_SIZE(DataLength));
 687:Drivers/STM32H7xx_HAL_Driver/Src/stm32h7xx_hal_dma.c **** 
 688:Drivers/STM32H7xx_HAL_Driver/Src/stm32h7xx_hal_dma.c ****   /* Check the DMA peripheral handle */
 689:Drivers/STM32H7xx_HAL_Driver/Src/stm32h7xx_hal_dma.c ****   if(hdma == NULL)
 690:Drivers/STM32H7xx_HAL_Driver/Src/stm32h7xx_hal_dma.c ****   {
 691:Drivers/STM32H7xx_HAL_Driver/Src/stm32h7xx_hal_dma.c ****     return HAL_ERROR;
 692:Drivers/STM32H7xx_HAL_Driver/Src/stm32h7xx_hal_dma.c ****   }
 693:Drivers/STM32H7xx_HAL_Driver/Src/stm32h7xx_hal_dma.c **** 
 694:Drivers/STM32H7xx_HAL_Driver/Src/stm32h7xx_hal_dma.c ****   /* Process locked */
 695:Drivers/STM32H7xx_HAL_Driver/Src/stm32h7xx_hal_dma.c ****   __HAL_LOCK(hdma);
 696:Drivers/STM32H7xx_HAL_Driver/Src/stm32h7xx_hal_dma.c **** 
 697:Drivers/STM32H7xx_HAL_Driver/Src/stm32h7xx_hal_dma.c ****   if(HAL_DMA_STATE_READY == hdma->State)
 698:Drivers/STM32H7xx_HAL_Driver/Src/stm32h7xx_hal_dma.c ****   {
 699:Drivers/STM32H7xx_HAL_Driver/Src/stm32h7xx_hal_dma.c ****     /* Change DMA peripheral state */
 700:Drivers/STM32H7xx_HAL_Driver/Src/stm32h7xx_hal_dma.c ****     hdma->State = HAL_DMA_STATE_BUSY;
 701:Drivers/STM32H7xx_HAL_Driver/Src/stm32h7xx_hal_dma.c **** 
 702:Drivers/STM32H7xx_HAL_Driver/Src/stm32h7xx_hal_dma.c ****     /* Initialize the error code */
 703:Drivers/STM32H7xx_HAL_Driver/Src/stm32h7xx_hal_dma.c ****     hdma->ErrorCode = HAL_DMA_ERROR_NONE;
 704:Drivers/STM32H7xx_HAL_Driver/Src/stm32h7xx_hal_dma.c **** 
 705:Drivers/STM32H7xx_HAL_Driver/Src/stm32h7xx_hal_dma.c ****     /* Disable the peripheral */
 706:Drivers/STM32H7xx_HAL_Driver/Src/stm32h7xx_hal_dma.c ****     __HAL_DMA_DISABLE(hdma);
 707:Drivers/STM32H7xx_HAL_Driver/Src/stm32h7xx_hal_dma.c **** 
 708:Drivers/STM32H7xx_HAL_Driver/Src/stm32h7xx_hal_dma.c ****     /* Configure the source, destination address and the data length */
 709:Drivers/STM32H7xx_HAL_Driver/Src/stm32h7xx_hal_dma.c ****     DMA_SetConfig(hdma, SrcAddress, DstAddress, DataLength);
 710:Drivers/STM32H7xx_HAL_Driver/Src/stm32h7xx_hal_dma.c **** 
 711:Drivers/STM32H7xx_HAL_Driver/Src/stm32h7xx_hal_dma.c ****     if(IS_DMA_STREAM_INSTANCE(hdma->Instance) != 0U) /* DMA1 or DMA2 instance */
 712:Drivers/STM32H7xx_HAL_Driver/Src/stm32h7xx_hal_dma.c ****     {
 713:Drivers/STM32H7xx_HAL_Driver/Src/stm32h7xx_hal_dma.c ****       /* Enable Common interrupts*/
 714:Drivers/STM32H7xx_HAL_Driver/Src/stm32h7xx_hal_dma.c ****       MODIFY_REG(((DMA_Stream_TypeDef   *)hdma->Instance)->CR, (DMA_IT_TC | DMA_IT_TE | DMA_IT_DME 
 715:Drivers/STM32H7xx_HAL_Driver/Src/stm32h7xx_hal_dma.c **** 
 716:Drivers/STM32H7xx_HAL_Driver/Src/stm32h7xx_hal_dma.c ****       if(hdma->XferHalfCpltCallback != NULL)
 717:Drivers/STM32H7xx_HAL_Driver/Src/stm32h7xx_hal_dma.c ****       {
ARM GAS  /tmp/ccBO8Lmd.s 			page 14


 718:Drivers/STM32H7xx_HAL_Driver/Src/stm32h7xx_hal_dma.c ****         /* Enable Half Transfer IT if corresponding Callback is set */
 719:Drivers/STM32H7xx_HAL_Driver/Src/stm32h7xx_hal_dma.c ****         ((DMA_Stream_TypeDef   *)hdma->Instance)->CR  |= DMA_IT_HT;
 720:Drivers/STM32H7xx_HAL_Driver/Src/stm32h7xx_hal_dma.c ****       }
 721:Drivers/STM32H7xx_HAL_Driver/Src/stm32h7xx_hal_dma.c ****     }
 722:Drivers/STM32H7xx_HAL_Driver/Src/stm32h7xx_hal_dma.c ****     else /* BDMA channel */
 723:Drivers/STM32H7xx_HAL_Driver/Src/stm32h7xx_hal_dma.c ****     {
 724:Drivers/STM32H7xx_HAL_Driver/Src/stm32h7xx_hal_dma.c ****       /* Enable Common interrupts */
 725:Drivers/STM32H7xx_HAL_Driver/Src/stm32h7xx_hal_dma.c ****       MODIFY_REG(((BDMA_Channel_TypeDef   *)hdma->Instance)->CCR, (BDMA_CCR_TCIE | BDMA_CCR_HTIE | 
 726:Drivers/STM32H7xx_HAL_Driver/Src/stm32h7xx_hal_dma.c **** 
 727:Drivers/STM32H7xx_HAL_Driver/Src/stm32h7xx_hal_dma.c ****       if(hdma->XferHalfCpltCallback != NULL)
 728:Drivers/STM32H7xx_HAL_Driver/Src/stm32h7xx_hal_dma.c ****       {
 729:Drivers/STM32H7xx_HAL_Driver/Src/stm32h7xx_hal_dma.c ****         /*Enable Half Transfer IT if corresponding Callback is set */
 730:Drivers/STM32H7xx_HAL_Driver/Src/stm32h7xx_hal_dma.c ****         ((BDMA_Channel_TypeDef   *)hdma->Instance)->CCR  |= BDMA_CCR_HTIE;
 731:Drivers/STM32H7xx_HAL_Driver/Src/stm32h7xx_hal_dma.c ****       }
 732:Drivers/STM32H7xx_HAL_Driver/Src/stm32h7xx_hal_dma.c ****     }
 733:Drivers/STM32H7xx_HAL_Driver/Src/stm32h7xx_hal_dma.c **** 
 734:Drivers/STM32H7xx_HAL_Driver/Src/stm32h7xx_hal_dma.c ****     if(IS_DMA_DMAMUX_ALL_INSTANCE(hdma->Instance) != 0U) /* No DMAMUX available for BDMA1 */
 735:Drivers/STM32H7xx_HAL_Driver/Src/stm32h7xx_hal_dma.c ****     {
 736:Drivers/STM32H7xx_HAL_Driver/Src/stm32h7xx_hal_dma.c ****       /* Check if DMAMUX Synchronization is enabled */
 737:Drivers/STM32H7xx_HAL_Driver/Src/stm32h7xx_hal_dma.c ****       if((hdma->DMAmuxChannel->CCR & DMAMUX_CxCR_SE) != 0U)
 738:Drivers/STM32H7xx_HAL_Driver/Src/stm32h7xx_hal_dma.c ****       {
 739:Drivers/STM32H7xx_HAL_Driver/Src/stm32h7xx_hal_dma.c ****         /* Enable DMAMUX sync overrun IT*/
 740:Drivers/STM32H7xx_HAL_Driver/Src/stm32h7xx_hal_dma.c ****         hdma->DMAmuxChannel->CCR |= DMAMUX_CxCR_SOIE;
 741:Drivers/STM32H7xx_HAL_Driver/Src/stm32h7xx_hal_dma.c ****       }
 742:Drivers/STM32H7xx_HAL_Driver/Src/stm32h7xx_hal_dma.c **** 
 743:Drivers/STM32H7xx_HAL_Driver/Src/stm32h7xx_hal_dma.c ****       if(hdma->DMAmuxRequestGen != 0U)
 744:Drivers/STM32H7xx_HAL_Driver/Src/stm32h7xx_hal_dma.c ****       {
 745:Drivers/STM32H7xx_HAL_Driver/Src/stm32h7xx_hal_dma.c ****         /* if using DMAMUX request generator, enable the DMAMUX request generator overrun IT*/
 746:Drivers/STM32H7xx_HAL_Driver/Src/stm32h7xx_hal_dma.c ****         /* enable the request gen overrun IT */
 747:Drivers/STM32H7xx_HAL_Driver/Src/stm32h7xx_hal_dma.c ****         hdma->DMAmuxRequestGen->RGCR |= DMAMUX_RGxCR_OIE;
 748:Drivers/STM32H7xx_HAL_Driver/Src/stm32h7xx_hal_dma.c ****       }
 749:Drivers/STM32H7xx_HAL_Driver/Src/stm32h7xx_hal_dma.c ****     }
 750:Drivers/STM32H7xx_HAL_Driver/Src/stm32h7xx_hal_dma.c **** 
 751:Drivers/STM32H7xx_HAL_Driver/Src/stm32h7xx_hal_dma.c ****     /* Enable the Peripheral */
 752:Drivers/STM32H7xx_HAL_Driver/Src/stm32h7xx_hal_dma.c ****     __HAL_DMA_ENABLE(hdma);
 753:Drivers/STM32H7xx_HAL_Driver/Src/stm32h7xx_hal_dma.c ****   }
 754:Drivers/STM32H7xx_HAL_Driver/Src/stm32h7xx_hal_dma.c ****   else
 755:Drivers/STM32H7xx_HAL_Driver/Src/stm32h7xx_hal_dma.c ****   {
 756:Drivers/STM32H7xx_HAL_Driver/Src/stm32h7xx_hal_dma.c ****     /* Set the error code to busy */
 757:Drivers/STM32H7xx_HAL_Driver/Src/stm32h7xx_hal_dma.c ****     hdma->ErrorCode = HAL_DMA_ERROR_BUSY;
 758:Drivers/STM32H7xx_HAL_Driver/Src/stm32h7xx_hal_dma.c **** 
 759:Drivers/STM32H7xx_HAL_Driver/Src/stm32h7xx_hal_dma.c ****     /* Process unlocked */
 760:Drivers/STM32H7xx_HAL_Driver/Src/stm32h7xx_hal_dma.c ****     __HAL_UNLOCK(hdma);
 761:Drivers/STM32H7xx_HAL_Driver/Src/stm32h7xx_hal_dma.c **** 
 762:Drivers/STM32H7xx_HAL_Driver/Src/stm32h7xx_hal_dma.c ****     /* Return error status */
 763:Drivers/STM32H7xx_HAL_Driver/Src/stm32h7xx_hal_dma.c ****     status = HAL_ERROR;
 764:Drivers/STM32H7xx_HAL_Driver/Src/stm32h7xx_hal_dma.c ****   }
 765:Drivers/STM32H7xx_HAL_Driver/Src/stm32h7xx_hal_dma.c **** 
 766:Drivers/STM32H7xx_HAL_Driver/Src/stm32h7xx_hal_dma.c ****   return status;
 767:Drivers/STM32H7xx_HAL_Driver/Src/stm32h7xx_hal_dma.c **** }
 768:Drivers/STM32H7xx_HAL_Driver/Src/stm32h7xx_hal_dma.c **** 
 769:Drivers/STM32H7xx_HAL_Driver/Src/stm32h7xx_hal_dma.c **** /**
 770:Drivers/STM32H7xx_HAL_Driver/Src/stm32h7xx_hal_dma.c ****   * @brief  Aborts the DMA Transfer.
 771:Drivers/STM32H7xx_HAL_Driver/Src/stm32h7xx_hal_dma.c ****   * @param  hdma  : pointer to a DMA_HandleTypeDef structure that contains
 772:Drivers/STM32H7xx_HAL_Driver/Src/stm32h7xx_hal_dma.c ****   *                 the configuration information for the specified DMA Stream.
 773:Drivers/STM32H7xx_HAL_Driver/Src/stm32h7xx_hal_dma.c ****   *
 774:Drivers/STM32H7xx_HAL_Driver/Src/stm32h7xx_hal_dma.c ****   * @note  After disabling a DMA Stream, a check for wait until the DMA Stream is
ARM GAS  /tmp/ccBO8Lmd.s 			page 15


 775:Drivers/STM32H7xx_HAL_Driver/Src/stm32h7xx_hal_dma.c ****   *        effectively disabled is added. If a Stream is disabled
 776:Drivers/STM32H7xx_HAL_Driver/Src/stm32h7xx_hal_dma.c ****   *        while a data transfer is ongoing, the current data will be transferred
 777:Drivers/STM32H7xx_HAL_Driver/Src/stm32h7xx_hal_dma.c ****   *        and the Stream will be effectively disabled only after the transfer of
 778:Drivers/STM32H7xx_HAL_Driver/Src/stm32h7xx_hal_dma.c ****   *        this single data is finished.
 779:Drivers/STM32H7xx_HAL_Driver/Src/stm32h7xx_hal_dma.c ****   * @retval HAL status
 780:Drivers/STM32H7xx_HAL_Driver/Src/stm32h7xx_hal_dma.c ****   */
 781:Drivers/STM32H7xx_HAL_Driver/Src/stm32h7xx_hal_dma.c **** HAL_StatusTypeDef HAL_DMA_Abort(DMA_HandleTypeDef *hdma)
 782:Drivers/STM32H7xx_HAL_Driver/Src/stm32h7xx_hal_dma.c **** {
 783:Drivers/STM32H7xx_HAL_Driver/Src/stm32h7xx_hal_dma.c ****   /* calculate DMA base and stream number */
 784:Drivers/STM32H7xx_HAL_Driver/Src/stm32h7xx_hal_dma.c ****   DMA_Base_Registers *regs_dma;
 785:Drivers/STM32H7xx_HAL_Driver/Src/stm32h7xx_hal_dma.c ****   BDMA_Base_Registers *regs_bdma;
 786:Drivers/STM32H7xx_HAL_Driver/Src/stm32h7xx_hal_dma.c ****   const __IO uint32_t *enableRegister;
 787:Drivers/STM32H7xx_HAL_Driver/Src/stm32h7xx_hal_dma.c **** 
 788:Drivers/STM32H7xx_HAL_Driver/Src/stm32h7xx_hal_dma.c ****   uint32_t tickstart = HAL_GetTick();
 789:Drivers/STM32H7xx_HAL_Driver/Src/stm32h7xx_hal_dma.c **** 
 790:Drivers/STM32H7xx_HAL_Driver/Src/stm32h7xx_hal_dma.c ****  /* Check the DMA peripheral handle */
 791:Drivers/STM32H7xx_HAL_Driver/Src/stm32h7xx_hal_dma.c ****   if(hdma == NULL)
 792:Drivers/STM32H7xx_HAL_Driver/Src/stm32h7xx_hal_dma.c ****   {
 793:Drivers/STM32H7xx_HAL_Driver/Src/stm32h7xx_hal_dma.c ****     return HAL_ERROR;
 794:Drivers/STM32H7xx_HAL_Driver/Src/stm32h7xx_hal_dma.c ****   }
 795:Drivers/STM32H7xx_HAL_Driver/Src/stm32h7xx_hal_dma.c **** 
 796:Drivers/STM32H7xx_HAL_Driver/Src/stm32h7xx_hal_dma.c ****   /* Check the DMA peripheral state */
 797:Drivers/STM32H7xx_HAL_Driver/Src/stm32h7xx_hal_dma.c ****   if(hdma->State != HAL_DMA_STATE_BUSY)
 798:Drivers/STM32H7xx_HAL_Driver/Src/stm32h7xx_hal_dma.c ****   {
 799:Drivers/STM32H7xx_HAL_Driver/Src/stm32h7xx_hal_dma.c ****     hdma->ErrorCode = HAL_DMA_ERROR_NO_XFER;
 800:Drivers/STM32H7xx_HAL_Driver/Src/stm32h7xx_hal_dma.c **** 
 801:Drivers/STM32H7xx_HAL_Driver/Src/stm32h7xx_hal_dma.c ****     /* Process Unlocked */
 802:Drivers/STM32H7xx_HAL_Driver/Src/stm32h7xx_hal_dma.c ****     __HAL_UNLOCK(hdma);
 803:Drivers/STM32H7xx_HAL_Driver/Src/stm32h7xx_hal_dma.c **** 
 804:Drivers/STM32H7xx_HAL_Driver/Src/stm32h7xx_hal_dma.c ****     return HAL_ERROR;
 805:Drivers/STM32H7xx_HAL_Driver/Src/stm32h7xx_hal_dma.c ****   }
 806:Drivers/STM32H7xx_HAL_Driver/Src/stm32h7xx_hal_dma.c ****   else
 807:Drivers/STM32H7xx_HAL_Driver/Src/stm32h7xx_hal_dma.c ****   {
 808:Drivers/STM32H7xx_HAL_Driver/Src/stm32h7xx_hal_dma.c ****     /* Disable all the transfer interrupts */
 809:Drivers/STM32H7xx_HAL_Driver/Src/stm32h7xx_hal_dma.c ****     if(IS_DMA_STREAM_INSTANCE(hdma->Instance) != 0U) /* DMA1 or DMA2 instance */
 810:Drivers/STM32H7xx_HAL_Driver/Src/stm32h7xx_hal_dma.c ****     {
 811:Drivers/STM32H7xx_HAL_Driver/Src/stm32h7xx_hal_dma.c ****        /* Disable DMA All Interrupts  */
 812:Drivers/STM32H7xx_HAL_Driver/Src/stm32h7xx_hal_dma.c ****       ((DMA_Stream_TypeDef   *)hdma->Instance)->CR  &= ~(DMA_IT_TC | DMA_IT_TE | DMA_IT_DME | DMA_I
 813:Drivers/STM32H7xx_HAL_Driver/Src/stm32h7xx_hal_dma.c ****       ((DMA_Stream_TypeDef   *)hdma->Instance)->FCR &= ~(DMA_IT_FE);
 814:Drivers/STM32H7xx_HAL_Driver/Src/stm32h7xx_hal_dma.c **** 
 815:Drivers/STM32H7xx_HAL_Driver/Src/stm32h7xx_hal_dma.c ****       enableRegister = (__IO uint32_t *)(&(((DMA_Stream_TypeDef   *)hdma->Instance)->CR));
 816:Drivers/STM32H7xx_HAL_Driver/Src/stm32h7xx_hal_dma.c ****     }
 817:Drivers/STM32H7xx_HAL_Driver/Src/stm32h7xx_hal_dma.c ****     else /* BDMA channel */
 818:Drivers/STM32H7xx_HAL_Driver/Src/stm32h7xx_hal_dma.c ****     {
 819:Drivers/STM32H7xx_HAL_Driver/Src/stm32h7xx_hal_dma.c ****       /* Disable DMA All Interrupts */
 820:Drivers/STM32H7xx_HAL_Driver/Src/stm32h7xx_hal_dma.c ****       ((BDMA_Channel_TypeDef   *)hdma->Instance)->CCR  &= ~(BDMA_CCR_TCIE | BDMA_CCR_HTIE | BDMA_CC
 821:Drivers/STM32H7xx_HAL_Driver/Src/stm32h7xx_hal_dma.c **** 
 822:Drivers/STM32H7xx_HAL_Driver/Src/stm32h7xx_hal_dma.c ****       enableRegister = (__IO uint32_t *)(&(((BDMA_Channel_TypeDef   *)hdma->Instance)->CCR));
 823:Drivers/STM32H7xx_HAL_Driver/Src/stm32h7xx_hal_dma.c ****     }
 824:Drivers/STM32H7xx_HAL_Driver/Src/stm32h7xx_hal_dma.c **** 
 825:Drivers/STM32H7xx_HAL_Driver/Src/stm32h7xx_hal_dma.c ****     if(IS_DMA_DMAMUX_ALL_INSTANCE(hdma->Instance) != 0U) /* No DMAMUX available for BDMA1 */
 826:Drivers/STM32H7xx_HAL_Driver/Src/stm32h7xx_hal_dma.c ****     {
 827:Drivers/STM32H7xx_HAL_Driver/Src/stm32h7xx_hal_dma.c ****       /* disable the DMAMUX sync overrun IT */
 828:Drivers/STM32H7xx_HAL_Driver/Src/stm32h7xx_hal_dma.c ****       hdma->DMAmuxChannel->CCR &= ~DMAMUX_CxCR_SOIE;
 829:Drivers/STM32H7xx_HAL_Driver/Src/stm32h7xx_hal_dma.c ****     }
 830:Drivers/STM32H7xx_HAL_Driver/Src/stm32h7xx_hal_dma.c **** 
 831:Drivers/STM32H7xx_HAL_Driver/Src/stm32h7xx_hal_dma.c ****     /* Disable the stream */
ARM GAS  /tmp/ccBO8Lmd.s 			page 16


 832:Drivers/STM32H7xx_HAL_Driver/Src/stm32h7xx_hal_dma.c ****     __HAL_DMA_DISABLE(hdma);
 833:Drivers/STM32H7xx_HAL_Driver/Src/stm32h7xx_hal_dma.c **** 
 834:Drivers/STM32H7xx_HAL_Driver/Src/stm32h7xx_hal_dma.c ****     /* Check if the DMA Stream is effectively disabled */
 835:Drivers/STM32H7xx_HAL_Driver/Src/stm32h7xx_hal_dma.c ****     while(((*enableRegister) & DMA_SxCR_EN) != 0U)
 836:Drivers/STM32H7xx_HAL_Driver/Src/stm32h7xx_hal_dma.c ****     {
 837:Drivers/STM32H7xx_HAL_Driver/Src/stm32h7xx_hal_dma.c ****       /* Check for the Timeout */
 838:Drivers/STM32H7xx_HAL_Driver/Src/stm32h7xx_hal_dma.c ****       if((HAL_GetTick() - tickstart ) > HAL_TIMEOUT_DMA_ABORT)
 839:Drivers/STM32H7xx_HAL_Driver/Src/stm32h7xx_hal_dma.c ****       {
 840:Drivers/STM32H7xx_HAL_Driver/Src/stm32h7xx_hal_dma.c ****         /* Update error code */
 841:Drivers/STM32H7xx_HAL_Driver/Src/stm32h7xx_hal_dma.c ****         hdma->ErrorCode = HAL_DMA_ERROR_TIMEOUT;
 842:Drivers/STM32H7xx_HAL_Driver/Src/stm32h7xx_hal_dma.c **** 
 843:Drivers/STM32H7xx_HAL_Driver/Src/stm32h7xx_hal_dma.c ****         /* Change the DMA state */
 844:Drivers/STM32H7xx_HAL_Driver/Src/stm32h7xx_hal_dma.c ****         hdma->State = HAL_DMA_STATE_ERROR;
 845:Drivers/STM32H7xx_HAL_Driver/Src/stm32h7xx_hal_dma.c **** 
 846:Drivers/STM32H7xx_HAL_Driver/Src/stm32h7xx_hal_dma.c ****         /* Process Unlocked */
 847:Drivers/STM32H7xx_HAL_Driver/Src/stm32h7xx_hal_dma.c ****         __HAL_UNLOCK(hdma);
 848:Drivers/STM32H7xx_HAL_Driver/Src/stm32h7xx_hal_dma.c **** 
 849:Drivers/STM32H7xx_HAL_Driver/Src/stm32h7xx_hal_dma.c ****         return HAL_ERROR;
 850:Drivers/STM32H7xx_HAL_Driver/Src/stm32h7xx_hal_dma.c ****       }
 851:Drivers/STM32H7xx_HAL_Driver/Src/stm32h7xx_hal_dma.c ****     }
 852:Drivers/STM32H7xx_HAL_Driver/Src/stm32h7xx_hal_dma.c **** 
 853:Drivers/STM32H7xx_HAL_Driver/Src/stm32h7xx_hal_dma.c ****     /* Clear all interrupt flags at correct offset within the register */
 854:Drivers/STM32H7xx_HAL_Driver/Src/stm32h7xx_hal_dma.c ****     if(IS_DMA_STREAM_INSTANCE(hdma->Instance) != 0U) /* DMA1 or DMA2 instance */
 855:Drivers/STM32H7xx_HAL_Driver/Src/stm32h7xx_hal_dma.c ****     {
 856:Drivers/STM32H7xx_HAL_Driver/Src/stm32h7xx_hal_dma.c ****       regs_dma = (DMA_Base_Registers *)hdma->StreamBaseAddress;
 857:Drivers/STM32H7xx_HAL_Driver/Src/stm32h7xx_hal_dma.c ****       regs_dma->IFCR = 0x3FUL << (hdma->StreamIndex & 0x1FU);
 858:Drivers/STM32H7xx_HAL_Driver/Src/stm32h7xx_hal_dma.c ****     }
 859:Drivers/STM32H7xx_HAL_Driver/Src/stm32h7xx_hal_dma.c ****     else /* BDMA channel */
 860:Drivers/STM32H7xx_HAL_Driver/Src/stm32h7xx_hal_dma.c ****     {
 861:Drivers/STM32H7xx_HAL_Driver/Src/stm32h7xx_hal_dma.c ****       regs_bdma = (BDMA_Base_Registers *)hdma->StreamBaseAddress;
 862:Drivers/STM32H7xx_HAL_Driver/Src/stm32h7xx_hal_dma.c ****       regs_bdma->IFCR = ((BDMA_IFCR_CGIF0) << (hdma->StreamIndex & 0x1FU));
 863:Drivers/STM32H7xx_HAL_Driver/Src/stm32h7xx_hal_dma.c ****     }
 864:Drivers/STM32H7xx_HAL_Driver/Src/stm32h7xx_hal_dma.c **** 
 865:Drivers/STM32H7xx_HAL_Driver/Src/stm32h7xx_hal_dma.c ****     if(IS_DMA_DMAMUX_ALL_INSTANCE(hdma->Instance) != 0U) /* No DMAMUX available for BDMA1 */
 866:Drivers/STM32H7xx_HAL_Driver/Src/stm32h7xx_hal_dma.c ****     {
 867:Drivers/STM32H7xx_HAL_Driver/Src/stm32h7xx_hal_dma.c ****       /* Clear the DMAMUX synchro overrun flag */
 868:Drivers/STM32H7xx_HAL_Driver/Src/stm32h7xx_hal_dma.c ****       hdma->DMAmuxChannelStatus->CFR = hdma->DMAmuxChannelStatusMask;
 869:Drivers/STM32H7xx_HAL_Driver/Src/stm32h7xx_hal_dma.c **** 
 870:Drivers/STM32H7xx_HAL_Driver/Src/stm32h7xx_hal_dma.c ****       if(hdma->DMAmuxRequestGen != 0U)
 871:Drivers/STM32H7xx_HAL_Driver/Src/stm32h7xx_hal_dma.c ****       {
 872:Drivers/STM32H7xx_HAL_Driver/Src/stm32h7xx_hal_dma.c ****         /* if using DMAMUX request generator, disable the DMAMUX request generator overrun IT */
 873:Drivers/STM32H7xx_HAL_Driver/Src/stm32h7xx_hal_dma.c ****         /* disable the request gen overrun IT */
 874:Drivers/STM32H7xx_HAL_Driver/Src/stm32h7xx_hal_dma.c ****         hdma->DMAmuxRequestGen->RGCR &= ~DMAMUX_RGxCR_OIE;
 875:Drivers/STM32H7xx_HAL_Driver/Src/stm32h7xx_hal_dma.c **** 
 876:Drivers/STM32H7xx_HAL_Driver/Src/stm32h7xx_hal_dma.c ****         /* Clear the DMAMUX request generator overrun flag */
 877:Drivers/STM32H7xx_HAL_Driver/Src/stm32h7xx_hal_dma.c ****         hdma->DMAmuxRequestGenStatus->RGCFR = hdma->DMAmuxRequestGenStatusMask;
 878:Drivers/STM32H7xx_HAL_Driver/Src/stm32h7xx_hal_dma.c ****       }
 879:Drivers/STM32H7xx_HAL_Driver/Src/stm32h7xx_hal_dma.c ****     }
 880:Drivers/STM32H7xx_HAL_Driver/Src/stm32h7xx_hal_dma.c **** 
 881:Drivers/STM32H7xx_HAL_Driver/Src/stm32h7xx_hal_dma.c ****     /* Change the DMA state */
 882:Drivers/STM32H7xx_HAL_Driver/Src/stm32h7xx_hal_dma.c ****     hdma->State = HAL_DMA_STATE_READY;
 883:Drivers/STM32H7xx_HAL_Driver/Src/stm32h7xx_hal_dma.c **** 
 884:Drivers/STM32H7xx_HAL_Driver/Src/stm32h7xx_hal_dma.c ****     /* Process Unlocked */
 885:Drivers/STM32H7xx_HAL_Driver/Src/stm32h7xx_hal_dma.c ****     __HAL_UNLOCK(hdma);
 886:Drivers/STM32H7xx_HAL_Driver/Src/stm32h7xx_hal_dma.c ****   }
 887:Drivers/STM32H7xx_HAL_Driver/Src/stm32h7xx_hal_dma.c **** 
 888:Drivers/STM32H7xx_HAL_Driver/Src/stm32h7xx_hal_dma.c ****   return HAL_OK;
ARM GAS  /tmp/ccBO8Lmd.s 			page 17


 889:Drivers/STM32H7xx_HAL_Driver/Src/stm32h7xx_hal_dma.c **** }
 890:Drivers/STM32H7xx_HAL_Driver/Src/stm32h7xx_hal_dma.c **** 
 891:Drivers/STM32H7xx_HAL_Driver/Src/stm32h7xx_hal_dma.c **** /**
 892:Drivers/STM32H7xx_HAL_Driver/Src/stm32h7xx_hal_dma.c ****   * @brief  Aborts the DMA Transfer in Interrupt mode.
 893:Drivers/STM32H7xx_HAL_Driver/Src/stm32h7xx_hal_dma.c ****   * @param  hdma  : pointer to a DMA_HandleTypeDef structure that contains
 894:Drivers/STM32H7xx_HAL_Driver/Src/stm32h7xx_hal_dma.c ****   *                 the configuration information for the specified DMA Stream.
 895:Drivers/STM32H7xx_HAL_Driver/Src/stm32h7xx_hal_dma.c ****   * @retval HAL status
 896:Drivers/STM32H7xx_HAL_Driver/Src/stm32h7xx_hal_dma.c ****   */
 897:Drivers/STM32H7xx_HAL_Driver/Src/stm32h7xx_hal_dma.c **** HAL_StatusTypeDef HAL_DMA_Abort_IT(DMA_HandleTypeDef *hdma)
 898:Drivers/STM32H7xx_HAL_Driver/Src/stm32h7xx_hal_dma.c **** {
 899:Drivers/STM32H7xx_HAL_Driver/Src/stm32h7xx_hal_dma.c ****   BDMA_Base_Registers *regs_bdma;
 900:Drivers/STM32H7xx_HAL_Driver/Src/stm32h7xx_hal_dma.c **** 
 901:Drivers/STM32H7xx_HAL_Driver/Src/stm32h7xx_hal_dma.c ****   /* Check the DMA peripheral handle */
 902:Drivers/STM32H7xx_HAL_Driver/Src/stm32h7xx_hal_dma.c ****   if(hdma == NULL)
 903:Drivers/STM32H7xx_HAL_Driver/Src/stm32h7xx_hal_dma.c ****   {
 904:Drivers/STM32H7xx_HAL_Driver/Src/stm32h7xx_hal_dma.c ****     return HAL_ERROR;
 905:Drivers/STM32H7xx_HAL_Driver/Src/stm32h7xx_hal_dma.c ****   }
 906:Drivers/STM32H7xx_HAL_Driver/Src/stm32h7xx_hal_dma.c **** 
 907:Drivers/STM32H7xx_HAL_Driver/Src/stm32h7xx_hal_dma.c ****   if(hdma->State != HAL_DMA_STATE_BUSY)
 908:Drivers/STM32H7xx_HAL_Driver/Src/stm32h7xx_hal_dma.c ****   {
 909:Drivers/STM32H7xx_HAL_Driver/Src/stm32h7xx_hal_dma.c ****     hdma->ErrorCode = HAL_DMA_ERROR_NO_XFER;
 910:Drivers/STM32H7xx_HAL_Driver/Src/stm32h7xx_hal_dma.c ****     return HAL_ERROR;
 911:Drivers/STM32H7xx_HAL_Driver/Src/stm32h7xx_hal_dma.c ****   }
 912:Drivers/STM32H7xx_HAL_Driver/Src/stm32h7xx_hal_dma.c ****   else
 913:Drivers/STM32H7xx_HAL_Driver/Src/stm32h7xx_hal_dma.c ****   {
 914:Drivers/STM32H7xx_HAL_Driver/Src/stm32h7xx_hal_dma.c ****     if(IS_DMA_STREAM_INSTANCE(hdma->Instance) != 0U) /* DMA1 or DMA2 instance */
 915:Drivers/STM32H7xx_HAL_Driver/Src/stm32h7xx_hal_dma.c ****     {
 916:Drivers/STM32H7xx_HAL_Driver/Src/stm32h7xx_hal_dma.c ****       /* Set Abort State  */
 917:Drivers/STM32H7xx_HAL_Driver/Src/stm32h7xx_hal_dma.c ****       hdma->State = HAL_DMA_STATE_ABORT;
 918:Drivers/STM32H7xx_HAL_Driver/Src/stm32h7xx_hal_dma.c **** 
 919:Drivers/STM32H7xx_HAL_Driver/Src/stm32h7xx_hal_dma.c ****       /* Disable the stream */
 920:Drivers/STM32H7xx_HAL_Driver/Src/stm32h7xx_hal_dma.c ****       __HAL_DMA_DISABLE(hdma);
 921:Drivers/STM32H7xx_HAL_Driver/Src/stm32h7xx_hal_dma.c ****     }
 922:Drivers/STM32H7xx_HAL_Driver/Src/stm32h7xx_hal_dma.c ****     else /* BDMA channel */
 923:Drivers/STM32H7xx_HAL_Driver/Src/stm32h7xx_hal_dma.c ****     {
 924:Drivers/STM32H7xx_HAL_Driver/Src/stm32h7xx_hal_dma.c ****       /* Disable DMA All Interrupts  */
 925:Drivers/STM32H7xx_HAL_Driver/Src/stm32h7xx_hal_dma.c ****       ((BDMA_Channel_TypeDef   *)hdma->Instance)->CCR  &= ~(BDMA_CCR_TCIE | BDMA_CCR_HTIE | BDMA_CC
 926:Drivers/STM32H7xx_HAL_Driver/Src/stm32h7xx_hal_dma.c **** 
 927:Drivers/STM32H7xx_HAL_Driver/Src/stm32h7xx_hal_dma.c ****       /* Disable the channel */
 928:Drivers/STM32H7xx_HAL_Driver/Src/stm32h7xx_hal_dma.c ****       __HAL_DMA_DISABLE(hdma);
 929:Drivers/STM32H7xx_HAL_Driver/Src/stm32h7xx_hal_dma.c **** 
 930:Drivers/STM32H7xx_HAL_Driver/Src/stm32h7xx_hal_dma.c ****       if(IS_DMA_DMAMUX_ALL_INSTANCE(hdma->Instance) != 0U) /* No DMAMUX available for BDMA1 */
 931:Drivers/STM32H7xx_HAL_Driver/Src/stm32h7xx_hal_dma.c ****       {
 932:Drivers/STM32H7xx_HAL_Driver/Src/stm32h7xx_hal_dma.c ****         /* disable the DMAMUX sync overrun IT */
 933:Drivers/STM32H7xx_HAL_Driver/Src/stm32h7xx_hal_dma.c ****         hdma->DMAmuxChannel->CCR &= ~DMAMUX_CxCR_SOIE;
 934:Drivers/STM32H7xx_HAL_Driver/Src/stm32h7xx_hal_dma.c **** 
 935:Drivers/STM32H7xx_HAL_Driver/Src/stm32h7xx_hal_dma.c ****         /* Clear all flags */
 936:Drivers/STM32H7xx_HAL_Driver/Src/stm32h7xx_hal_dma.c ****         regs_bdma = (BDMA_Base_Registers *)hdma->StreamBaseAddress;
 937:Drivers/STM32H7xx_HAL_Driver/Src/stm32h7xx_hal_dma.c ****         regs_bdma->IFCR = ((BDMA_IFCR_CGIF0) << (hdma->StreamIndex & 0x1FU));
 938:Drivers/STM32H7xx_HAL_Driver/Src/stm32h7xx_hal_dma.c **** 
 939:Drivers/STM32H7xx_HAL_Driver/Src/stm32h7xx_hal_dma.c ****         /* Clear the DMAMUX synchro overrun flag */
 940:Drivers/STM32H7xx_HAL_Driver/Src/stm32h7xx_hal_dma.c ****         hdma->DMAmuxChannelStatus->CFR = hdma->DMAmuxChannelStatusMask;
 941:Drivers/STM32H7xx_HAL_Driver/Src/stm32h7xx_hal_dma.c **** 
 942:Drivers/STM32H7xx_HAL_Driver/Src/stm32h7xx_hal_dma.c ****         if(hdma->DMAmuxRequestGen != 0U)
 943:Drivers/STM32H7xx_HAL_Driver/Src/stm32h7xx_hal_dma.c ****         {
 944:Drivers/STM32H7xx_HAL_Driver/Src/stm32h7xx_hal_dma.c ****           /* if using DMAMUX request generator, disable the DMAMUX request generator overrun IT*/
 945:Drivers/STM32H7xx_HAL_Driver/Src/stm32h7xx_hal_dma.c ****           /* disable the request gen overrun IT */
ARM GAS  /tmp/ccBO8Lmd.s 			page 18


 946:Drivers/STM32H7xx_HAL_Driver/Src/stm32h7xx_hal_dma.c ****           hdma->DMAmuxRequestGen->RGCR &= ~DMAMUX_RGxCR_OIE;
 947:Drivers/STM32H7xx_HAL_Driver/Src/stm32h7xx_hal_dma.c **** 
 948:Drivers/STM32H7xx_HAL_Driver/Src/stm32h7xx_hal_dma.c ****           /* Clear the DMAMUX request generator overrun flag */
 949:Drivers/STM32H7xx_HAL_Driver/Src/stm32h7xx_hal_dma.c ****           hdma->DMAmuxRequestGenStatus->RGCFR = hdma->DMAmuxRequestGenStatusMask;
 950:Drivers/STM32H7xx_HAL_Driver/Src/stm32h7xx_hal_dma.c ****         }
 951:Drivers/STM32H7xx_HAL_Driver/Src/stm32h7xx_hal_dma.c ****       }
 952:Drivers/STM32H7xx_HAL_Driver/Src/stm32h7xx_hal_dma.c **** 
 953:Drivers/STM32H7xx_HAL_Driver/Src/stm32h7xx_hal_dma.c ****       /* Change the DMA state */
 954:Drivers/STM32H7xx_HAL_Driver/Src/stm32h7xx_hal_dma.c ****       hdma->State = HAL_DMA_STATE_READY;
 955:Drivers/STM32H7xx_HAL_Driver/Src/stm32h7xx_hal_dma.c **** 
 956:Drivers/STM32H7xx_HAL_Driver/Src/stm32h7xx_hal_dma.c ****       /* Process Unlocked */
 957:Drivers/STM32H7xx_HAL_Driver/Src/stm32h7xx_hal_dma.c ****       __HAL_UNLOCK(hdma);
 958:Drivers/STM32H7xx_HAL_Driver/Src/stm32h7xx_hal_dma.c **** 
 959:Drivers/STM32H7xx_HAL_Driver/Src/stm32h7xx_hal_dma.c ****       /* Call User Abort callback */
 960:Drivers/STM32H7xx_HAL_Driver/Src/stm32h7xx_hal_dma.c ****       if(hdma->XferAbortCallback != NULL)
 961:Drivers/STM32H7xx_HAL_Driver/Src/stm32h7xx_hal_dma.c ****       {
 962:Drivers/STM32H7xx_HAL_Driver/Src/stm32h7xx_hal_dma.c ****         hdma->XferAbortCallback(hdma);
 963:Drivers/STM32H7xx_HAL_Driver/Src/stm32h7xx_hal_dma.c ****       }
 964:Drivers/STM32H7xx_HAL_Driver/Src/stm32h7xx_hal_dma.c ****     }
 965:Drivers/STM32H7xx_HAL_Driver/Src/stm32h7xx_hal_dma.c ****   }
 966:Drivers/STM32H7xx_HAL_Driver/Src/stm32h7xx_hal_dma.c **** 
 967:Drivers/STM32H7xx_HAL_Driver/Src/stm32h7xx_hal_dma.c ****   return HAL_OK;
 968:Drivers/STM32H7xx_HAL_Driver/Src/stm32h7xx_hal_dma.c **** }
 969:Drivers/STM32H7xx_HAL_Driver/Src/stm32h7xx_hal_dma.c **** 
 970:Drivers/STM32H7xx_HAL_Driver/Src/stm32h7xx_hal_dma.c **** /**
 971:Drivers/STM32H7xx_HAL_Driver/Src/stm32h7xx_hal_dma.c ****   * @brief  Polling for transfer complete.
 972:Drivers/STM32H7xx_HAL_Driver/Src/stm32h7xx_hal_dma.c ****   * @param  hdma:          pointer to a DMA_HandleTypeDef structure that contains
 973:Drivers/STM32H7xx_HAL_Driver/Src/stm32h7xx_hal_dma.c ****   *                        the configuration information for the specified DMA Stream.
 974:Drivers/STM32H7xx_HAL_Driver/Src/stm32h7xx_hal_dma.c ****   * @param  CompleteLevel: Specifies the DMA level complete.
 975:Drivers/STM32H7xx_HAL_Driver/Src/stm32h7xx_hal_dma.c ****   * @note   The polling mode is kept in this version for legacy. it is recommended to use the IT mo
 976:Drivers/STM32H7xx_HAL_Driver/Src/stm32h7xx_hal_dma.c ****   *         This model could be used for debug purpose.
 977:Drivers/STM32H7xx_HAL_Driver/Src/stm32h7xx_hal_dma.c ****   * @note   The HAL_DMA_PollForTransfer API cannot be used in circular and double buffering mode (a
 978:Drivers/STM32H7xx_HAL_Driver/Src/stm32h7xx_hal_dma.c ****   * @param  Timeout:       Timeout duration.
 979:Drivers/STM32H7xx_HAL_Driver/Src/stm32h7xx_hal_dma.c ****   * @retval HAL status
 980:Drivers/STM32H7xx_HAL_Driver/Src/stm32h7xx_hal_dma.c ****   */
 981:Drivers/STM32H7xx_HAL_Driver/Src/stm32h7xx_hal_dma.c **** HAL_StatusTypeDef HAL_DMA_PollForTransfer(DMA_HandleTypeDef *hdma, HAL_DMA_LevelCompleteTypeDef Com
 982:Drivers/STM32H7xx_HAL_Driver/Src/stm32h7xx_hal_dma.c **** {
 983:Drivers/STM32H7xx_HAL_Driver/Src/stm32h7xx_hal_dma.c ****   HAL_StatusTypeDef status = HAL_OK;
 984:Drivers/STM32H7xx_HAL_Driver/Src/stm32h7xx_hal_dma.c ****   uint32_t cpltlevel_mask;
 985:Drivers/STM32H7xx_HAL_Driver/Src/stm32h7xx_hal_dma.c ****   uint32_t tickstart = HAL_GetTick();
 986:Drivers/STM32H7xx_HAL_Driver/Src/stm32h7xx_hal_dma.c **** 
 987:Drivers/STM32H7xx_HAL_Driver/Src/stm32h7xx_hal_dma.c ****   /* IT status register */
 988:Drivers/STM32H7xx_HAL_Driver/Src/stm32h7xx_hal_dma.c ****   __IO uint32_t *isr_reg;
 989:Drivers/STM32H7xx_HAL_Driver/Src/stm32h7xx_hal_dma.c ****   /* IT clear flag register */
 990:Drivers/STM32H7xx_HAL_Driver/Src/stm32h7xx_hal_dma.c ****   __IO uint32_t *ifcr_reg;
 991:Drivers/STM32H7xx_HAL_Driver/Src/stm32h7xx_hal_dma.c **** 
 992:Drivers/STM32H7xx_HAL_Driver/Src/stm32h7xx_hal_dma.c ****   /* Check the DMA peripheral handle */
 993:Drivers/STM32H7xx_HAL_Driver/Src/stm32h7xx_hal_dma.c ****   if(hdma == NULL)
 994:Drivers/STM32H7xx_HAL_Driver/Src/stm32h7xx_hal_dma.c ****   {
 995:Drivers/STM32H7xx_HAL_Driver/Src/stm32h7xx_hal_dma.c ****     return HAL_ERROR;
 996:Drivers/STM32H7xx_HAL_Driver/Src/stm32h7xx_hal_dma.c ****   }
 997:Drivers/STM32H7xx_HAL_Driver/Src/stm32h7xx_hal_dma.c **** 
 998:Drivers/STM32H7xx_HAL_Driver/Src/stm32h7xx_hal_dma.c ****   if(HAL_DMA_STATE_BUSY != hdma->State)
 999:Drivers/STM32H7xx_HAL_Driver/Src/stm32h7xx_hal_dma.c ****   {
1000:Drivers/STM32H7xx_HAL_Driver/Src/stm32h7xx_hal_dma.c ****     /* No transfer ongoing */
1001:Drivers/STM32H7xx_HAL_Driver/Src/stm32h7xx_hal_dma.c ****     hdma->ErrorCode = HAL_DMA_ERROR_NO_XFER;
1002:Drivers/STM32H7xx_HAL_Driver/Src/stm32h7xx_hal_dma.c ****     __HAL_UNLOCK(hdma);
ARM GAS  /tmp/ccBO8Lmd.s 			page 19


1003:Drivers/STM32H7xx_HAL_Driver/Src/stm32h7xx_hal_dma.c **** 
1004:Drivers/STM32H7xx_HAL_Driver/Src/stm32h7xx_hal_dma.c ****     return HAL_ERROR;
1005:Drivers/STM32H7xx_HAL_Driver/Src/stm32h7xx_hal_dma.c ****   }
1006:Drivers/STM32H7xx_HAL_Driver/Src/stm32h7xx_hal_dma.c **** 
1007:Drivers/STM32H7xx_HAL_Driver/Src/stm32h7xx_hal_dma.c ****   if(IS_DMA_STREAM_INSTANCE(hdma->Instance) != 0U) /* DMA1 or DMA2 instance */
1008:Drivers/STM32H7xx_HAL_Driver/Src/stm32h7xx_hal_dma.c ****   {
1009:Drivers/STM32H7xx_HAL_Driver/Src/stm32h7xx_hal_dma.c ****     /* Polling mode not supported in circular mode and double buffering mode */
1010:Drivers/STM32H7xx_HAL_Driver/Src/stm32h7xx_hal_dma.c ****     if ((((DMA_Stream_TypeDef   *)hdma->Instance)->CR & DMA_SxCR_CIRC) != 0U)
1011:Drivers/STM32H7xx_HAL_Driver/Src/stm32h7xx_hal_dma.c ****     {
1012:Drivers/STM32H7xx_HAL_Driver/Src/stm32h7xx_hal_dma.c ****       hdma->ErrorCode = HAL_DMA_ERROR_NOT_SUPPORTED;
1013:Drivers/STM32H7xx_HAL_Driver/Src/stm32h7xx_hal_dma.c ****       return HAL_ERROR;
1014:Drivers/STM32H7xx_HAL_Driver/Src/stm32h7xx_hal_dma.c ****     }
1015:Drivers/STM32H7xx_HAL_Driver/Src/stm32h7xx_hal_dma.c **** 
1016:Drivers/STM32H7xx_HAL_Driver/Src/stm32h7xx_hal_dma.c ****     /* Get the level transfer complete flag */
1017:Drivers/STM32H7xx_HAL_Driver/Src/stm32h7xx_hal_dma.c ****     if(CompleteLevel == HAL_DMA_FULL_TRANSFER)
1018:Drivers/STM32H7xx_HAL_Driver/Src/stm32h7xx_hal_dma.c ****     {
1019:Drivers/STM32H7xx_HAL_Driver/Src/stm32h7xx_hal_dma.c ****       /* Transfer Complete flag */
1020:Drivers/STM32H7xx_HAL_Driver/Src/stm32h7xx_hal_dma.c ****       cpltlevel_mask = DMA_FLAG_TCIF0_4 << (hdma->StreamIndex & 0x1FU);
1021:Drivers/STM32H7xx_HAL_Driver/Src/stm32h7xx_hal_dma.c ****     }
1022:Drivers/STM32H7xx_HAL_Driver/Src/stm32h7xx_hal_dma.c ****     else
1023:Drivers/STM32H7xx_HAL_Driver/Src/stm32h7xx_hal_dma.c ****     {
1024:Drivers/STM32H7xx_HAL_Driver/Src/stm32h7xx_hal_dma.c ****       /* Half Transfer Complete flag */
1025:Drivers/STM32H7xx_HAL_Driver/Src/stm32h7xx_hal_dma.c ****       cpltlevel_mask = DMA_FLAG_HTIF0_4 << (hdma->StreamIndex & 0x1FU);
1026:Drivers/STM32H7xx_HAL_Driver/Src/stm32h7xx_hal_dma.c ****     }
1027:Drivers/STM32H7xx_HAL_Driver/Src/stm32h7xx_hal_dma.c **** 
1028:Drivers/STM32H7xx_HAL_Driver/Src/stm32h7xx_hal_dma.c ****     isr_reg  = &(((DMA_Base_Registers *)hdma->StreamBaseAddress)->ISR);
1029:Drivers/STM32H7xx_HAL_Driver/Src/stm32h7xx_hal_dma.c ****     ifcr_reg = &(((DMA_Base_Registers *)hdma->StreamBaseAddress)->IFCR);
1030:Drivers/STM32H7xx_HAL_Driver/Src/stm32h7xx_hal_dma.c ****   }
1031:Drivers/STM32H7xx_HAL_Driver/Src/stm32h7xx_hal_dma.c ****   else /* BDMA channel */
1032:Drivers/STM32H7xx_HAL_Driver/Src/stm32h7xx_hal_dma.c ****   {
1033:Drivers/STM32H7xx_HAL_Driver/Src/stm32h7xx_hal_dma.c ****     /* Polling mode not supported in circular mode */
1034:Drivers/STM32H7xx_HAL_Driver/Src/stm32h7xx_hal_dma.c ****     if ((((BDMA_Channel_TypeDef   *)hdma->Instance)->CCR & BDMA_CCR_CIRC) != 0U)
1035:Drivers/STM32H7xx_HAL_Driver/Src/stm32h7xx_hal_dma.c ****     {
1036:Drivers/STM32H7xx_HAL_Driver/Src/stm32h7xx_hal_dma.c ****       hdma->ErrorCode = HAL_DMA_ERROR_NOT_SUPPORTED;
1037:Drivers/STM32H7xx_HAL_Driver/Src/stm32h7xx_hal_dma.c ****       return HAL_ERROR;
1038:Drivers/STM32H7xx_HAL_Driver/Src/stm32h7xx_hal_dma.c ****     }
1039:Drivers/STM32H7xx_HAL_Driver/Src/stm32h7xx_hal_dma.c **** 
1040:Drivers/STM32H7xx_HAL_Driver/Src/stm32h7xx_hal_dma.c ****     /* Get the level transfer complete flag */
1041:Drivers/STM32H7xx_HAL_Driver/Src/stm32h7xx_hal_dma.c ****     if(CompleteLevel == HAL_DMA_FULL_TRANSFER)
1042:Drivers/STM32H7xx_HAL_Driver/Src/stm32h7xx_hal_dma.c ****     {
1043:Drivers/STM32H7xx_HAL_Driver/Src/stm32h7xx_hal_dma.c ****       /* Transfer Complete flag */
1044:Drivers/STM32H7xx_HAL_Driver/Src/stm32h7xx_hal_dma.c ****       cpltlevel_mask = BDMA_FLAG_TC0 << (hdma->StreamIndex & 0x1FU);
1045:Drivers/STM32H7xx_HAL_Driver/Src/stm32h7xx_hal_dma.c ****     }
1046:Drivers/STM32H7xx_HAL_Driver/Src/stm32h7xx_hal_dma.c ****     else
1047:Drivers/STM32H7xx_HAL_Driver/Src/stm32h7xx_hal_dma.c ****     {
1048:Drivers/STM32H7xx_HAL_Driver/Src/stm32h7xx_hal_dma.c ****       /* Half Transfer Complete flag */
1049:Drivers/STM32H7xx_HAL_Driver/Src/stm32h7xx_hal_dma.c ****       cpltlevel_mask = BDMA_FLAG_HT0 << (hdma->StreamIndex & 0x1FU);
1050:Drivers/STM32H7xx_HAL_Driver/Src/stm32h7xx_hal_dma.c ****     }
1051:Drivers/STM32H7xx_HAL_Driver/Src/stm32h7xx_hal_dma.c **** 
1052:Drivers/STM32H7xx_HAL_Driver/Src/stm32h7xx_hal_dma.c ****     isr_reg  = &(((BDMA_Base_Registers *)hdma->StreamBaseAddress)->ISR);
1053:Drivers/STM32H7xx_HAL_Driver/Src/stm32h7xx_hal_dma.c ****     ifcr_reg = &(((BDMA_Base_Registers *)hdma->StreamBaseAddress)->IFCR);
1054:Drivers/STM32H7xx_HAL_Driver/Src/stm32h7xx_hal_dma.c ****   }
1055:Drivers/STM32H7xx_HAL_Driver/Src/stm32h7xx_hal_dma.c **** 
1056:Drivers/STM32H7xx_HAL_Driver/Src/stm32h7xx_hal_dma.c ****   while(((*isr_reg) & cpltlevel_mask) == 0U)
1057:Drivers/STM32H7xx_HAL_Driver/Src/stm32h7xx_hal_dma.c ****   {
1058:Drivers/STM32H7xx_HAL_Driver/Src/stm32h7xx_hal_dma.c ****     if(IS_DMA_STREAM_INSTANCE(hdma->Instance) != 0U) /* DMA1 or DMA2 instance */
1059:Drivers/STM32H7xx_HAL_Driver/Src/stm32h7xx_hal_dma.c ****     {
ARM GAS  /tmp/ccBO8Lmd.s 			page 20


1060:Drivers/STM32H7xx_HAL_Driver/Src/stm32h7xx_hal_dma.c ****       if(((*isr_reg) & (DMA_FLAG_FEIF0_4 << (hdma->StreamIndex & 0x1FU))) != 0U)
1061:Drivers/STM32H7xx_HAL_Driver/Src/stm32h7xx_hal_dma.c ****       {
1062:Drivers/STM32H7xx_HAL_Driver/Src/stm32h7xx_hal_dma.c ****         /* Update error code */
1063:Drivers/STM32H7xx_HAL_Driver/Src/stm32h7xx_hal_dma.c ****         hdma->ErrorCode |= HAL_DMA_ERROR_FE;
1064:Drivers/STM32H7xx_HAL_Driver/Src/stm32h7xx_hal_dma.c **** 
1065:Drivers/STM32H7xx_HAL_Driver/Src/stm32h7xx_hal_dma.c ****         /* Clear the FIFO error flag */
1066:Drivers/STM32H7xx_HAL_Driver/Src/stm32h7xx_hal_dma.c ****         (*ifcr_reg) = DMA_FLAG_FEIF0_4 << (hdma->StreamIndex & 0x1FU);
1067:Drivers/STM32H7xx_HAL_Driver/Src/stm32h7xx_hal_dma.c ****       }
1068:Drivers/STM32H7xx_HAL_Driver/Src/stm32h7xx_hal_dma.c **** 
1069:Drivers/STM32H7xx_HAL_Driver/Src/stm32h7xx_hal_dma.c ****       if(((*isr_reg) & (DMA_FLAG_DMEIF0_4 << (hdma->StreamIndex & 0x1FU))) != 0U)
1070:Drivers/STM32H7xx_HAL_Driver/Src/stm32h7xx_hal_dma.c ****       {
1071:Drivers/STM32H7xx_HAL_Driver/Src/stm32h7xx_hal_dma.c ****         /* Update error code */
1072:Drivers/STM32H7xx_HAL_Driver/Src/stm32h7xx_hal_dma.c ****         hdma->ErrorCode |= HAL_DMA_ERROR_DME;
1073:Drivers/STM32H7xx_HAL_Driver/Src/stm32h7xx_hal_dma.c **** 
1074:Drivers/STM32H7xx_HAL_Driver/Src/stm32h7xx_hal_dma.c ****         /* Clear the Direct Mode error flag */
1075:Drivers/STM32H7xx_HAL_Driver/Src/stm32h7xx_hal_dma.c ****         (*ifcr_reg) = DMA_FLAG_DMEIF0_4 << (hdma->StreamIndex & 0x1FU);
1076:Drivers/STM32H7xx_HAL_Driver/Src/stm32h7xx_hal_dma.c ****       }
1077:Drivers/STM32H7xx_HAL_Driver/Src/stm32h7xx_hal_dma.c **** 
1078:Drivers/STM32H7xx_HAL_Driver/Src/stm32h7xx_hal_dma.c ****       if(((*isr_reg) & (DMA_FLAG_TEIF0_4 << (hdma->StreamIndex & 0x1FU))) != 0U)
1079:Drivers/STM32H7xx_HAL_Driver/Src/stm32h7xx_hal_dma.c ****       {
1080:Drivers/STM32H7xx_HAL_Driver/Src/stm32h7xx_hal_dma.c ****         /* Update error code */
1081:Drivers/STM32H7xx_HAL_Driver/Src/stm32h7xx_hal_dma.c ****         hdma->ErrorCode |= HAL_DMA_ERROR_TE;
1082:Drivers/STM32H7xx_HAL_Driver/Src/stm32h7xx_hal_dma.c **** 
1083:Drivers/STM32H7xx_HAL_Driver/Src/stm32h7xx_hal_dma.c ****         /* Clear the transfer error flag */
1084:Drivers/STM32H7xx_HAL_Driver/Src/stm32h7xx_hal_dma.c ****         (*ifcr_reg) = DMA_FLAG_TEIF0_4 << (hdma->StreamIndex & 0x1FU);
1085:Drivers/STM32H7xx_HAL_Driver/Src/stm32h7xx_hal_dma.c **** 
1086:Drivers/STM32H7xx_HAL_Driver/Src/stm32h7xx_hal_dma.c ****         /* Change the DMA state */
1087:Drivers/STM32H7xx_HAL_Driver/Src/stm32h7xx_hal_dma.c ****         hdma->State = HAL_DMA_STATE_READY;
1088:Drivers/STM32H7xx_HAL_Driver/Src/stm32h7xx_hal_dma.c **** 
1089:Drivers/STM32H7xx_HAL_Driver/Src/stm32h7xx_hal_dma.c ****         /* Process Unlocked */
1090:Drivers/STM32H7xx_HAL_Driver/Src/stm32h7xx_hal_dma.c ****         __HAL_UNLOCK(hdma);
1091:Drivers/STM32H7xx_HAL_Driver/Src/stm32h7xx_hal_dma.c **** 
1092:Drivers/STM32H7xx_HAL_Driver/Src/stm32h7xx_hal_dma.c ****         return HAL_ERROR;
1093:Drivers/STM32H7xx_HAL_Driver/Src/stm32h7xx_hal_dma.c ****       }
1094:Drivers/STM32H7xx_HAL_Driver/Src/stm32h7xx_hal_dma.c ****     }
1095:Drivers/STM32H7xx_HAL_Driver/Src/stm32h7xx_hal_dma.c ****     else /* BDMA channel */
1096:Drivers/STM32H7xx_HAL_Driver/Src/stm32h7xx_hal_dma.c ****     {
1097:Drivers/STM32H7xx_HAL_Driver/Src/stm32h7xx_hal_dma.c ****       if(((*isr_reg) & (BDMA_FLAG_TE0 << (hdma->StreamIndex & 0x1FU))) != 0U)
1098:Drivers/STM32H7xx_HAL_Driver/Src/stm32h7xx_hal_dma.c ****       {
1099:Drivers/STM32H7xx_HAL_Driver/Src/stm32h7xx_hal_dma.c ****         /* When a DMA transfer error occurs */
1100:Drivers/STM32H7xx_HAL_Driver/Src/stm32h7xx_hal_dma.c ****         /* A hardware clear of its EN bits is performed */
1101:Drivers/STM32H7xx_HAL_Driver/Src/stm32h7xx_hal_dma.c ****         /* Clear all flags */
1102:Drivers/STM32H7xx_HAL_Driver/Src/stm32h7xx_hal_dma.c ****         (*isr_reg) = ((BDMA_ISR_GIF0) << (hdma->StreamIndex & 0x1FU));
1103:Drivers/STM32H7xx_HAL_Driver/Src/stm32h7xx_hal_dma.c **** 
1104:Drivers/STM32H7xx_HAL_Driver/Src/stm32h7xx_hal_dma.c ****         /* Update error code */
1105:Drivers/STM32H7xx_HAL_Driver/Src/stm32h7xx_hal_dma.c ****         hdma->ErrorCode = HAL_DMA_ERROR_TE;
1106:Drivers/STM32H7xx_HAL_Driver/Src/stm32h7xx_hal_dma.c **** 
1107:Drivers/STM32H7xx_HAL_Driver/Src/stm32h7xx_hal_dma.c ****         /* Change the DMA state */
1108:Drivers/STM32H7xx_HAL_Driver/Src/stm32h7xx_hal_dma.c ****         hdma->State = HAL_DMA_STATE_READY;
1109:Drivers/STM32H7xx_HAL_Driver/Src/stm32h7xx_hal_dma.c **** 
1110:Drivers/STM32H7xx_HAL_Driver/Src/stm32h7xx_hal_dma.c ****         /* Process Unlocked */
1111:Drivers/STM32H7xx_HAL_Driver/Src/stm32h7xx_hal_dma.c ****         __HAL_UNLOCK(hdma);
1112:Drivers/STM32H7xx_HAL_Driver/Src/stm32h7xx_hal_dma.c **** 
1113:Drivers/STM32H7xx_HAL_Driver/Src/stm32h7xx_hal_dma.c ****         return HAL_ERROR;
1114:Drivers/STM32H7xx_HAL_Driver/Src/stm32h7xx_hal_dma.c ****       }
1115:Drivers/STM32H7xx_HAL_Driver/Src/stm32h7xx_hal_dma.c ****     }
1116:Drivers/STM32H7xx_HAL_Driver/Src/stm32h7xx_hal_dma.c **** 
ARM GAS  /tmp/ccBO8Lmd.s 			page 21


1117:Drivers/STM32H7xx_HAL_Driver/Src/stm32h7xx_hal_dma.c ****     /* Check for the Timeout (Not applicable in circular mode)*/
1118:Drivers/STM32H7xx_HAL_Driver/Src/stm32h7xx_hal_dma.c ****     if(Timeout != HAL_MAX_DELAY)
1119:Drivers/STM32H7xx_HAL_Driver/Src/stm32h7xx_hal_dma.c ****     {
1120:Drivers/STM32H7xx_HAL_Driver/Src/stm32h7xx_hal_dma.c ****       if(((HAL_GetTick() - tickstart ) > Timeout)||(Timeout == 0U))
1121:Drivers/STM32H7xx_HAL_Driver/Src/stm32h7xx_hal_dma.c ****       {
1122:Drivers/STM32H7xx_HAL_Driver/Src/stm32h7xx_hal_dma.c ****         /* Update error code */
1123:Drivers/STM32H7xx_HAL_Driver/Src/stm32h7xx_hal_dma.c ****         hdma->ErrorCode = HAL_DMA_ERROR_TIMEOUT;
1124:Drivers/STM32H7xx_HAL_Driver/Src/stm32h7xx_hal_dma.c **** 
1125:Drivers/STM32H7xx_HAL_Driver/Src/stm32h7xx_hal_dma.c ****         /* if timeout then abort the current transfer */
1126:Drivers/STM32H7xx_HAL_Driver/Src/stm32h7xx_hal_dma.c ****         /* No need to check return value: as in this case we will return HAL_ERROR with HAL_DMA_ERR
1127:Drivers/STM32H7xx_HAL_Driver/Src/stm32h7xx_hal_dma.c ****         (void) HAL_DMA_Abort(hdma);
1128:Drivers/STM32H7xx_HAL_Driver/Src/stm32h7xx_hal_dma.c ****           /*
1129:Drivers/STM32H7xx_HAL_Driver/Src/stm32h7xx_hal_dma.c ****             Note that the Abort function will
1130:Drivers/STM32H7xx_HAL_Driver/Src/stm32h7xx_hal_dma.c ****               - Clear the transfer error flags
1131:Drivers/STM32H7xx_HAL_Driver/Src/stm32h7xx_hal_dma.c ****               - Unlock
1132:Drivers/STM32H7xx_HAL_Driver/Src/stm32h7xx_hal_dma.c ****               - Set the State
1133:Drivers/STM32H7xx_HAL_Driver/Src/stm32h7xx_hal_dma.c ****           */
1134:Drivers/STM32H7xx_HAL_Driver/Src/stm32h7xx_hal_dma.c **** 
1135:Drivers/STM32H7xx_HAL_Driver/Src/stm32h7xx_hal_dma.c ****         return HAL_ERROR;
1136:Drivers/STM32H7xx_HAL_Driver/Src/stm32h7xx_hal_dma.c ****       }
1137:Drivers/STM32H7xx_HAL_Driver/Src/stm32h7xx_hal_dma.c ****     }
1138:Drivers/STM32H7xx_HAL_Driver/Src/stm32h7xx_hal_dma.c **** 
1139:Drivers/STM32H7xx_HAL_Driver/Src/stm32h7xx_hal_dma.c ****     if(IS_DMA_DMAMUX_ALL_INSTANCE(hdma->Instance) != 0U) /* No DMAMUX available for BDMA1 */
1140:Drivers/STM32H7xx_HAL_Driver/Src/stm32h7xx_hal_dma.c ****     {
1141:Drivers/STM32H7xx_HAL_Driver/Src/stm32h7xx_hal_dma.c ****       /* Check for DMAMUX Request generator (if used) overrun status */
1142:Drivers/STM32H7xx_HAL_Driver/Src/stm32h7xx_hal_dma.c ****       if(hdma->DMAmuxRequestGen != 0U)
1143:Drivers/STM32H7xx_HAL_Driver/Src/stm32h7xx_hal_dma.c ****       {
1144:Drivers/STM32H7xx_HAL_Driver/Src/stm32h7xx_hal_dma.c ****         /* if using DMAMUX request generator Check for DMAMUX request generator overrun */
1145:Drivers/STM32H7xx_HAL_Driver/Src/stm32h7xx_hal_dma.c ****         if((hdma->DMAmuxRequestGenStatus->RGSR & hdma->DMAmuxRequestGenStatusMask) != 0U)
1146:Drivers/STM32H7xx_HAL_Driver/Src/stm32h7xx_hal_dma.c ****         {
1147:Drivers/STM32H7xx_HAL_Driver/Src/stm32h7xx_hal_dma.c ****           /* Clear the DMAMUX request generator overrun flag */
1148:Drivers/STM32H7xx_HAL_Driver/Src/stm32h7xx_hal_dma.c ****           hdma->DMAmuxRequestGenStatus->RGCFR = hdma->DMAmuxRequestGenStatusMask;
1149:Drivers/STM32H7xx_HAL_Driver/Src/stm32h7xx_hal_dma.c **** 
1150:Drivers/STM32H7xx_HAL_Driver/Src/stm32h7xx_hal_dma.c ****           /* Update error code */
1151:Drivers/STM32H7xx_HAL_Driver/Src/stm32h7xx_hal_dma.c ****           hdma->ErrorCode |= HAL_DMA_ERROR_REQGEN;
1152:Drivers/STM32H7xx_HAL_Driver/Src/stm32h7xx_hal_dma.c ****         }
1153:Drivers/STM32H7xx_HAL_Driver/Src/stm32h7xx_hal_dma.c ****       }
1154:Drivers/STM32H7xx_HAL_Driver/Src/stm32h7xx_hal_dma.c **** 
1155:Drivers/STM32H7xx_HAL_Driver/Src/stm32h7xx_hal_dma.c ****       /* Check for DMAMUX Synchronization overrun */
1156:Drivers/STM32H7xx_HAL_Driver/Src/stm32h7xx_hal_dma.c ****       if((hdma->DMAmuxChannelStatus->CSR & hdma->DMAmuxChannelStatusMask) != 0U)
1157:Drivers/STM32H7xx_HAL_Driver/Src/stm32h7xx_hal_dma.c ****       {
1158:Drivers/STM32H7xx_HAL_Driver/Src/stm32h7xx_hal_dma.c ****         /* Clear the DMAMUX synchro overrun flag */
1159:Drivers/STM32H7xx_HAL_Driver/Src/stm32h7xx_hal_dma.c ****         hdma->DMAmuxChannelStatus->CFR = hdma->DMAmuxChannelStatusMask;
1160:Drivers/STM32H7xx_HAL_Driver/Src/stm32h7xx_hal_dma.c **** 
1161:Drivers/STM32H7xx_HAL_Driver/Src/stm32h7xx_hal_dma.c ****         /* Update error code */
1162:Drivers/STM32H7xx_HAL_Driver/Src/stm32h7xx_hal_dma.c ****         hdma->ErrorCode |= HAL_DMA_ERROR_SYNC;
1163:Drivers/STM32H7xx_HAL_Driver/Src/stm32h7xx_hal_dma.c ****       }
1164:Drivers/STM32H7xx_HAL_Driver/Src/stm32h7xx_hal_dma.c ****     }
1165:Drivers/STM32H7xx_HAL_Driver/Src/stm32h7xx_hal_dma.c ****   }
1166:Drivers/STM32H7xx_HAL_Driver/Src/stm32h7xx_hal_dma.c **** 
1167:Drivers/STM32H7xx_HAL_Driver/Src/stm32h7xx_hal_dma.c **** 
1168:Drivers/STM32H7xx_HAL_Driver/Src/stm32h7xx_hal_dma.c ****   /* Get the level transfer complete flag */
1169:Drivers/STM32H7xx_HAL_Driver/Src/stm32h7xx_hal_dma.c ****   if(CompleteLevel == HAL_DMA_FULL_TRANSFER)
1170:Drivers/STM32H7xx_HAL_Driver/Src/stm32h7xx_hal_dma.c ****   {
1171:Drivers/STM32H7xx_HAL_Driver/Src/stm32h7xx_hal_dma.c ****     /* Clear the half transfer and transfer complete flags */
1172:Drivers/STM32H7xx_HAL_Driver/Src/stm32h7xx_hal_dma.c ****     if(IS_DMA_STREAM_INSTANCE(hdma->Instance) != 0U) /* DMA1 or DMA2 instance */
1173:Drivers/STM32H7xx_HAL_Driver/Src/stm32h7xx_hal_dma.c ****     {
ARM GAS  /tmp/ccBO8Lmd.s 			page 22


1174:Drivers/STM32H7xx_HAL_Driver/Src/stm32h7xx_hal_dma.c ****       (*ifcr_reg) = (DMA_FLAG_HTIF0_4 | DMA_FLAG_TCIF0_4) << (hdma->StreamIndex & 0x1FU);
1175:Drivers/STM32H7xx_HAL_Driver/Src/stm32h7xx_hal_dma.c ****     }
1176:Drivers/STM32H7xx_HAL_Driver/Src/stm32h7xx_hal_dma.c ****     else /* BDMA channel */
1177:Drivers/STM32H7xx_HAL_Driver/Src/stm32h7xx_hal_dma.c ****     {
1178:Drivers/STM32H7xx_HAL_Driver/Src/stm32h7xx_hal_dma.c ****       (*ifcr_reg) = (BDMA_FLAG_TC0 << (hdma->StreamIndex & 0x1FU));
1179:Drivers/STM32H7xx_HAL_Driver/Src/stm32h7xx_hal_dma.c ****     }
1180:Drivers/STM32H7xx_HAL_Driver/Src/stm32h7xx_hal_dma.c **** 
1181:Drivers/STM32H7xx_HAL_Driver/Src/stm32h7xx_hal_dma.c ****     hdma->State = HAL_DMA_STATE_READY;
1182:Drivers/STM32H7xx_HAL_Driver/Src/stm32h7xx_hal_dma.c **** 
1183:Drivers/STM32H7xx_HAL_Driver/Src/stm32h7xx_hal_dma.c ****     /* Process Unlocked */
1184:Drivers/STM32H7xx_HAL_Driver/Src/stm32h7xx_hal_dma.c ****     __HAL_UNLOCK(hdma);
1185:Drivers/STM32H7xx_HAL_Driver/Src/stm32h7xx_hal_dma.c ****   }
1186:Drivers/STM32H7xx_HAL_Driver/Src/stm32h7xx_hal_dma.c ****   else /*CompleteLevel = HAL_DMA_HALF_TRANSFER*/
1187:Drivers/STM32H7xx_HAL_Driver/Src/stm32h7xx_hal_dma.c ****   {
1188:Drivers/STM32H7xx_HAL_Driver/Src/stm32h7xx_hal_dma.c ****     /* Clear the half transfer and transfer complete flags */
1189:Drivers/STM32H7xx_HAL_Driver/Src/stm32h7xx_hal_dma.c ****     if(IS_DMA_STREAM_INSTANCE(hdma->Instance) != 0U) /* DMA1 or DMA2 instance */
1190:Drivers/STM32H7xx_HAL_Driver/Src/stm32h7xx_hal_dma.c ****     {
1191:Drivers/STM32H7xx_HAL_Driver/Src/stm32h7xx_hal_dma.c ****       (*ifcr_reg) = (DMA_FLAG_HTIF0_4) << (hdma->StreamIndex & 0x1FU);
1192:Drivers/STM32H7xx_HAL_Driver/Src/stm32h7xx_hal_dma.c ****     }
1193:Drivers/STM32H7xx_HAL_Driver/Src/stm32h7xx_hal_dma.c ****     else /* BDMA channel */
1194:Drivers/STM32H7xx_HAL_Driver/Src/stm32h7xx_hal_dma.c ****     {
1195:Drivers/STM32H7xx_HAL_Driver/Src/stm32h7xx_hal_dma.c ****       (*ifcr_reg) = (BDMA_FLAG_HT0 << (hdma->StreamIndex & 0x1FU));
1196:Drivers/STM32H7xx_HAL_Driver/Src/stm32h7xx_hal_dma.c ****     }
1197:Drivers/STM32H7xx_HAL_Driver/Src/stm32h7xx_hal_dma.c ****   }
1198:Drivers/STM32H7xx_HAL_Driver/Src/stm32h7xx_hal_dma.c **** 
1199:Drivers/STM32H7xx_HAL_Driver/Src/stm32h7xx_hal_dma.c ****   return status;
1200:Drivers/STM32H7xx_HAL_Driver/Src/stm32h7xx_hal_dma.c **** }
1201:Drivers/STM32H7xx_HAL_Driver/Src/stm32h7xx_hal_dma.c **** 
1202:Drivers/STM32H7xx_HAL_Driver/Src/stm32h7xx_hal_dma.c **** /**
1203:Drivers/STM32H7xx_HAL_Driver/Src/stm32h7xx_hal_dma.c ****   * @brief  Handles DMA interrupt request.
1204:Drivers/STM32H7xx_HAL_Driver/Src/stm32h7xx_hal_dma.c ****   * @param  hdma: pointer to a DMA_HandleTypeDef structure that contains
1205:Drivers/STM32H7xx_HAL_Driver/Src/stm32h7xx_hal_dma.c ****   *               the configuration information for the specified DMA Stream.
1206:Drivers/STM32H7xx_HAL_Driver/Src/stm32h7xx_hal_dma.c ****   * @retval None
1207:Drivers/STM32H7xx_HAL_Driver/Src/stm32h7xx_hal_dma.c ****   */
1208:Drivers/STM32H7xx_HAL_Driver/Src/stm32h7xx_hal_dma.c **** void HAL_DMA_IRQHandler(DMA_HandleTypeDef *hdma)
1209:Drivers/STM32H7xx_HAL_Driver/Src/stm32h7xx_hal_dma.c **** {
1210:Drivers/STM32H7xx_HAL_Driver/Src/stm32h7xx_hal_dma.c ****   uint32_t tmpisr_dma, tmpisr_bdma;
1211:Drivers/STM32H7xx_HAL_Driver/Src/stm32h7xx_hal_dma.c ****   uint32_t ccr_reg;
1212:Drivers/STM32H7xx_HAL_Driver/Src/stm32h7xx_hal_dma.c ****   __IO uint32_t count = 0U;
1213:Drivers/STM32H7xx_HAL_Driver/Src/stm32h7xx_hal_dma.c ****   uint32_t timeout = SystemCoreClock / 9600U;
1214:Drivers/STM32H7xx_HAL_Driver/Src/stm32h7xx_hal_dma.c **** 
1215:Drivers/STM32H7xx_HAL_Driver/Src/stm32h7xx_hal_dma.c ****   /* calculate DMA base and stream number */
1216:Drivers/STM32H7xx_HAL_Driver/Src/stm32h7xx_hal_dma.c ****   DMA_Base_Registers  *regs_dma  = (DMA_Base_Registers *)hdma->StreamBaseAddress;
1217:Drivers/STM32H7xx_HAL_Driver/Src/stm32h7xx_hal_dma.c ****   BDMA_Base_Registers *regs_bdma = (BDMA_Base_Registers *)hdma->StreamBaseAddress;
1218:Drivers/STM32H7xx_HAL_Driver/Src/stm32h7xx_hal_dma.c **** 
1219:Drivers/STM32H7xx_HAL_Driver/Src/stm32h7xx_hal_dma.c ****   tmpisr_dma  = regs_dma->ISR;
1220:Drivers/STM32H7xx_HAL_Driver/Src/stm32h7xx_hal_dma.c ****   tmpisr_bdma = regs_bdma->ISR;
1221:Drivers/STM32H7xx_HAL_Driver/Src/stm32h7xx_hal_dma.c **** 
1222:Drivers/STM32H7xx_HAL_Driver/Src/stm32h7xx_hal_dma.c ****   if(IS_DMA_STREAM_INSTANCE(hdma->Instance) != 0U)  /* DMA1 or DMA2 instance */
1223:Drivers/STM32H7xx_HAL_Driver/Src/stm32h7xx_hal_dma.c ****   {
1224:Drivers/STM32H7xx_HAL_Driver/Src/stm32h7xx_hal_dma.c ****     /* Transfer Error Interrupt management ***************************************/
1225:Drivers/STM32H7xx_HAL_Driver/Src/stm32h7xx_hal_dma.c ****     if ((tmpisr_dma & (DMA_FLAG_TEIF0_4 << (hdma->StreamIndex & 0x1FU))) != 0U)
1226:Drivers/STM32H7xx_HAL_Driver/Src/stm32h7xx_hal_dma.c ****     {
1227:Drivers/STM32H7xx_HAL_Driver/Src/stm32h7xx_hal_dma.c ****       if(__HAL_DMA_GET_IT_SOURCE(hdma, DMA_IT_TE) != 0U)
1228:Drivers/STM32H7xx_HAL_Driver/Src/stm32h7xx_hal_dma.c ****       {
1229:Drivers/STM32H7xx_HAL_Driver/Src/stm32h7xx_hal_dma.c ****         /* Disable the transfer error interrupt */
1230:Drivers/STM32H7xx_HAL_Driver/Src/stm32h7xx_hal_dma.c ****         ((DMA_Stream_TypeDef   *)hdma->Instance)->CR  &= ~(DMA_IT_TE);
ARM GAS  /tmp/ccBO8Lmd.s 			page 23


1231:Drivers/STM32H7xx_HAL_Driver/Src/stm32h7xx_hal_dma.c **** 
1232:Drivers/STM32H7xx_HAL_Driver/Src/stm32h7xx_hal_dma.c ****         /* Clear the transfer error flag */
1233:Drivers/STM32H7xx_HAL_Driver/Src/stm32h7xx_hal_dma.c ****         regs_dma->IFCR = DMA_FLAG_TEIF0_4 << (hdma->StreamIndex & 0x1FU);
1234:Drivers/STM32H7xx_HAL_Driver/Src/stm32h7xx_hal_dma.c **** 
1235:Drivers/STM32H7xx_HAL_Driver/Src/stm32h7xx_hal_dma.c ****         /* Update error code */
1236:Drivers/STM32H7xx_HAL_Driver/Src/stm32h7xx_hal_dma.c ****         hdma->ErrorCode |= HAL_DMA_ERROR_TE;
1237:Drivers/STM32H7xx_HAL_Driver/Src/stm32h7xx_hal_dma.c ****       }
1238:Drivers/STM32H7xx_HAL_Driver/Src/stm32h7xx_hal_dma.c ****     }
1239:Drivers/STM32H7xx_HAL_Driver/Src/stm32h7xx_hal_dma.c ****     /* FIFO Error Interrupt management ******************************************/
1240:Drivers/STM32H7xx_HAL_Driver/Src/stm32h7xx_hal_dma.c ****     if ((tmpisr_dma & (DMA_FLAG_FEIF0_4 << (hdma->StreamIndex & 0x1FU))) != 0U)
1241:Drivers/STM32H7xx_HAL_Driver/Src/stm32h7xx_hal_dma.c ****     {
1242:Drivers/STM32H7xx_HAL_Driver/Src/stm32h7xx_hal_dma.c ****       if(__HAL_DMA_GET_IT_SOURCE(hdma, DMA_IT_FE) != 0U)
1243:Drivers/STM32H7xx_HAL_Driver/Src/stm32h7xx_hal_dma.c ****       {
1244:Drivers/STM32H7xx_HAL_Driver/Src/stm32h7xx_hal_dma.c ****         /* Clear the FIFO error flag */
1245:Drivers/STM32H7xx_HAL_Driver/Src/stm32h7xx_hal_dma.c ****         regs_dma->IFCR = DMA_FLAG_FEIF0_4 << (hdma->StreamIndex & 0x1FU);
1246:Drivers/STM32H7xx_HAL_Driver/Src/stm32h7xx_hal_dma.c **** 
1247:Drivers/STM32H7xx_HAL_Driver/Src/stm32h7xx_hal_dma.c ****         /* Update error code */
1248:Drivers/STM32H7xx_HAL_Driver/Src/stm32h7xx_hal_dma.c ****         hdma->ErrorCode |= HAL_DMA_ERROR_FE;
1249:Drivers/STM32H7xx_HAL_Driver/Src/stm32h7xx_hal_dma.c ****       }
1250:Drivers/STM32H7xx_HAL_Driver/Src/stm32h7xx_hal_dma.c ****     }
1251:Drivers/STM32H7xx_HAL_Driver/Src/stm32h7xx_hal_dma.c ****     /* Direct Mode Error Interrupt management ***********************************/
1252:Drivers/STM32H7xx_HAL_Driver/Src/stm32h7xx_hal_dma.c ****     if ((tmpisr_dma & (DMA_FLAG_DMEIF0_4 << (hdma->StreamIndex & 0x1FU))) != 0U)
1253:Drivers/STM32H7xx_HAL_Driver/Src/stm32h7xx_hal_dma.c ****     {
1254:Drivers/STM32H7xx_HAL_Driver/Src/stm32h7xx_hal_dma.c ****       if(__HAL_DMA_GET_IT_SOURCE(hdma, DMA_IT_DME) != 0U)
1255:Drivers/STM32H7xx_HAL_Driver/Src/stm32h7xx_hal_dma.c ****       {
1256:Drivers/STM32H7xx_HAL_Driver/Src/stm32h7xx_hal_dma.c ****         /* Clear the direct mode error flag */
1257:Drivers/STM32H7xx_HAL_Driver/Src/stm32h7xx_hal_dma.c ****         regs_dma->IFCR = DMA_FLAG_DMEIF0_4 << (hdma->StreamIndex & 0x1FU);
1258:Drivers/STM32H7xx_HAL_Driver/Src/stm32h7xx_hal_dma.c **** 
1259:Drivers/STM32H7xx_HAL_Driver/Src/stm32h7xx_hal_dma.c ****         /* Update error code */
1260:Drivers/STM32H7xx_HAL_Driver/Src/stm32h7xx_hal_dma.c ****         hdma->ErrorCode |= HAL_DMA_ERROR_DME;
1261:Drivers/STM32H7xx_HAL_Driver/Src/stm32h7xx_hal_dma.c ****       }
1262:Drivers/STM32H7xx_HAL_Driver/Src/stm32h7xx_hal_dma.c ****     }
1263:Drivers/STM32H7xx_HAL_Driver/Src/stm32h7xx_hal_dma.c ****     /* Half Transfer Complete Interrupt management ******************************/
1264:Drivers/STM32H7xx_HAL_Driver/Src/stm32h7xx_hal_dma.c ****     if ((tmpisr_dma & (DMA_FLAG_HTIF0_4 << (hdma->StreamIndex & 0x1FU))) != 0U)
1265:Drivers/STM32H7xx_HAL_Driver/Src/stm32h7xx_hal_dma.c ****     {
1266:Drivers/STM32H7xx_HAL_Driver/Src/stm32h7xx_hal_dma.c ****       if(__HAL_DMA_GET_IT_SOURCE(hdma, DMA_IT_HT) != 0U)
1267:Drivers/STM32H7xx_HAL_Driver/Src/stm32h7xx_hal_dma.c ****       {
1268:Drivers/STM32H7xx_HAL_Driver/Src/stm32h7xx_hal_dma.c ****         /* Clear the half transfer complete flag */
1269:Drivers/STM32H7xx_HAL_Driver/Src/stm32h7xx_hal_dma.c ****         regs_dma->IFCR = DMA_FLAG_HTIF0_4 << (hdma->StreamIndex & 0x1FU);
1270:Drivers/STM32H7xx_HAL_Driver/Src/stm32h7xx_hal_dma.c **** 
1271:Drivers/STM32H7xx_HAL_Driver/Src/stm32h7xx_hal_dma.c ****         /* Multi_Buffering mode enabled */
1272:Drivers/STM32H7xx_HAL_Driver/Src/stm32h7xx_hal_dma.c ****         if(((((DMA_Stream_TypeDef   *)hdma->Instance)->CR) & (uint32_t)(DMA_SxCR_DBM)) != 0U)
1273:Drivers/STM32H7xx_HAL_Driver/Src/stm32h7xx_hal_dma.c ****         {
1274:Drivers/STM32H7xx_HAL_Driver/Src/stm32h7xx_hal_dma.c ****           /* Current memory buffer used is Memory 0 */
1275:Drivers/STM32H7xx_HAL_Driver/Src/stm32h7xx_hal_dma.c ****           if((((DMA_Stream_TypeDef   *)hdma->Instance)->CR & DMA_SxCR_CT) == 0U)
1276:Drivers/STM32H7xx_HAL_Driver/Src/stm32h7xx_hal_dma.c ****           {
1277:Drivers/STM32H7xx_HAL_Driver/Src/stm32h7xx_hal_dma.c ****             if(hdma->XferHalfCpltCallback != NULL)
1278:Drivers/STM32H7xx_HAL_Driver/Src/stm32h7xx_hal_dma.c ****             {
1279:Drivers/STM32H7xx_HAL_Driver/Src/stm32h7xx_hal_dma.c ****               /* Half transfer callback */
1280:Drivers/STM32H7xx_HAL_Driver/Src/stm32h7xx_hal_dma.c ****               hdma->XferHalfCpltCallback(hdma);
1281:Drivers/STM32H7xx_HAL_Driver/Src/stm32h7xx_hal_dma.c ****             }
1282:Drivers/STM32H7xx_HAL_Driver/Src/stm32h7xx_hal_dma.c ****           }
1283:Drivers/STM32H7xx_HAL_Driver/Src/stm32h7xx_hal_dma.c ****           /* Current memory buffer used is Memory 1 */
1284:Drivers/STM32H7xx_HAL_Driver/Src/stm32h7xx_hal_dma.c ****           else
1285:Drivers/STM32H7xx_HAL_Driver/Src/stm32h7xx_hal_dma.c ****           {
1286:Drivers/STM32H7xx_HAL_Driver/Src/stm32h7xx_hal_dma.c ****             if(hdma->XferM1HalfCpltCallback != NULL)
1287:Drivers/STM32H7xx_HAL_Driver/Src/stm32h7xx_hal_dma.c ****             {
ARM GAS  /tmp/ccBO8Lmd.s 			page 24


1288:Drivers/STM32H7xx_HAL_Driver/Src/stm32h7xx_hal_dma.c ****               /* Half transfer callback */
1289:Drivers/STM32H7xx_HAL_Driver/Src/stm32h7xx_hal_dma.c ****               hdma->XferM1HalfCpltCallback(hdma);
1290:Drivers/STM32H7xx_HAL_Driver/Src/stm32h7xx_hal_dma.c ****             }
1291:Drivers/STM32H7xx_HAL_Driver/Src/stm32h7xx_hal_dma.c ****           }
1292:Drivers/STM32H7xx_HAL_Driver/Src/stm32h7xx_hal_dma.c ****         }
1293:Drivers/STM32H7xx_HAL_Driver/Src/stm32h7xx_hal_dma.c ****         else
1294:Drivers/STM32H7xx_HAL_Driver/Src/stm32h7xx_hal_dma.c ****         {
1295:Drivers/STM32H7xx_HAL_Driver/Src/stm32h7xx_hal_dma.c ****           /* Disable the half transfer interrupt if the DMA mode is not CIRCULAR */
1296:Drivers/STM32H7xx_HAL_Driver/Src/stm32h7xx_hal_dma.c ****           if((((DMA_Stream_TypeDef   *)hdma->Instance)->CR & DMA_SxCR_CIRC) == 0U)
1297:Drivers/STM32H7xx_HAL_Driver/Src/stm32h7xx_hal_dma.c ****           {
1298:Drivers/STM32H7xx_HAL_Driver/Src/stm32h7xx_hal_dma.c ****             /* Disable the half transfer interrupt */
1299:Drivers/STM32H7xx_HAL_Driver/Src/stm32h7xx_hal_dma.c ****             ((DMA_Stream_TypeDef   *)hdma->Instance)->CR  &= ~(DMA_IT_HT);
1300:Drivers/STM32H7xx_HAL_Driver/Src/stm32h7xx_hal_dma.c ****           }
1301:Drivers/STM32H7xx_HAL_Driver/Src/stm32h7xx_hal_dma.c **** 
1302:Drivers/STM32H7xx_HAL_Driver/Src/stm32h7xx_hal_dma.c ****           if(hdma->XferHalfCpltCallback != NULL)
1303:Drivers/STM32H7xx_HAL_Driver/Src/stm32h7xx_hal_dma.c ****           {
1304:Drivers/STM32H7xx_HAL_Driver/Src/stm32h7xx_hal_dma.c ****             /* Half transfer callback */
1305:Drivers/STM32H7xx_HAL_Driver/Src/stm32h7xx_hal_dma.c ****             hdma->XferHalfCpltCallback(hdma);
1306:Drivers/STM32H7xx_HAL_Driver/Src/stm32h7xx_hal_dma.c ****           }
1307:Drivers/STM32H7xx_HAL_Driver/Src/stm32h7xx_hal_dma.c ****         }
1308:Drivers/STM32H7xx_HAL_Driver/Src/stm32h7xx_hal_dma.c ****       }
1309:Drivers/STM32H7xx_HAL_Driver/Src/stm32h7xx_hal_dma.c ****     }
1310:Drivers/STM32H7xx_HAL_Driver/Src/stm32h7xx_hal_dma.c ****     /* Transfer Complete Interrupt management ***********************************/
1311:Drivers/STM32H7xx_HAL_Driver/Src/stm32h7xx_hal_dma.c ****     if ((tmpisr_dma & (DMA_FLAG_TCIF0_4 << (hdma->StreamIndex & 0x1FU))) != 0U)
1312:Drivers/STM32H7xx_HAL_Driver/Src/stm32h7xx_hal_dma.c ****     {
1313:Drivers/STM32H7xx_HAL_Driver/Src/stm32h7xx_hal_dma.c ****       if(__HAL_DMA_GET_IT_SOURCE(hdma, DMA_IT_TC) != 0U)
1314:Drivers/STM32H7xx_HAL_Driver/Src/stm32h7xx_hal_dma.c ****       {
1315:Drivers/STM32H7xx_HAL_Driver/Src/stm32h7xx_hal_dma.c ****         /* Clear the transfer complete flag */
1316:Drivers/STM32H7xx_HAL_Driver/Src/stm32h7xx_hal_dma.c ****         regs_dma->IFCR = DMA_FLAG_TCIF0_4 << (hdma->StreamIndex & 0x1FU);
1317:Drivers/STM32H7xx_HAL_Driver/Src/stm32h7xx_hal_dma.c **** 
1318:Drivers/STM32H7xx_HAL_Driver/Src/stm32h7xx_hal_dma.c ****         if(HAL_DMA_STATE_ABORT == hdma->State)
1319:Drivers/STM32H7xx_HAL_Driver/Src/stm32h7xx_hal_dma.c ****         {
1320:Drivers/STM32H7xx_HAL_Driver/Src/stm32h7xx_hal_dma.c ****           /* Disable all the transfer interrupts */
1321:Drivers/STM32H7xx_HAL_Driver/Src/stm32h7xx_hal_dma.c ****           ((DMA_Stream_TypeDef   *)hdma->Instance)->CR  &= ~(DMA_IT_TC | DMA_IT_TE | DMA_IT_DME);
1322:Drivers/STM32H7xx_HAL_Driver/Src/stm32h7xx_hal_dma.c ****           ((DMA_Stream_TypeDef   *)hdma->Instance)->FCR &= ~(DMA_IT_FE);
1323:Drivers/STM32H7xx_HAL_Driver/Src/stm32h7xx_hal_dma.c **** 
1324:Drivers/STM32H7xx_HAL_Driver/Src/stm32h7xx_hal_dma.c ****           if((hdma->XferHalfCpltCallback != NULL) || (hdma->XferM1HalfCpltCallback != NULL))
1325:Drivers/STM32H7xx_HAL_Driver/Src/stm32h7xx_hal_dma.c ****           {
1326:Drivers/STM32H7xx_HAL_Driver/Src/stm32h7xx_hal_dma.c ****             ((DMA_Stream_TypeDef   *)hdma->Instance)->CR  &= ~(DMA_IT_HT);
1327:Drivers/STM32H7xx_HAL_Driver/Src/stm32h7xx_hal_dma.c ****           }
1328:Drivers/STM32H7xx_HAL_Driver/Src/stm32h7xx_hal_dma.c **** 
1329:Drivers/STM32H7xx_HAL_Driver/Src/stm32h7xx_hal_dma.c ****           /* Clear all interrupt flags at correct offset within the register */
1330:Drivers/STM32H7xx_HAL_Driver/Src/stm32h7xx_hal_dma.c ****           regs_dma->IFCR = 0x3FUL << (hdma->StreamIndex & 0x1FU);
1331:Drivers/STM32H7xx_HAL_Driver/Src/stm32h7xx_hal_dma.c **** 
1332:Drivers/STM32H7xx_HAL_Driver/Src/stm32h7xx_hal_dma.c ****           /* Change the DMA state */
1333:Drivers/STM32H7xx_HAL_Driver/Src/stm32h7xx_hal_dma.c ****           hdma->State = HAL_DMA_STATE_READY;
1334:Drivers/STM32H7xx_HAL_Driver/Src/stm32h7xx_hal_dma.c **** 
1335:Drivers/STM32H7xx_HAL_Driver/Src/stm32h7xx_hal_dma.c ****           /* Process Unlocked */
1336:Drivers/STM32H7xx_HAL_Driver/Src/stm32h7xx_hal_dma.c ****           __HAL_UNLOCK(hdma);
1337:Drivers/STM32H7xx_HAL_Driver/Src/stm32h7xx_hal_dma.c **** 
1338:Drivers/STM32H7xx_HAL_Driver/Src/stm32h7xx_hal_dma.c ****           if(hdma->XferAbortCallback != NULL)
1339:Drivers/STM32H7xx_HAL_Driver/Src/stm32h7xx_hal_dma.c ****           {
1340:Drivers/STM32H7xx_HAL_Driver/Src/stm32h7xx_hal_dma.c ****             hdma->XferAbortCallback(hdma);
1341:Drivers/STM32H7xx_HAL_Driver/Src/stm32h7xx_hal_dma.c ****           }
1342:Drivers/STM32H7xx_HAL_Driver/Src/stm32h7xx_hal_dma.c ****           return;
1343:Drivers/STM32H7xx_HAL_Driver/Src/stm32h7xx_hal_dma.c ****         }
1344:Drivers/STM32H7xx_HAL_Driver/Src/stm32h7xx_hal_dma.c **** 
ARM GAS  /tmp/ccBO8Lmd.s 			page 25


1345:Drivers/STM32H7xx_HAL_Driver/Src/stm32h7xx_hal_dma.c ****         if(((((DMA_Stream_TypeDef   *)hdma->Instance)->CR) & (uint32_t)(DMA_SxCR_DBM)) != 0U)
1346:Drivers/STM32H7xx_HAL_Driver/Src/stm32h7xx_hal_dma.c ****         {
1347:Drivers/STM32H7xx_HAL_Driver/Src/stm32h7xx_hal_dma.c ****           /* Current memory buffer used is Memory 0 */
1348:Drivers/STM32H7xx_HAL_Driver/Src/stm32h7xx_hal_dma.c ****           if((((DMA_Stream_TypeDef   *)hdma->Instance)->CR & DMA_SxCR_CT) == 0U)
1349:Drivers/STM32H7xx_HAL_Driver/Src/stm32h7xx_hal_dma.c ****           {
1350:Drivers/STM32H7xx_HAL_Driver/Src/stm32h7xx_hal_dma.c ****             if(hdma->XferM1CpltCallback != NULL)
1351:Drivers/STM32H7xx_HAL_Driver/Src/stm32h7xx_hal_dma.c ****             {
1352:Drivers/STM32H7xx_HAL_Driver/Src/stm32h7xx_hal_dma.c ****               /* Transfer complete Callback for memory1 */
1353:Drivers/STM32H7xx_HAL_Driver/Src/stm32h7xx_hal_dma.c ****               hdma->XferM1CpltCallback(hdma);
1354:Drivers/STM32H7xx_HAL_Driver/Src/stm32h7xx_hal_dma.c ****             }
1355:Drivers/STM32H7xx_HAL_Driver/Src/stm32h7xx_hal_dma.c ****           }
1356:Drivers/STM32H7xx_HAL_Driver/Src/stm32h7xx_hal_dma.c ****           /* Current memory buffer used is Memory 1 */
1357:Drivers/STM32H7xx_HAL_Driver/Src/stm32h7xx_hal_dma.c ****           else
1358:Drivers/STM32H7xx_HAL_Driver/Src/stm32h7xx_hal_dma.c ****           {
1359:Drivers/STM32H7xx_HAL_Driver/Src/stm32h7xx_hal_dma.c ****             if(hdma->XferCpltCallback != NULL)
1360:Drivers/STM32H7xx_HAL_Driver/Src/stm32h7xx_hal_dma.c ****             {
1361:Drivers/STM32H7xx_HAL_Driver/Src/stm32h7xx_hal_dma.c ****               /* Transfer complete Callback for memory0 */
1362:Drivers/STM32H7xx_HAL_Driver/Src/stm32h7xx_hal_dma.c ****               hdma->XferCpltCallback(hdma);
1363:Drivers/STM32H7xx_HAL_Driver/Src/stm32h7xx_hal_dma.c ****             }
1364:Drivers/STM32H7xx_HAL_Driver/Src/stm32h7xx_hal_dma.c ****           }
1365:Drivers/STM32H7xx_HAL_Driver/Src/stm32h7xx_hal_dma.c ****         }
1366:Drivers/STM32H7xx_HAL_Driver/Src/stm32h7xx_hal_dma.c ****         /* Disable the transfer complete interrupt if the DMA mode is not CIRCULAR */
1367:Drivers/STM32H7xx_HAL_Driver/Src/stm32h7xx_hal_dma.c ****         else
1368:Drivers/STM32H7xx_HAL_Driver/Src/stm32h7xx_hal_dma.c ****         {
1369:Drivers/STM32H7xx_HAL_Driver/Src/stm32h7xx_hal_dma.c ****           if((((DMA_Stream_TypeDef   *)hdma->Instance)->CR & DMA_SxCR_CIRC) == 0U)
1370:Drivers/STM32H7xx_HAL_Driver/Src/stm32h7xx_hal_dma.c ****           {
1371:Drivers/STM32H7xx_HAL_Driver/Src/stm32h7xx_hal_dma.c ****             /* Disable the transfer complete interrupt */
1372:Drivers/STM32H7xx_HAL_Driver/Src/stm32h7xx_hal_dma.c ****             ((DMA_Stream_TypeDef   *)hdma->Instance)->CR  &= ~(DMA_IT_TC);
1373:Drivers/STM32H7xx_HAL_Driver/Src/stm32h7xx_hal_dma.c **** 
1374:Drivers/STM32H7xx_HAL_Driver/Src/stm32h7xx_hal_dma.c ****             /* Change the DMA state */
1375:Drivers/STM32H7xx_HAL_Driver/Src/stm32h7xx_hal_dma.c ****             hdma->State = HAL_DMA_STATE_READY;
1376:Drivers/STM32H7xx_HAL_Driver/Src/stm32h7xx_hal_dma.c **** 
1377:Drivers/STM32H7xx_HAL_Driver/Src/stm32h7xx_hal_dma.c ****             /* Process Unlocked */
1378:Drivers/STM32H7xx_HAL_Driver/Src/stm32h7xx_hal_dma.c ****             __HAL_UNLOCK(hdma);
1379:Drivers/STM32H7xx_HAL_Driver/Src/stm32h7xx_hal_dma.c ****           }
1380:Drivers/STM32H7xx_HAL_Driver/Src/stm32h7xx_hal_dma.c **** 
1381:Drivers/STM32H7xx_HAL_Driver/Src/stm32h7xx_hal_dma.c ****           if(hdma->XferCpltCallback != NULL)
1382:Drivers/STM32H7xx_HAL_Driver/Src/stm32h7xx_hal_dma.c ****           {
1383:Drivers/STM32H7xx_HAL_Driver/Src/stm32h7xx_hal_dma.c ****             /* Transfer complete callback */
1384:Drivers/STM32H7xx_HAL_Driver/Src/stm32h7xx_hal_dma.c ****             hdma->XferCpltCallback(hdma);
1385:Drivers/STM32H7xx_HAL_Driver/Src/stm32h7xx_hal_dma.c ****           }
1386:Drivers/STM32H7xx_HAL_Driver/Src/stm32h7xx_hal_dma.c ****         }
1387:Drivers/STM32H7xx_HAL_Driver/Src/stm32h7xx_hal_dma.c ****       }
1388:Drivers/STM32H7xx_HAL_Driver/Src/stm32h7xx_hal_dma.c ****     }
1389:Drivers/STM32H7xx_HAL_Driver/Src/stm32h7xx_hal_dma.c **** 
1390:Drivers/STM32H7xx_HAL_Driver/Src/stm32h7xx_hal_dma.c ****     /* manage error case */
1391:Drivers/STM32H7xx_HAL_Driver/Src/stm32h7xx_hal_dma.c ****     if(hdma->ErrorCode != HAL_DMA_ERROR_NONE)
1392:Drivers/STM32H7xx_HAL_Driver/Src/stm32h7xx_hal_dma.c ****     {
1393:Drivers/STM32H7xx_HAL_Driver/Src/stm32h7xx_hal_dma.c ****       if((hdma->ErrorCode & HAL_DMA_ERROR_TE) != 0U)
1394:Drivers/STM32H7xx_HAL_Driver/Src/stm32h7xx_hal_dma.c ****       {
1395:Drivers/STM32H7xx_HAL_Driver/Src/stm32h7xx_hal_dma.c ****         hdma->State = HAL_DMA_STATE_ABORT;
1396:Drivers/STM32H7xx_HAL_Driver/Src/stm32h7xx_hal_dma.c **** 
1397:Drivers/STM32H7xx_HAL_Driver/Src/stm32h7xx_hal_dma.c ****         /* Disable the stream */
1398:Drivers/STM32H7xx_HAL_Driver/Src/stm32h7xx_hal_dma.c ****         __HAL_DMA_DISABLE(hdma);
1399:Drivers/STM32H7xx_HAL_Driver/Src/stm32h7xx_hal_dma.c **** 
1400:Drivers/STM32H7xx_HAL_Driver/Src/stm32h7xx_hal_dma.c ****         do
1401:Drivers/STM32H7xx_HAL_Driver/Src/stm32h7xx_hal_dma.c ****         {
ARM GAS  /tmp/ccBO8Lmd.s 			page 26


1402:Drivers/STM32H7xx_HAL_Driver/Src/stm32h7xx_hal_dma.c ****           if (++count > timeout)
1403:Drivers/STM32H7xx_HAL_Driver/Src/stm32h7xx_hal_dma.c ****           {
1404:Drivers/STM32H7xx_HAL_Driver/Src/stm32h7xx_hal_dma.c ****             break;
1405:Drivers/STM32H7xx_HAL_Driver/Src/stm32h7xx_hal_dma.c ****           }
1406:Drivers/STM32H7xx_HAL_Driver/Src/stm32h7xx_hal_dma.c ****         }
1407:Drivers/STM32H7xx_HAL_Driver/Src/stm32h7xx_hal_dma.c ****         while((((DMA_Stream_TypeDef   *)hdma->Instance)->CR & DMA_SxCR_EN) != 0U);
1408:Drivers/STM32H7xx_HAL_Driver/Src/stm32h7xx_hal_dma.c **** 
1409:Drivers/STM32H7xx_HAL_Driver/Src/stm32h7xx_hal_dma.c ****         if((((DMA_Stream_TypeDef   *)hdma->Instance)->CR & DMA_SxCR_EN) != 0U)
1410:Drivers/STM32H7xx_HAL_Driver/Src/stm32h7xx_hal_dma.c ****         {
1411:Drivers/STM32H7xx_HAL_Driver/Src/stm32h7xx_hal_dma.c ****           /* Change the DMA state to error if DMA disable fails */
1412:Drivers/STM32H7xx_HAL_Driver/Src/stm32h7xx_hal_dma.c ****           hdma->State = HAL_DMA_STATE_ERROR;
1413:Drivers/STM32H7xx_HAL_Driver/Src/stm32h7xx_hal_dma.c ****         }
1414:Drivers/STM32H7xx_HAL_Driver/Src/stm32h7xx_hal_dma.c ****         else
1415:Drivers/STM32H7xx_HAL_Driver/Src/stm32h7xx_hal_dma.c ****         {
1416:Drivers/STM32H7xx_HAL_Driver/Src/stm32h7xx_hal_dma.c ****           /* Change the DMA state to Ready if DMA disable success */
1417:Drivers/STM32H7xx_HAL_Driver/Src/stm32h7xx_hal_dma.c ****           hdma->State = HAL_DMA_STATE_READY;
1418:Drivers/STM32H7xx_HAL_Driver/Src/stm32h7xx_hal_dma.c ****         }
1419:Drivers/STM32H7xx_HAL_Driver/Src/stm32h7xx_hal_dma.c **** 
1420:Drivers/STM32H7xx_HAL_Driver/Src/stm32h7xx_hal_dma.c ****         /* Process Unlocked */
1421:Drivers/STM32H7xx_HAL_Driver/Src/stm32h7xx_hal_dma.c ****         __HAL_UNLOCK(hdma);
1422:Drivers/STM32H7xx_HAL_Driver/Src/stm32h7xx_hal_dma.c ****       }
1423:Drivers/STM32H7xx_HAL_Driver/Src/stm32h7xx_hal_dma.c **** 
1424:Drivers/STM32H7xx_HAL_Driver/Src/stm32h7xx_hal_dma.c ****       if(hdma->XferErrorCallback != NULL)
1425:Drivers/STM32H7xx_HAL_Driver/Src/stm32h7xx_hal_dma.c ****       {
1426:Drivers/STM32H7xx_HAL_Driver/Src/stm32h7xx_hal_dma.c ****         /* Transfer error callback */
1427:Drivers/STM32H7xx_HAL_Driver/Src/stm32h7xx_hal_dma.c ****         hdma->XferErrorCallback(hdma);
1428:Drivers/STM32H7xx_HAL_Driver/Src/stm32h7xx_hal_dma.c ****       }
1429:Drivers/STM32H7xx_HAL_Driver/Src/stm32h7xx_hal_dma.c ****     }
1430:Drivers/STM32H7xx_HAL_Driver/Src/stm32h7xx_hal_dma.c ****   }
1431:Drivers/STM32H7xx_HAL_Driver/Src/stm32h7xx_hal_dma.c ****   else if(IS_BDMA_CHANNEL_INSTANCE(hdma->Instance) != 0U)  /* BDMA instance(s) */
1432:Drivers/STM32H7xx_HAL_Driver/Src/stm32h7xx_hal_dma.c ****   {
1433:Drivers/STM32H7xx_HAL_Driver/Src/stm32h7xx_hal_dma.c ****     ccr_reg = (((BDMA_Channel_TypeDef   *)hdma->Instance)->CCR);
1434:Drivers/STM32H7xx_HAL_Driver/Src/stm32h7xx_hal_dma.c **** 
1435:Drivers/STM32H7xx_HAL_Driver/Src/stm32h7xx_hal_dma.c ****     /* Half Transfer Complete Interrupt management ******************************/
1436:Drivers/STM32H7xx_HAL_Driver/Src/stm32h7xx_hal_dma.c ****     if (((tmpisr_bdma & (BDMA_FLAG_HT0 << (hdma->StreamIndex & 0x1FU))) != 0U) && ((ccr_reg & BDMA_
1437:Drivers/STM32H7xx_HAL_Driver/Src/stm32h7xx_hal_dma.c ****     {
1438:Drivers/STM32H7xx_HAL_Driver/Src/stm32h7xx_hal_dma.c ****       /* Clear the half transfer complete flag */
1439:Drivers/STM32H7xx_HAL_Driver/Src/stm32h7xx_hal_dma.c ****       regs_bdma->IFCR = (BDMA_ISR_HTIF0 << (hdma->StreamIndex & 0x1FU));
1440:Drivers/STM32H7xx_HAL_Driver/Src/stm32h7xx_hal_dma.c **** 
1441:Drivers/STM32H7xx_HAL_Driver/Src/stm32h7xx_hal_dma.c ****       /* Disable the transfer complete interrupt if the DMA mode is Double Buffering */
1442:Drivers/STM32H7xx_HAL_Driver/Src/stm32h7xx_hal_dma.c ****       if((ccr_reg & BDMA_CCR_DBM) != 0U)
1443:Drivers/STM32H7xx_HAL_Driver/Src/stm32h7xx_hal_dma.c ****       {
1444:Drivers/STM32H7xx_HAL_Driver/Src/stm32h7xx_hal_dma.c ****         /* Current memory buffer used is Memory 0 */
1445:Drivers/STM32H7xx_HAL_Driver/Src/stm32h7xx_hal_dma.c ****         if((ccr_reg & BDMA_CCR_CT) == 0U)
1446:Drivers/STM32H7xx_HAL_Driver/Src/stm32h7xx_hal_dma.c ****         {
1447:Drivers/STM32H7xx_HAL_Driver/Src/stm32h7xx_hal_dma.c ****           if(hdma->XferM1HalfCpltCallback != NULL)
1448:Drivers/STM32H7xx_HAL_Driver/Src/stm32h7xx_hal_dma.c ****           {
1449:Drivers/STM32H7xx_HAL_Driver/Src/stm32h7xx_hal_dma.c ****             /* Half transfer Callback for Memory 1 */
1450:Drivers/STM32H7xx_HAL_Driver/Src/stm32h7xx_hal_dma.c ****             hdma->XferM1HalfCpltCallback(hdma);
1451:Drivers/STM32H7xx_HAL_Driver/Src/stm32h7xx_hal_dma.c ****           }
1452:Drivers/STM32H7xx_HAL_Driver/Src/stm32h7xx_hal_dma.c ****         }
1453:Drivers/STM32H7xx_HAL_Driver/Src/stm32h7xx_hal_dma.c ****         /* Current memory buffer used is Memory 1 */
1454:Drivers/STM32H7xx_HAL_Driver/Src/stm32h7xx_hal_dma.c ****         else
1455:Drivers/STM32H7xx_HAL_Driver/Src/stm32h7xx_hal_dma.c ****         {
1456:Drivers/STM32H7xx_HAL_Driver/Src/stm32h7xx_hal_dma.c ****           if(hdma->XferHalfCpltCallback != NULL)
1457:Drivers/STM32H7xx_HAL_Driver/Src/stm32h7xx_hal_dma.c ****           {
1458:Drivers/STM32H7xx_HAL_Driver/Src/stm32h7xx_hal_dma.c ****             /* Half transfer Callback for Memory 0 */
ARM GAS  /tmp/ccBO8Lmd.s 			page 27


1459:Drivers/STM32H7xx_HAL_Driver/Src/stm32h7xx_hal_dma.c ****             hdma->XferHalfCpltCallback(hdma);
1460:Drivers/STM32H7xx_HAL_Driver/Src/stm32h7xx_hal_dma.c ****           }
1461:Drivers/STM32H7xx_HAL_Driver/Src/stm32h7xx_hal_dma.c ****         }
1462:Drivers/STM32H7xx_HAL_Driver/Src/stm32h7xx_hal_dma.c ****       }
1463:Drivers/STM32H7xx_HAL_Driver/Src/stm32h7xx_hal_dma.c ****       else
1464:Drivers/STM32H7xx_HAL_Driver/Src/stm32h7xx_hal_dma.c ****       {
1465:Drivers/STM32H7xx_HAL_Driver/Src/stm32h7xx_hal_dma.c ****         if((ccr_reg & BDMA_CCR_CIRC) == 0U)
1466:Drivers/STM32H7xx_HAL_Driver/Src/stm32h7xx_hal_dma.c ****         {
1467:Drivers/STM32H7xx_HAL_Driver/Src/stm32h7xx_hal_dma.c ****           /* Disable the half transfer interrupt */
1468:Drivers/STM32H7xx_HAL_Driver/Src/stm32h7xx_hal_dma.c ****           __HAL_DMA_DISABLE_IT(hdma, DMA_IT_HT);
1469:Drivers/STM32H7xx_HAL_Driver/Src/stm32h7xx_hal_dma.c ****         }
1470:Drivers/STM32H7xx_HAL_Driver/Src/stm32h7xx_hal_dma.c **** 
1471:Drivers/STM32H7xx_HAL_Driver/Src/stm32h7xx_hal_dma.c ****         /* DMA peripheral state is not updated in Half Transfer */
1472:Drivers/STM32H7xx_HAL_Driver/Src/stm32h7xx_hal_dma.c ****         /* but in Transfer Complete case */
1473:Drivers/STM32H7xx_HAL_Driver/Src/stm32h7xx_hal_dma.c **** 
1474:Drivers/STM32H7xx_HAL_Driver/Src/stm32h7xx_hal_dma.c ****        if(hdma->XferHalfCpltCallback != NULL)
1475:Drivers/STM32H7xx_HAL_Driver/Src/stm32h7xx_hal_dma.c ****         {
1476:Drivers/STM32H7xx_HAL_Driver/Src/stm32h7xx_hal_dma.c ****           /* Half transfer callback */
1477:Drivers/STM32H7xx_HAL_Driver/Src/stm32h7xx_hal_dma.c ****           hdma->XferHalfCpltCallback(hdma);
1478:Drivers/STM32H7xx_HAL_Driver/Src/stm32h7xx_hal_dma.c ****         }
1479:Drivers/STM32H7xx_HAL_Driver/Src/stm32h7xx_hal_dma.c ****       }
1480:Drivers/STM32H7xx_HAL_Driver/Src/stm32h7xx_hal_dma.c ****     }
1481:Drivers/STM32H7xx_HAL_Driver/Src/stm32h7xx_hal_dma.c **** 
1482:Drivers/STM32H7xx_HAL_Driver/Src/stm32h7xx_hal_dma.c ****     /* Transfer Complete Interrupt management ***********************************/
1483:Drivers/STM32H7xx_HAL_Driver/Src/stm32h7xx_hal_dma.c ****     else if (((tmpisr_bdma & (BDMA_FLAG_TC0 << (hdma->StreamIndex & 0x1FU))) != 0U) && ((ccr_reg & 
1484:Drivers/STM32H7xx_HAL_Driver/Src/stm32h7xx_hal_dma.c ****     {
1485:Drivers/STM32H7xx_HAL_Driver/Src/stm32h7xx_hal_dma.c ****       /* Clear the transfer complete flag */
1486:Drivers/STM32H7xx_HAL_Driver/Src/stm32h7xx_hal_dma.c ****       regs_bdma->IFCR = (BDMA_ISR_TCIF0) << (hdma->StreamIndex & 0x1FU);
1487:Drivers/STM32H7xx_HAL_Driver/Src/stm32h7xx_hal_dma.c **** 
1488:Drivers/STM32H7xx_HAL_Driver/Src/stm32h7xx_hal_dma.c ****       /* Disable the transfer complete interrupt if the DMA mode is Double Buffering */
1489:Drivers/STM32H7xx_HAL_Driver/Src/stm32h7xx_hal_dma.c ****       if((ccr_reg & BDMA_CCR_DBM) != 0U)
1490:Drivers/STM32H7xx_HAL_Driver/Src/stm32h7xx_hal_dma.c ****       {
1491:Drivers/STM32H7xx_HAL_Driver/Src/stm32h7xx_hal_dma.c ****         /* Current memory buffer used is Memory 0 */
1492:Drivers/STM32H7xx_HAL_Driver/Src/stm32h7xx_hal_dma.c ****         if((ccr_reg & BDMA_CCR_CT) == 0U)
1493:Drivers/STM32H7xx_HAL_Driver/Src/stm32h7xx_hal_dma.c ****         {
1494:Drivers/STM32H7xx_HAL_Driver/Src/stm32h7xx_hal_dma.c ****           if(hdma->XferM1CpltCallback != NULL)
1495:Drivers/STM32H7xx_HAL_Driver/Src/stm32h7xx_hal_dma.c ****           {
1496:Drivers/STM32H7xx_HAL_Driver/Src/stm32h7xx_hal_dma.c ****             /* Transfer complete Callback for Memory 1 */
1497:Drivers/STM32H7xx_HAL_Driver/Src/stm32h7xx_hal_dma.c ****             hdma->XferM1CpltCallback(hdma);
1498:Drivers/STM32H7xx_HAL_Driver/Src/stm32h7xx_hal_dma.c ****           }
1499:Drivers/STM32H7xx_HAL_Driver/Src/stm32h7xx_hal_dma.c ****         }
1500:Drivers/STM32H7xx_HAL_Driver/Src/stm32h7xx_hal_dma.c ****         /* Current memory buffer used is Memory 1 */
1501:Drivers/STM32H7xx_HAL_Driver/Src/stm32h7xx_hal_dma.c ****         else
1502:Drivers/STM32H7xx_HAL_Driver/Src/stm32h7xx_hal_dma.c ****         {
1503:Drivers/STM32H7xx_HAL_Driver/Src/stm32h7xx_hal_dma.c ****           if(hdma->XferCpltCallback != NULL)
1504:Drivers/STM32H7xx_HAL_Driver/Src/stm32h7xx_hal_dma.c ****           {
1505:Drivers/STM32H7xx_HAL_Driver/Src/stm32h7xx_hal_dma.c ****             /* Transfer complete Callback for Memory 0 */
1506:Drivers/STM32H7xx_HAL_Driver/Src/stm32h7xx_hal_dma.c ****             hdma->XferCpltCallback(hdma);
1507:Drivers/STM32H7xx_HAL_Driver/Src/stm32h7xx_hal_dma.c ****           }
1508:Drivers/STM32H7xx_HAL_Driver/Src/stm32h7xx_hal_dma.c ****         }
1509:Drivers/STM32H7xx_HAL_Driver/Src/stm32h7xx_hal_dma.c ****       }
1510:Drivers/STM32H7xx_HAL_Driver/Src/stm32h7xx_hal_dma.c ****       else
1511:Drivers/STM32H7xx_HAL_Driver/Src/stm32h7xx_hal_dma.c ****       {
1512:Drivers/STM32H7xx_HAL_Driver/Src/stm32h7xx_hal_dma.c ****         if((ccr_reg & BDMA_CCR_CIRC) == 0U)
1513:Drivers/STM32H7xx_HAL_Driver/Src/stm32h7xx_hal_dma.c ****         {
1514:Drivers/STM32H7xx_HAL_Driver/Src/stm32h7xx_hal_dma.c ****           /* Disable the transfer complete and error interrupt, if the DMA mode is not CIRCULAR */
1515:Drivers/STM32H7xx_HAL_Driver/Src/stm32h7xx_hal_dma.c ****           __HAL_DMA_DISABLE_IT(hdma, DMA_IT_TE | DMA_IT_TC);
ARM GAS  /tmp/ccBO8Lmd.s 			page 28


1516:Drivers/STM32H7xx_HAL_Driver/Src/stm32h7xx_hal_dma.c **** 
1517:Drivers/STM32H7xx_HAL_Driver/Src/stm32h7xx_hal_dma.c ****           /* Change the DMA state */
1518:Drivers/STM32H7xx_HAL_Driver/Src/stm32h7xx_hal_dma.c ****           hdma->State = HAL_DMA_STATE_READY;
1519:Drivers/STM32H7xx_HAL_Driver/Src/stm32h7xx_hal_dma.c **** 
1520:Drivers/STM32H7xx_HAL_Driver/Src/stm32h7xx_hal_dma.c ****           /* Process Unlocked */
1521:Drivers/STM32H7xx_HAL_Driver/Src/stm32h7xx_hal_dma.c ****           __HAL_UNLOCK(hdma);
1522:Drivers/STM32H7xx_HAL_Driver/Src/stm32h7xx_hal_dma.c ****         }
1523:Drivers/STM32H7xx_HAL_Driver/Src/stm32h7xx_hal_dma.c **** 
1524:Drivers/STM32H7xx_HAL_Driver/Src/stm32h7xx_hal_dma.c ****         if(hdma->XferCpltCallback != NULL)
1525:Drivers/STM32H7xx_HAL_Driver/Src/stm32h7xx_hal_dma.c ****         {
1526:Drivers/STM32H7xx_HAL_Driver/Src/stm32h7xx_hal_dma.c ****           /* Transfer complete callback */
1527:Drivers/STM32H7xx_HAL_Driver/Src/stm32h7xx_hal_dma.c ****           hdma->XferCpltCallback(hdma);
1528:Drivers/STM32H7xx_HAL_Driver/Src/stm32h7xx_hal_dma.c ****         }
1529:Drivers/STM32H7xx_HAL_Driver/Src/stm32h7xx_hal_dma.c ****       }
1530:Drivers/STM32H7xx_HAL_Driver/Src/stm32h7xx_hal_dma.c ****     }
1531:Drivers/STM32H7xx_HAL_Driver/Src/stm32h7xx_hal_dma.c ****     /* Transfer Error Interrupt management **************************************/
1532:Drivers/STM32H7xx_HAL_Driver/Src/stm32h7xx_hal_dma.c ****     else if (((tmpisr_bdma & (BDMA_FLAG_TE0 << (hdma->StreamIndex & 0x1FU))) != 0U) && ((ccr_reg & 
1533:Drivers/STM32H7xx_HAL_Driver/Src/stm32h7xx_hal_dma.c ****     {
1534:Drivers/STM32H7xx_HAL_Driver/Src/stm32h7xx_hal_dma.c ****       /* When a DMA transfer error occurs */
1535:Drivers/STM32H7xx_HAL_Driver/Src/stm32h7xx_hal_dma.c ****       /* A hardware clear of its EN bits is performed */
1536:Drivers/STM32H7xx_HAL_Driver/Src/stm32h7xx_hal_dma.c ****       /* Disable ALL DMA IT */
1537:Drivers/STM32H7xx_HAL_Driver/Src/stm32h7xx_hal_dma.c ****       __HAL_DMA_DISABLE_IT(hdma, (DMA_IT_TC | DMA_IT_HT | DMA_IT_TE));
1538:Drivers/STM32H7xx_HAL_Driver/Src/stm32h7xx_hal_dma.c **** 
1539:Drivers/STM32H7xx_HAL_Driver/Src/stm32h7xx_hal_dma.c ****       /* Clear all flags */
1540:Drivers/STM32H7xx_HAL_Driver/Src/stm32h7xx_hal_dma.c ****       regs_bdma->IFCR = (BDMA_ISR_GIF0) << (hdma->StreamIndex & 0x1FU);
1541:Drivers/STM32H7xx_HAL_Driver/Src/stm32h7xx_hal_dma.c **** 
1542:Drivers/STM32H7xx_HAL_Driver/Src/stm32h7xx_hal_dma.c ****       /* Update error code */
1543:Drivers/STM32H7xx_HAL_Driver/Src/stm32h7xx_hal_dma.c ****       hdma->ErrorCode = HAL_DMA_ERROR_TE;
1544:Drivers/STM32H7xx_HAL_Driver/Src/stm32h7xx_hal_dma.c **** 
1545:Drivers/STM32H7xx_HAL_Driver/Src/stm32h7xx_hal_dma.c ****       /* Change the DMA state */
1546:Drivers/STM32H7xx_HAL_Driver/Src/stm32h7xx_hal_dma.c ****       hdma->State = HAL_DMA_STATE_READY;
1547:Drivers/STM32H7xx_HAL_Driver/Src/stm32h7xx_hal_dma.c **** 
1548:Drivers/STM32H7xx_HAL_Driver/Src/stm32h7xx_hal_dma.c ****       /* Process Unlocked */
1549:Drivers/STM32H7xx_HAL_Driver/Src/stm32h7xx_hal_dma.c ****       __HAL_UNLOCK(hdma);
1550:Drivers/STM32H7xx_HAL_Driver/Src/stm32h7xx_hal_dma.c **** 
1551:Drivers/STM32H7xx_HAL_Driver/Src/stm32h7xx_hal_dma.c ****       if (hdma->XferErrorCallback != NULL)
1552:Drivers/STM32H7xx_HAL_Driver/Src/stm32h7xx_hal_dma.c ****       {
1553:Drivers/STM32H7xx_HAL_Driver/Src/stm32h7xx_hal_dma.c ****         /* Transfer error callback */
1554:Drivers/STM32H7xx_HAL_Driver/Src/stm32h7xx_hal_dma.c ****         hdma->XferErrorCallback(hdma);
1555:Drivers/STM32H7xx_HAL_Driver/Src/stm32h7xx_hal_dma.c ****       }
1556:Drivers/STM32H7xx_HAL_Driver/Src/stm32h7xx_hal_dma.c ****     }
1557:Drivers/STM32H7xx_HAL_Driver/Src/stm32h7xx_hal_dma.c ****     else
1558:Drivers/STM32H7xx_HAL_Driver/Src/stm32h7xx_hal_dma.c ****     {
1559:Drivers/STM32H7xx_HAL_Driver/Src/stm32h7xx_hal_dma.c ****       /* Nothing To Do */
1560:Drivers/STM32H7xx_HAL_Driver/Src/stm32h7xx_hal_dma.c ****     }
1561:Drivers/STM32H7xx_HAL_Driver/Src/stm32h7xx_hal_dma.c ****   }
1562:Drivers/STM32H7xx_HAL_Driver/Src/stm32h7xx_hal_dma.c ****   else
1563:Drivers/STM32H7xx_HAL_Driver/Src/stm32h7xx_hal_dma.c ****   {
1564:Drivers/STM32H7xx_HAL_Driver/Src/stm32h7xx_hal_dma.c ****     /* Nothing To Do */
1565:Drivers/STM32H7xx_HAL_Driver/Src/stm32h7xx_hal_dma.c ****   }
1566:Drivers/STM32H7xx_HAL_Driver/Src/stm32h7xx_hal_dma.c **** }
1567:Drivers/STM32H7xx_HAL_Driver/Src/stm32h7xx_hal_dma.c **** 
1568:Drivers/STM32H7xx_HAL_Driver/Src/stm32h7xx_hal_dma.c **** /**
1569:Drivers/STM32H7xx_HAL_Driver/Src/stm32h7xx_hal_dma.c ****   * @brief  Register callbacks
1570:Drivers/STM32H7xx_HAL_Driver/Src/stm32h7xx_hal_dma.c ****   * @param  hdma:                 pointer to a DMA_HandleTypeDef structure that contains
1571:Drivers/STM32H7xx_HAL_Driver/Src/stm32h7xx_hal_dma.c ****   *                               the configuration information for the specified DMA Stream.
1572:Drivers/STM32H7xx_HAL_Driver/Src/stm32h7xx_hal_dma.c ****   * @param  CallbackID:           User Callback identifier
ARM GAS  /tmp/ccBO8Lmd.s 			page 29


1573:Drivers/STM32H7xx_HAL_Driver/Src/stm32h7xx_hal_dma.c ****   *                               a DMA_HandleTypeDef structure as parameter.
1574:Drivers/STM32H7xx_HAL_Driver/Src/stm32h7xx_hal_dma.c ****   * @param  pCallback:            pointer to private callback function which has pointer to
1575:Drivers/STM32H7xx_HAL_Driver/Src/stm32h7xx_hal_dma.c ****   *                               a DMA_HandleTypeDef structure as parameter.
1576:Drivers/STM32H7xx_HAL_Driver/Src/stm32h7xx_hal_dma.c ****   * @retval HAL status
1577:Drivers/STM32H7xx_HAL_Driver/Src/stm32h7xx_hal_dma.c ****   */
1578:Drivers/STM32H7xx_HAL_Driver/Src/stm32h7xx_hal_dma.c **** HAL_StatusTypeDef HAL_DMA_RegisterCallback(DMA_HandleTypeDef *hdma, HAL_DMA_CallbackIDTypeDef Callb
1579:Drivers/STM32H7xx_HAL_Driver/Src/stm32h7xx_hal_dma.c **** {
1580:Drivers/STM32H7xx_HAL_Driver/Src/stm32h7xx_hal_dma.c **** 
1581:Drivers/STM32H7xx_HAL_Driver/Src/stm32h7xx_hal_dma.c ****   HAL_StatusTypeDef status = HAL_OK;
1582:Drivers/STM32H7xx_HAL_Driver/Src/stm32h7xx_hal_dma.c **** 
1583:Drivers/STM32H7xx_HAL_Driver/Src/stm32h7xx_hal_dma.c ****   /* Check the DMA peripheral handle */
1584:Drivers/STM32H7xx_HAL_Driver/Src/stm32h7xx_hal_dma.c ****   if(hdma == NULL)
1585:Drivers/STM32H7xx_HAL_Driver/Src/stm32h7xx_hal_dma.c ****   {
1586:Drivers/STM32H7xx_HAL_Driver/Src/stm32h7xx_hal_dma.c ****     return HAL_ERROR;
1587:Drivers/STM32H7xx_HAL_Driver/Src/stm32h7xx_hal_dma.c ****   }
1588:Drivers/STM32H7xx_HAL_Driver/Src/stm32h7xx_hal_dma.c **** 
1589:Drivers/STM32H7xx_HAL_Driver/Src/stm32h7xx_hal_dma.c ****   /* Process locked */
1590:Drivers/STM32H7xx_HAL_Driver/Src/stm32h7xx_hal_dma.c ****   __HAL_LOCK(hdma);
1591:Drivers/STM32H7xx_HAL_Driver/Src/stm32h7xx_hal_dma.c **** 
1592:Drivers/STM32H7xx_HAL_Driver/Src/stm32h7xx_hal_dma.c ****   if(HAL_DMA_STATE_READY == hdma->State)
1593:Drivers/STM32H7xx_HAL_Driver/Src/stm32h7xx_hal_dma.c ****   {
1594:Drivers/STM32H7xx_HAL_Driver/Src/stm32h7xx_hal_dma.c ****     switch (CallbackID)
1595:Drivers/STM32H7xx_HAL_Driver/Src/stm32h7xx_hal_dma.c ****     {
1596:Drivers/STM32H7xx_HAL_Driver/Src/stm32h7xx_hal_dma.c ****     case  HAL_DMA_XFER_CPLT_CB_ID:
1597:Drivers/STM32H7xx_HAL_Driver/Src/stm32h7xx_hal_dma.c ****       hdma->XferCpltCallback = pCallback;
1598:Drivers/STM32H7xx_HAL_Driver/Src/stm32h7xx_hal_dma.c ****       break;
1599:Drivers/STM32H7xx_HAL_Driver/Src/stm32h7xx_hal_dma.c **** 
1600:Drivers/STM32H7xx_HAL_Driver/Src/stm32h7xx_hal_dma.c ****     case  HAL_DMA_XFER_HALFCPLT_CB_ID:
1601:Drivers/STM32H7xx_HAL_Driver/Src/stm32h7xx_hal_dma.c ****       hdma->XferHalfCpltCallback = pCallback;
1602:Drivers/STM32H7xx_HAL_Driver/Src/stm32h7xx_hal_dma.c ****       break;
1603:Drivers/STM32H7xx_HAL_Driver/Src/stm32h7xx_hal_dma.c **** 
1604:Drivers/STM32H7xx_HAL_Driver/Src/stm32h7xx_hal_dma.c ****     case  HAL_DMA_XFER_M1CPLT_CB_ID:
1605:Drivers/STM32H7xx_HAL_Driver/Src/stm32h7xx_hal_dma.c ****       hdma->XferM1CpltCallback = pCallback;
1606:Drivers/STM32H7xx_HAL_Driver/Src/stm32h7xx_hal_dma.c ****       break;
1607:Drivers/STM32H7xx_HAL_Driver/Src/stm32h7xx_hal_dma.c **** 
1608:Drivers/STM32H7xx_HAL_Driver/Src/stm32h7xx_hal_dma.c ****     case  HAL_DMA_XFER_M1HALFCPLT_CB_ID:
1609:Drivers/STM32H7xx_HAL_Driver/Src/stm32h7xx_hal_dma.c ****       hdma->XferM1HalfCpltCallback = pCallback;
1610:Drivers/STM32H7xx_HAL_Driver/Src/stm32h7xx_hal_dma.c ****       break;
1611:Drivers/STM32H7xx_HAL_Driver/Src/stm32h7xx_hal_dma.c **** 
1612:Drivers/STM32H7xx_HAL_Driver/Src/stm32h7xx_hal_dma.c ****     case  HAL_DMA_XFER_ERROR_CB_ID:
1613:Drivers/STM32H7xx_HAL_Driver/Src/stm32h7xx_hal_dma.c ****       hdma->XferErrorCallback = pCallback;
1614:Drivers/STM32H7xx_HAL_Driver/Src/stm32h7xx_hal_dma.c ****       break;
1615:Drivers/STM32H7xx_HAL_Driver/Src/stm32h7xx_hal_dma.c **** 
1616:Drivers/STM32H7xx_HAL_Driver/Src/stm32h7xx_hal_dma.c ****     case  HAL_DMA_XFER_ABORT_CB_ID:
1617:Drivers/STM32H7xx_HAL_Driver/Src/stm32h7xx_hal_dma.c ****       hdma->XferAbortCallback = pCallback;
1618:Drivers/STM32H7xx_HAL_Driver/Src/stm32h7xx_hal_dma.c ****       break;
1619:Drivers/STM32H7xx_HAL_Driver/Src/stm32h7xx_hal_dma.c **** 
1620:Drivers/STM32H7xx_HAL_Driver/Src/stm32h7xx_hal_dma.c ****     default:
1621:Drivers/STM32H7xx_HAL_Driver/Src/stm32h7xx_hal_dma.c ****       status =  HAL_ERROR;
1622:Drivers/STM32H7xx_HAL_Driver/Src/stm32h7xx_hal_dma.c ****       break;
1623:Drivers/STM32H7xx_HAL_Driver/Src/stm32h7xx_hal_dma.c ****     }
1624:Drivers/STM32H7xx_HAL_Driver/Src/stm32h7xx_hal_dma.c ****   }
1625:Drivers/STM32H7xx_HAL_Driver/Src/stm32h7xx_hal_dma.c ****   else
1626:Drivers/STM32H7xx_HAL_Driver/Src/stm32h7xx_hal_dma.c ****   {
1627:Drivers/STM32H7xx_HAL_Driver/Src/stm32h7xx_hal_dma.c ****     /* Return error status */
1628:Drivers/STM32H7xx_HAL_Driver/Src/stm32h7xx_hal_dma.c ****     status =  HAL_ERROR;
1629:Drivers/STM32H7xx_HAL_Driver/Src/stm32h7xx_hal_dma.c ****   }
ARM GAS  /tmp/ccBO8Lmd.s 			page 30


1630:Drivers/STM32H7xx_HAL_Driver/Src/stm32h7xx_hal_dma.c **** 
1631:Drivers/STM32H7xx_HAL_Driver/Src/stm32h7xx_hal_dma.c ****   /* Release Lock */
1632:Drivers/STM32H7xx_HAL_Driver/Src/stm32h7xx_hal_dma.c ****   __HAL_UNLOCK(hdma);
1633:Drivers/STM32H7xx_HAL_Driver/Src/stm32h7xx_hal_dma.c **** 
1634:Drivers/STM32H7xx_HAL_Driver/Src/stm32h7xx_hal_dma.c ****   return status;
1635:Drivers/STM32H7xx_HAL_Driver/Src/stm32h7xx_hal_dma.c **** }
1636:Drivers/STM32H7xx_HAL_Driver/Src/stm32h7xx_hal_dma.c **** 
1637:Drivers/STM32H7xx_HAL_Driver/Src/stm32h7xx_hal_dma.c **** /**
1638:Drivers/STM32H7xx_HAL_Driver/Src/stm32h7xx_hal_dma.c ****   * @brief  UnRegister callbacks
1639:Drivers/STM32H7xx_HAL_Driver/Src/stm32h7xx_hal_dma.c ****   * @param  hdma:                 pointer to a DMA_HandleTypeDef structure that contains
1640:Drivers/STM32H7xx_HAL_Driver/Src/stm32h7xx_hal_dma.c ****   *                               the configuration information for the specified DMA Stream.
1641:Drivers/STM32H7xx_HAL_Driver/Src/stm32h7xx_hal_dma.c ****   * @param  CallbackID:           User Callback identifier
1642:Drivers/STM32H7xx_HAL_Driver/Src/stm32h7xx_hal_dma.c ****   *                               a HAL_DMA_CallbackIDTypeDef ENUM as parameter.
1643:Drivers/STM32H7xx_HAL_Driver/Src/stm32h7xx_hal_dma.c ****   * @retval HAL status
1644:Drivers/STM32H7xx_HAL_Driver/Src/stm32h7xx_hal_dma.c ****   */
1645:Drivers/STM32H7xx_HAL_Driver/Src/stm32h7xx_hal_dma.c **** HAL_StatusTypeDef HAL_DMA_UnRegisterCallback(DMA_HandleTypeDef *hdma, HAL_DMA_CallbackIDTypeDef Cal
1646:Drivers/STM32H7xx_HAL_Driver/Src/stm32h7xx_hal_dma.c **** {
1647:Drivers/STM32H7xx_HAL_Driver/Src/stm32h7xx_hal_dma.c ****   HAL_StatusTypeDef status = HAL_OK;
1648:Drivers/STM32H7xx_HAL_Driver/Src/stm32h7xx_hal_dma.c **** 
1649:Drivers/STM32H7xx_HAL_Driver/Src/stm32h7xx_hal_dma.c ****   /* Check the DMA peripheral handle */
1650:Drivers/STM32H7xx_HAL_Driver/Src/stm32h7xx_hal_dma.c ****   if(hdma == NULL)
1651:Drivers/STM32H7xx_HAL_Driver/Src/stm32h7xx_hal_dma.c ****   {
1652:Drivers/STM32H7xx_HAL_Driver/Src/stm32h7xx_hal_dma.c ****     return HAL_ERROR;
1653:Drivers/STM32H7xx_HAL_Driver/Src/stm32h7xx_hal_dma.c ****   }
1654:Drivers/STM32H7xx_HAL_Driver/Src/stm32h7xx_hal_dma.c **** 
1655:Drivers/STM32H7xx_HAL_Driver/Src/stm32h7xx_hal_dma.c ****   /* Process locked */
1656:Drivers/STM32H7xx_HAL_Driver/Src/stm32h7xx_hal_dma.c ****   __HAL_LOCK(hdma);
1657:Drivers/STM32H7xx_HAL_Driver/Src/stm32h7xx_hal_dma.c **** 
1658:Drivers/STM32H7xx_HAL_Driver/Src/stm32h7xx_hal_dma.c ****   if(HAL_DMA_STATE_READY == hdma->State)
1659:Drivers/STM32H7xx_HAL_Driver/Src/stm32h7xx_hal_dma.c ****   {
1660:Drivers/STM32H7xx_HAL_Driver/Src/stm32h7xx_hal_dma.c ****     switch (CallbackID)
1661:Drivers/STM32H7xx_HAL_Driver/Src/stm32h7xx_hal_dma.c ****     {
1662:Drivers/STM32H7xx_HAL_Driver/Src/stm32h7xx_hal_dma.c ****     case  HAL_DMA_XFER_CPLT_CB_ID:
1663:Drivers/STM32H7xx_HAL_Driver/Src/stm32h7xx_hal_dma.c ****       hdma->XferCpltCallback = NULL;
1664:Drivers/STM32H7xx_HAL_Driver/Src/stm32h7xx_hal_dma.c ****       break;
1665:Drivers/STM32H7xx_HAL_Driver/Src/stm32h7xx_hal_dma.c **** 
1666:Drivers/STM32H7xx_HAL_Driver/Src/stm32h7xx_hal_dma.c ****     case  HAL_DMA_XFER_HALFCPLT_CB_ID:
1667:Drivers/STM32H7xx_HAL_Driver/Src/stm32h7xx_hal_dma.c ****       hdma->XferHalfCpltCallback = NULL;
1668:Drivers/STM32H7xx_HAL_Driver/Src/stm32h7xx_hal_dma.c ****       break;
1669:Drivers/STM32H7xx_HAL_Driver/Src/stm32h7xx_hal_dma.c **** 
1670:Drivers/STM32H7xx_HAL_Driver/Src/stm32h7xx_hal_dma.c ****     case  HAL_DMA_XFER_M1CPLT_CB_ID:
1671:Drivers/STM32H7xx_HAL_Driver/Src/stm32h7xx_hal_dma.c ****       hdma->XferM1CpltCallback = NULL;
1672:Drivers/STM32H7xx_HAL_Driver/Src/stm32h7xx_hal_dma.c ****       break;
1673:Drivers/STM32H7xx_HAL_Driver/Src/stm32h7xx_hal_dma.c **** 
1674:Drivers/STM32H7xx_HAL_Driver/Src/stm32h7xx_hal_dma.c ****     case  HAL_DMA_XFER_M1HALFCPLT_CB_ID:
1675:Drivers/STM32H7xx_HAL_Driver/Src/stm32h7xx_hal_dma.c ****       hdma->XferM1HalfCpltCallback = NULL;
1676:Drivers/STM32H7xx_HAL_Driver/Src/stm32h7xx_hal_dma.c ****       break;
1677:Drivers/STM32H7xx_HAL_Driver/Src/stm32h7xx_hal_dma.c **** 
1678:Drivers/STM32H7xx_HAL_Driver/Src/stm32h7xx_hal_dma.c ****     case  HAL_DMA_XFER_ERROR_CB_ID:
1679:Drivers/STM32H7xx_HAL_Driver/Src/stm32h7xx_hal_dma.c ****       hdma->XferErrorCallback = NULL;
1680:Drivers/STM32H7xx_HAL_Driver/Src/stm32h7xx_hal_dma.c ****       break;
1681:Drivers/STM32H7xx_HAL_Driver/Src/stm32h7xx_hal_dma.c **** 
1682:Drivers/STM32H7xx_HAL_Driver/Src/stm32h7xx_hal_dma.c ****     case  HAL_DMA_XFER_ABORT_CB_ID:
1683:Drivers/STM32H7xx_HAL_Driver/Src/stm32h7xx_hal_dma.c ****       hdma->XferAbortCallback = NULL;
1684:Drivers/STM32H7xx_HAL_Driver/Src/stm32h7xx_hal_dma.c ****       break;
1685:Drivers/STM32H7xx_HAL_Driver/Src/stm32h7xx_hal_dma.c **** 
1686:Drivers/STM32H7xx_HAL_Driver/Src/stm32h7xx_hal_dma.c ****     case   HAL_DMA_XFER_ALL_CB_ID:
ARM GAS  /tmp/ccBO8Lmd.s 			page 31


1687:Drivers/STM32H7xx_HAL_Driver/Src/stm32h7xx_hal_dma.c ****       hdma->XferCpltCallback = NULL;
1688:Drivers/STM32H7xx_HAL_Driver/Src/stm32h7xx_hal_dma.c ****       hdma->XferHalfCpltCallback = NULL;
1689:Drivers/STM32H7xx_HAL_Driver/Src/stm32h7xx_hal_dma.c ****       hdma->XferM1CpltCallback = NULL;
1690:Drivers/STM32H7xx_HAL_Driver/Src/stm32h7xx_hal_dma.c ****       hdma->XferM1HalfCpltCallback = NULL;
1691:Drivers/STM32H7xx_HAL_Driver/Src/stm32h7xx_hal_dma.c ****       hdma->XferErrorCallback = NULL;
1692:Drivers/STM32H7xx_HAL_Driver/Src/stm32h7xx_hal_dma.c ****       hdma->XferAbortCallback = NULL;
1693:Drivers/STM32H7xx_HAL_Driver/Src/stm32h7xx_hal_dma.c ****       break;
1694:Drivers/STM32H7xx_HAL_Driver/Src/stm32h7xx_hal_dma.c **** 
1695:Drivers/STM32H7xx_HAL_Driver/Src/stm32h7xx_hal_dma.c ****     default:
1696:Drivers/STM32H7xx_HAL_Driver/Src/stm32h7xx_hal_dma.c ****       status = HAL_ERROR;
1697:Drivers/STM32H7xx_HAL_Driver/Src/stm32h7xx_hal_dma.c ****       break;
1698:Drivers/STM32H7xx_HAL_Driver/Src/stm32h7xx_hal_dma.c ****     }
1699:Drivers/STM32H7xx_HAL_Driver/Src/stm32h7xx_hal_dma.c ****   }
1700:Drivers/STM32H7xx_HAL_Driver/Src/stm32h7xx_hal_dma.c ****   else
1701:Drivers/STM32H7xx_HAL_Driver/Src/stm32h7xx_hal_dma.c ****   {
1702:Drivers/STM32H7xx_HAL_Driver/Src/stm32h7xx_hal_dma.c ****     status = HAL_ERROR;
1703:Drivers/STM32H7xx_HAL_Driver/Src/stm32h7xx_hal_dma.c ****   }
1704:Drivers/STM32H7xx_HAL_Driver/Src/stm32h7xx_hal_dma.c **** 
1705:Drivers/STM32H7xx_HAL_Driver/Src/stm32h7xx_hal_dma.c ****   /* Release Lock */
1706:Drivers/STM32H7xx_HAL_Driver/Src/stm32h7xx_hal_dma.c ****   __HAL_UNLOCK(hdma);
1707:Drivers/STM32H7xx_HAL_Driver/Src/stm32h7xx_hal_dma.c **** 
1708:Drivers/STM32H7xx_HAL_Driver/Src/stm32h7xx_hal_dma.c ****   return status;
1709:Drivers/STM32H7xx_HAL_Driver/Src/stm32h7xx_hal_dma.c **** }
1710:Drivers/STM32H7xx_HAL_Driver/Src/stm32h7xx_hal_dma.c **** 
1711:Drivers/STM32H7xx_HAL_Driver/Src/stm32h7xx_hal_dma.c **** /**
1712:Drivers/STM32H7xx_HAL_Driver/Src/stm32h7xx_hal_dma.c ****   * @}
1713:Drivers/STM32H7xx_HAL_Driver/Src/stm32h7xx_hal_dma.c ****   */
1714:Drivers/STM32H7xx_HAL_Driver/Src/stm32h7xx_hal_dma.c **** 
1715:Drivers/STM32H7xx_HAL_Driver/Src/stm32h7xx_hal_dma.c **** /** @addtogroup DMA_Exported_Functions_Group3
1716:Drivers/STM32H7xx_HAL_Driver/Src/stm32h7xx_hal_dma.c ****   *
1717:Drivers/STM32H7xx_HAL_Driver/Src/stm32h7xx_hal_dma.c **** @verbatim
1718:Drivers/STM32H7xx_HAL_Driver/Src/stm32h7xx_hal_dma.c ****  ===============================================================================
1719:Drivers/STM32H7xx_HAL_Driver/Src/stm32h7xx_hal_dma.c ****                     ##### State and Errors functions #####
1720:Drivers/STM32H7xx_HAL_Driver/Src/stm32h7xx_hal_dma.c ****  ===============================================================================
1721:Drivers/STM32H7xx_HAL_Driver/Src/stm32h7xx_hal_dma.c ****     [..]
1722:Drivers/STM32H7xx_HAL_Driver/Src/stm32h7xx_hal_dma.c ****     This subsection provides functions allowing to
1723:Drivers/STM32H7xx_HAL_Driver/Src/stm32h7xx_hal_dma.c ****       (+) Check the DMA state
1724:Drivers/STM32H7xx_HAL_Driver/Src/stm32h7xx_hal_dma.c ****       (+) Get error code
1725:Drivers/STM32H7xx_HAL_Driver/Src/stm32h7xx_hal_dma.c **** 
1726:Drivers/STM32H7xx_HAL_Driver/Src/stm32h7xx_hal_dma.c **** @endverbatim
1727:Drivers/STM32H7xx_HAL_Driver/Src/stm32h7xx_hal_dma.c ****   * @{
1728:Drivers/STM32H7xx_HAL_Driver/Src/stm32h7xx_hal_dma.c ****   */
1729:Drivers/STM32H7xx_HAL_Driver/Src/stm32h7xx_hal_dma.c **** 
1730:Drivers/STM32H7xx_HAL_Driver/Src/stm32h7xx_hal_dma.c **** /**
1731:Drivers/STM32H7xx_HAL_Driver/Src/stm32h7xx_hal_dma.c ****   * @brief  Returns the DMA state.
1732:Drivers/STM32H7xx_HAL_Driver/Src/stm32h7xx_hal_dma.c ****   * @param  hdma: pointer to a DMA_HandleTypeDef structure that contains
1733:Drivers/STM32H7xx_HAL_Driver/Src/stm32h7xx_hal_dma.c ****   *               the configuration information for the specified DMA Stream.
1734:Drivers/STM32H7xx_HAL_Driver/Src/stm32h7xx_hal_dma.c ****   * @retval HAL state
1735:Drivers/STM32H7xx_HAL_Driver/Src/stm32h7xx_hal_dma.c ****   */
1736:Drivers/STM32H7xx_HAL_Driver/Src/stm32h7xx_hal_dma.c **** HAL_DMA_StateTypeDef HAL_DMA_GetState(DMA_HandleTypeDef *hdma)
1737:Drivers/STM32H7xx_HAL_Driver/Src/stm32h7xx_hal_dma.c **** {
1738:Drivers/STM32H7xx_HAL_Driver/Src/stm32h7xx_hal_dma.c ****   return hdma->State;
1739:Drivers/STM32H7xx_HAL_Driver/Src/stm32h7xx_hal_dma.c **** }
1740:Drivers/STM32H7xx_HAL_Driver/Src/stm32h7xx_hal_dma.c **** 
1741:Drivers/STM32H7xx_HAL_Driver/Src/stm32h7xx_hal_dma.c **** /**
1742:Drivers/STM32H7xx_HAL_Driver/Src/stm32h7xx_hal_dma.c ****   * @brief  Return the DMA error code
1743:Drivers/STM32H7xx_HAL_Driver/Src/stm32h7xx_hal_dma.c ****   * @param  hdma : pointer to a DMA_HandleTypeDef structure that contains
ARM GAS  /tmp/ccBO8Lmd.s 			page 32


1744:Drivers/STM32H7xx_HAL_Driver/Src/stm32h7xx_hal_dma.c ****   *              the configuration information for the specified DMA Stream.
1745:Drivers/STM32H7xx_HAL_Driver/Src/stm32h7xx_hal_dma.c ****   * @retval DMA Error Code
1746:Drivers/STM32H7xx_HAL_Driver/Src/stm32h7xx_hal_dma.c ****   */
1747:Drivers/STM32H7xx_HAL_Driver/Src/stm32h7xx_hal_dma.c **** uint32_t HAL_DMA_GetError(DMA_HandleTypeDef *hdma)
1748:Drivers/STM32H7xx_HAL_Driver/Src/stm32h7xx_hal_dma.c **** {
1749:Drivers/STM32H7xx_HAL_Driver/Src/stm32h7xx_hal_dma.c ****   return hdma->ErrorCode;
1750:Drivers/STM32H7xx_HAL_Driver/Src/stm32h7xx_hal_dma.c **** }
1751:Drivers/STM32H7xx_HAL_Driver/Src/stm32h7xx_hal_dma.c **** 
1752:Drivers/STM32H7xx_HAL_Driver/Src/stm32h7xx_hal_dma.c **** /**
1753:Drivers/STM32H7xx_HAL_Driver/Src/stm32h7xx_hal_dma.c ****   * @}
1754:Drivers/STM32H7xx_HAL_Driver/Src/stm32h7xx_hal_dma.c ****   */
1755:Drivers/STM32H7xx_HAL_Driver/Src/stm32h7xx_hal_dma.c **** 
1756:Drivers/STM32H7xx_HAL_Driver/Src/stm32h7xx_hal_dma.c **** /**
1757:Drivers/STM32H7xx_HAL_Driver/Src/stm32h7xx_hal_dma.c ****   * @}
1758:Drivers/STM32H7xx_HAL_Driver/Src/stm32h7xx_hal_dma.c ****   */
1759:Drivers/STM32H7xx_HAL_Driver/Src/stm32h7xx_hal_dma.c **** 
1760:Drivers/STM32H7xx_HAL_Driver/Src/stm32h7xx_hal_dma.c **** /** @addtogroup DMA_Private_Functions
1761:Drivers/STM32H7xx_HAL_Driver/Src/stm32h7xx_hal_dma.c ****   * @{
1762:Drivers/STM32H7xx_HAL_Driver/Src/stm32h7xx_hal_dma.c ****   */
1763:Drivers/STM32H7xx_HAL_Driver/Src/stm32h7xx_hal_dma.c **** 
1764:Drivers/STM32H7xx_HAL_Driver/Src/stm32h7xx_hal_dma.c **** /**
1765:Drivers/STM32H7xx_HAL_Driver/Src/stm32h7xx_hal_dma.c ****   * @brief  Sets the DMA Transfer parameter.
1766:Drivers/STM32H7xx_HAL_Driver/Src/stm32h7xx_hal_dma.c ****   * @param  hdma:       pointer to a DMA_HandleTypeDef structure that contains
1767:Drivers/STM32H7xx_HAL_Driver/Src/stm32h7xx_hal_dma.c ****   *                     the configuration information for the specified DMA Stream.
1768:Drivers/STM32H7xx_HAL_Driver/Src/stm32h7xx_hal_dma.c ****   * @param  SrcAddress: The source memory Buffer address
1769:Drivers/STM32H7xx_HAL_Driver/Src/stm32h7xx_hal_dma.c ****   * @param  DstAddress: The destination memory Buffer address
1770:Drivers/STM32H7xx_HAL_Driver/Src/stm32h7xx_hal_dma.c ****   * @param  DataLength: The length of data to be transferred from source to destination
1771:Drivers/STM32H7xx_HAL_Driver/Src/stm32h7xx_hal_dma.c ****   * @retval None
1772:Drivers/STM32H7xx_HAL_Driver/Src/stm32h7xx_hal_dma.c ****   */
1773:Drivers/STM32H7xx_HAL_Driver/Src/stm32h7xx_hal_dma.c **** static void DMA_SetConfig(DMA_HandleTypeDef *hdma, uint32_t SrcAddress, uint32_t DstAddress, uint32
1774:Drivers/STM32H7xx_HAL_Driver/Src/stm32h7xx_hal_dma.c **** {
  26              		.loc 1 1774 0
  27              		.cfi_startproc
  28              		@ args = 0, pretend = 0, frame = 0
  29              		@ frame_needed = 0, uses_anonymous_args = 0
  30              		@ link register save eliminated.
  31              	.LVL0:
  32 0000 F0B4     		push	{r4, r5, r6, r7}
  33              	.LCFI0:
  34              		.cfi_def_cfa_offset 16
  35              		.cfi_offset 4, -16
  36              		.cfi_offset 5, -12
  37              		.cfi_offset 6, -8
  38              		.cfi_offset 7, -4
1775:Drivers/STM32H7xx_HAL_Driver/Src/stm32h7xx_hal_dma.c ****   /* calculate DMA base and stream number */
1776:Drivers/STM32H7xx_HAL_Driver/Src/stm32h7xx_hal_dma.c ****   DMA_Base_Registers  *regs_dma  = (DMA_Base_Registers *)hdma->StreamBaseAddress;
  39              		.loc 1 1776 0
  40 0002 876D     		ldr	r7, [r0, #88]
  41              	.LVL1:
1777:Drivers/STM32H7xx_HAL_Driver/Src/stm32h7xx_hal_dma.c ****   BDMA_Base_Registers *regs_bdma = (BDMA_Base_Registers *)hdma->StreamBaseAddress;
1778:Drivers/STM32H7xx_HAL_Driver/Src/stm32h7xx_hal_dma.c **** 
1779:Drivers/STM32H7xx_HAL_Driver/Src/stm32h7xx_hal_dma.c ****   if(IS_DMA_DMAMUX_ALL_INSTANCE(hdma->Instance) != 0U) /* No DMAMUX available for BDMA1 */
  42              		.loc 1 1779 0
  43 0004 0468     		ldr	r4, [r0]
  44 0006 654E     		ldr	r6, .L14
  45 0008 654D     		ldr	r5, .L14+4
  46 000a AC42     		cmp	r4, r5
ARM GAS  /tmp/ccBO8Lmd.s 			page 33


  47 000c 18BF     		it	ne
  48 000e B442     		cmpne	r4, r6
  49 0010 42D0     		beq	.L2
  50              		.loc 1 1779 0 is_stmt 0 discriminator 2
  51 0012 1835     		adds	r5, r5, #24
  52 0014 AC42     		cmp	r4, r5
  53 0016 3FD0     		beq	.L2
  54              		.loc 1 1779 0 discriminator 4
  55 0018 1835     		adds	r5, r5, #24
  56 001a AC42     		cmp	r4, r5
  57 001c 3CD0     		beq	.L2
  58              		.loc 1 1779 0 discriminator 6
  59 001e 1835     		adds	r5, r5, #24
  60 0020 AC42     		cmp	r4, r5
  61 0022 39D0     		beq	.L2
  62              		.loc 1 1779 0 discriminator 8
  63 0024 1835     		adds	r5, r5, #24
  64 0026 AC42     		cmp	r4, r5
  65 0028 36D0     		beq	.L2
  66              		.loc 1 1779 0 discriminator 10
  67 002a 1835     		adds	r5, r5, #24
  68 002c AC42     		cmp	r4, r5
  69 002e 33D0     		beq	.L2
  70              		.loc 1 1779 0 discriminator 12
  71 0030 1835     		adds	r5, r5, #24
  72 0032 AC42     		cmp	r4, r5
  73 0034 30D0     		beq	.L2
  74              		.loc 1 1779 0 discriminator 14
  75 0036 05F55675 		add	r5, r5, #856
  76 003a AC42     		cmp	r4, r5
  77 003c 2CD0     		beq	.L2
  78              		.loc 1 1779 0 discriminator 16
  79 003e 1835     		adds	r5, r5, #24
  80 0040 AC42     		cmp	r4, r5
  81 0042 29D0     		beq	.L2
  82              		.loc 1 1779 0 discriminator 18
  83 0044 1835     		adds	r5, r5, #24
  84 0046 AC42     		cmp	r4, r5
  85 0048 26D0     		beq	.L2
  86              		.loc 1 1779 0 discriminator 20
  87 004a 1835     		adds	r5, r5, #24
  88 004c AC42     		cmp	r4, r5
  89 004e 23D0     		beq	.L2
  90              		.loc 1 1779 0 discriminator 22
  91 0050 1835     		adds	r5, r5, #24
  92 0052 AC42     		cmp	r4, r5
  93 0054 20D0     		beq	.L2
  94              		.loc 1 1779 0 discriminator 24
  95 0056 1835     		adds	r5, r5, #24
  96 0058 AC42     		cmp	r4, r5
  97 005a 1DD0     		beq	.L2
  98              		.loc 1 1779 0 discriminator 26
  99 005c 1835     		adds	r5, r5, #24
 100 005e AC42     		cmp	r4, r5
 101 0060 1AD0     		beq	.L2
 102              		.loc 1 1779 0 discriminator 28
 103 0062 1835     		adds	r5, r5, #24
ARM GAS  /tmp/ccBO8Lmd.s 			page 34


 104 0064 AC42     		cmp	r4, r5
 105 0066 17D0     		beq	.L2
 106              		.loc 1 1779 0 discriminator 30
 107 0068 4E4D     		ldr	r5, .L14+8
 108 006a AC42     		cmp	r4, r5
 109 006c 14D0     		beq	.L2
 110              		.loc 1 1779 0 discriminator 32
 111 006e 1435     		adds	r5, r5, #20
 112 0070 AC42     		cmp	r4, r5
 113 0072 11D0     		beq	.L2
 114              		.loc 1 1779 0 discriminator 34
 115 0074 1435     		adds	r5, r5, #20
 116 0076 AC42     		cmp	r4, r5
 117 0078 0ED0     		beq	.L2
 118              		.loc 1 1779 0 discriminator 36
 119 007a 1435     		adds	r5, r5, #20
 120 007c AC42     		cmp	r4, r5
 121 007e 0BD0     		beq	.L2
 122              		.loc 1 1779 0 discriminator 38
 123 0080 1435     		adds	r5, r5, #20
 124 0082 AC42     		cmp	r4, r5
 125 0084 08D0     		beq	.L2
 126              		.loc 1 1779 0 discriminator 40
 127 0086 1435     		adds	r5, r5, #20
 128 0088 AC42     		cmp	r4, r5
 129 008a 05D0     		beq	.L2
 130              		.loc 1 1779 0 discriminator 42
 131 008c 1435     		adds	r5, r5, #20
 132 008e AC42     		cmp	r4, r5
 133 0090 02D0     		beq	.L2
 134              		.loc 1 1779 0 discriminator 44
 135 0092 1435     		adds	r5, r5, #20
 136 0094 AC42     		cmp	r4, r5
 137 0096 07D1     		bne	.L3
 138              	.L2:
1780:Drivers/STM32H7xx_HAL_Driver/Src/stm32h7xx_hal_dma.c ****   {
1781:Drivers/STM32H7xx_HAL_Driver/Src/stm32h7xx_hal_dma.c ****     /* Clear the DMAMUX synchro overrun flag */
1782:Drivers/STM32H7xx_HAL_Driver/Src/stm32h7xx_hal_dma.c ****     hdma->DMAmuxChannelStatus->CFR = hdma->DMAmuxChannelStatusMask;
 139              		.loc 1 1782 0 is_stmt 1
 140 0098 446E     		ldr	r4, [r0, #100]
 141 009a 856E     		ldr	r5, [r0, #104]
 142 009c 6560     		str	r5, [r4, #4]
1783:Drivers/STM32H7xx_HAL_Driver/Src/stm32h7xx_hal_dma.c **** 
1784:Drivers/STM32H7xx_HAL_Driver/Src/stm32h7xx_hal_dma.c ****     if(hdma->DMAmuxRequestGen != 0U)
 143              		.loc 1 1784 0
 144 009e C46E     		ldr	r4, [r0, #108]
 145 00a0 14B1     		cbz	r4, .L3
1785:Drivers/STM32H7xx_HAL_Driver/Src/stm32h7xx_hal_dma.c ****     {
1786:Drivers/STM32H7xx_HAL_Driver/Src/stm32h7xx_hal_dma.c ****       /* Clear the DMAMUX request generator overrun flag */
1787:Drivers/STM32H7xx_HAL_Driver/Src/stm32h7xx_hal_dma.c ****       hdma->DMAmuxRequestGenStatus->RGCFR = hdma->DMAmuxRequestGenStatusMask;
 146              		.loc 1 1787 0
 147 00a2 046F     		ldr	r4, [r0, #112]
 148 00a4 456F     		ldr	r5, [r0, #116]
 149 00a6 6560     		str	r5, [r4, #4]
 150              	.L3:
1788:Drivers/STM32H7xx_HAL_Driver/Src/stm32h7xx_hal_dma.c ****     }
1789:Drivers/STM32H7xx_HAL_Driver/Src/stm32h7xx_hal_dma.c ****   }
ARM GAS  /tmp/ccBO8Lmd.s 			page 35


1790:Drivers/STM32H7xx_HAL_Driver/Src/stm32h7xx_hal_dma.c **** 
1791:Drivers/STM32H7xx_HAL_Driver/Src/stm32h7xx_hal_dma.c ****   if(IS_DMA_STREAM_INSTANCE(hdma->Instance) != 0U) /* DMA1 or DMA2 instance */
 151              		.loc 1 1791 0
 152 00a8 0468     		ldr	r4, [r0]
 153 00aa 3C4E     		ldr	r6, .L14
 154 00ac 3C4D     		ldr	r5, .L14+4
 155 00ae AC42     		cmp	r4, r5
 156 00b0 18BF     		it	ne
 157 00b2 B442     		cmpne	r4, r6
 158 00b4 52D0     		beq	.L4
 159              		.loc 1 1791 0 is_stmt 0 discriminator 2
 160 00b6 1835     		adds	r5, r5, #24
 161 00b8 AC42     		cmp	r4, r5
 162 00ba 4FD0     		beq	.L4
 163              		.loc 1 1791 0 discriminator 4
 164 00bc 1835     		adds	r5, r5, #24
 165 00be AC42     		cmp	r4, r5
 166 00c0 4CD0     		beq	.L4
 167              		.loc 1 1791 0 discriminator 6
 168 00c2 1835     		adds	r5, r5, #24
 169 00c4 AC42     		cmp	r4, r5
 170 00c6 49D0     		beq	.L4
 171              		.loc 1 1791 0 discriminator 8
 172 00c8 1835     		adds	r5, r5, #24
 173 00ca AC42     		cmp	r4, r5
 174 00cc 46D0     		beq	.L4
 175              		.loc 1 1791 0 discriminator 10
 176 00ce 1835     		adds	r5, r5, #24
 177 00d0 AC42     		cmp	r4, r5
 178 00d2 43D0     		beq	.L4
 179              		.loc 1 1791 0 discriminator 12
 180 00d4 1835     		adds	r5, r5, #24
 181 00d6 AC42     		cmp	r4, r5
 182 00d8 40D0     		beq	.L4
 183              		.loc 1 1791 0 discriminator 14
 184 00da 05F55675 		add	r5, r5, #856
 185 00de AC42     		cmp	r4, r5
 186 00e0 3CD0     		beq	.L4
 187              		.loc 1 1791 0 discriminator 16
 188 00e2 1835     		adds	r5, r5, #24
 189 00e4 AC42     		cmp	r4, r5
 190 00e6 39D0     		beq	.L4
 191              		.loc 1 1791 0 discriminator 18
 192 00e8 1835     		adds	r5, r5, #24
 193 00ea AC42     		cmp	r4, r5
 194 00ec 36D0     		beq	.L4
 195              		.loc 1 1791 0 discriminator 20
 196 00ee 1835     		adds	r5, r5, #24
 197 00f0 AC42     		cmp	r4, r5
 198 00f2 33D0     		beq	.L4
 199              		.loc 1 1791 0 discriminator 22
 200 00f4 1835     		adds	r5, r5, #24
 201 00f6 AC42     		cmp	r4, r5
 202 00f8 30D0     		beq	.L4
 203              		.loc 1 1791 0 discriminator 24
 204 00fa 1835     		adds	r5, r5, #24
 205 00fc AC42     		cmp	r4, r5
ARM GAS  /tmp/ccBO8Lmd.s 			page 36


 206 00fe 2DD0     		beq	.L4
 207              		.loc 1 1791 0 discriminator 26
 208 0100 1835     		adds	r5, r5, #24
 209 0102 AC42     		cmp	r4, r5
 210 0104 2AD0     		beq	.L4
 211              		.loc 1 1791 0 discriminator 28
 212 0106 1835     		adds	r5, r5, #24
 213 0108 AC42     		cmp	r4, r5
 214 010a 27D0     		beq	.L4
1792:Drivers/STM32H7xx_HAL_Driver/Src/stm32h7xx_hal_dma.c ****   {
1793:Drivers/STM32H7xx_HAL_Driver/Src/stm32h7xx_hal_dma.c ****     /* Clear all interrupt flags at correct offset within the register */
1794:Drivers/STM32H7xx_HAL_Driver/Src/stm32h7xx_hal_dma.c ****     regs_dma->IFCR = 0x3FUL << (hdma->StreamIndex & 0x1FU);
1795:Drivers/STM32H7xx_HAL_Driver/Src/stm32h7xx_hal_dma.c **** 
1796:Drivers/STM32H7xx_HAL_Driver/Src/stm32h7xx_hal_dma.c ****     /* Clear DBM bit */
1797:Drivers/STM32H7xx_HAL_Driver/Src/stm32h7xx_hal_dma.c ****     ((DMA_Stream_TypeDef *)hdma->Instance)->CR &= (uint32_t)(~DMA_SxCR_DBM);
1798:Drivers/STM32H7xx_HAL_Driver/Src/stm32h7xx_hal_dma.c **** 
1799:Drivers/STM32H7xx_HAL_Driver/Src/stm32h7xx_hal_dma.c ****     /* Configure DMA Stream data length */
1800:Drivers/STM32H7xx_HAL_Driver/Src/stm32h7xx_hal_dma.c ****     ((DMA_Stream_TypeDef *)hdma->Instance)->NDTR = DataLength;
1801:Drivers/STM32H7xx_HAL_Driver/Src/stm32h7xx_hal_dma.c **** 
1802:Drivers/STM32H7xx_HAL_Driver/Src/stm32h7xx_hal_dma.c ****     /* Peripheral to Memory */
1803:Drivers/STM32H7xx_HAL_Driver/Src/stm32h7xx_hal_dma.c ****     if((hdma->Init.Direction) == DMA_MEMORY_TO_PERIPH)
1804:Drivers/STM32H7xx_HAL_Driver/Src/stm32h7xx_hal_dma.c ****     {
1805:Drivers/STM32H7xx_HAL_Driver/Src/stm32h7xx_hal_dma.c ****       /* Configure DMA Stream destination address */
1806:Drivers/STM32H7xx_HAL_Driver/Src/stm32h7xx_hal_dma.c ****       ((DMA_Stream_TypeDef *)hdma->Instance)->PAR = DstAddress;
1807:Drivers/STM32H7xx_HAL_Driver/Src/stm32h7xx_hal_dma.c **** 
1808:Drivers/STM32H7xx_HAL_Driver/Src/stm32h7xx_hal_dma.c ****       /* Configure DMA Stream source address */
1809:Drivers/STM32H7xx_HAL_Driver/Src/stm32h7xx_hal_dma.c ****       ((DMA_Stream_TypeDef *)hdma->Instance)->M0AR = SrcAddress;
1810:Drivers/STM32H7xx_HAL_Driver/Src/stm32h7xx_hal_dma.c ****     }
1811:Drivers/STM32H7xx_HAL_Driver/Src/stm32h7xx_hal_dma.c ****     /* Memory to Peripheral */
1812:Drivers/STM32H7xx_HAL_Driver/Src/stm32h7xx_hal_dma.c ****     else
1813:Drivers/STM32H7xx_HAL_Driver/Src/stm32h7xx_hal_dma.c ****     {
1814:Drivers/STM32H7xx_HAL_Driver/Src/stm32h7xx_hal_dma.c ****       /* Configure DMA Stream source address */
1815:Drivers/STM32H7xx_HAL_Driver/Src/stm32h7xx_hal_dma.c ****       ((DMA_Stream_TypeDef *)hdma->Instance)->PAR = SrcAddress;
1816:Drivers/STM32H7xx_HAL_Driver/Src/stm32h7xx_hal_dma.c **** 
1817:Drivers/STM32H7xx_HAL_Driver/Src/stm32h7xx_hal_dma.c ****       /* Configure DMA Stream destination address */
1818:Drivers/STM32H7xx_HAL_Driver/Src/stm32h7xx_hal_dma.c ****       ((DMA_Stream_TypeDef *)hdma->Instance)->M0AR = DstAddress;
1819:Drivers/STM32H7xx_HAL_Driver/Src/stm32h7xx_hal_dma.c ****     }
1820:Drivers/STM32H7xx_HAL_Driver/Src/stm32h7xx_hal_dma.c ****   }
1821:Drivers/STM32H7xx_HAL_Driver/Src/stm32h7xx_hal_dma.c ****   else if(IS_BDMA_CHANNEL_INSTANCE(hdma->Instance) != 0U) /* BDMA instance(s) */
 215              		.loc 1 1821 0 is_stmt 1
 216 010c 254E     		ldr	r6, .L14+8
 217 010e 264D     		ldr	r5, .L14+12
 218 0110 AC42     		cmp	r4, r5
 219 0112 18BF     		it	ne
 220 0114 B442     		cmpne	r4, r6
 221 0116 11D0     		beq	.L5
 222              		.loc 1 1821 0 is_stmt 0 discriminator 2
 223 0118 244D     		ldr	r5, .L14+16
 224 011a AC42     		cmp	r4, r5
 225 011c 0ED0     		beq	.L5
 226              		.loc 1 1821 0 discriminator 4
 227 011e 1435     		adds	r5, r5, #20
 228 0120 AC42     		cmp	r4, r5
 229 0122 0BD0     		beq	.L5
 230              		.loc 1 1821 0 discriminator 6
 231 0124 1435     		adds	r5, r5, #20
 232 0126 AC42     		cmp	r4, r5
ARM GAS  /tmp/ccBO8Lmd.s 			page 37


 233 0128 08D0     		beq	.L5
 234              		.loc 1 1821 0 discriminator 8
 235 012a 1435     		adds	r5, r5, #20
 236 012c AC42     		cmp	r4, r5
 237 012e 05D0     		beq	.L5
 238              		.loc 1 1821 0 discriminator 10
 239 0130 1435     		adds	r5, r5, #20
 240 0132 AC42     		cmp	r4, r5
 241 0134 02D0     		beq	.L5
 242              		.loc 1 1821 0 discriminator 12
 243 0136 1435     		adds	r5, r5, #20
 244 0138 AC42     		cmp	r4, r5
 245 013a 23D1     		bne	.L1
 246              	.L5:
1822:Drivers/STM32H7xx_HAL_Driver/Src/stm32h7xx_hal_dma.c ****   {
1823:Drivers/STM32H7xx_HAL_Driver/Src/stm32h7xx_hal_dma.c ****     /* Clear all flags */
1824:Drivers/STM32H7xx_HAL_Driver/Src/stm32h7xx_hal_dma.c ****     regs_bdma->IFCR = (BDMA_ISR_GIF0) << (hdma->StreamIndex & 0x1FU);
 247              		.loc 1 1824 0 is_stmt 1
 248 013c C46D     		ldr	r4, [r0, #92]
 249 013e 04F01F05 		and	r5, r4, #31
 250 0142 0124     		movs	r4, #1
 251 0144 AC40     		lsls	r4, r4, r5
 252 0146 7C60     		str	r4, [r7, #4]
1825:Drivers/STM32H7xx_HAL_Driver/Src/stm32h7xx_hal_dma.c **** 
1826:Drivers/STM32H7xx_HAL_Driver/Src/stm32h7xx_hal_dma.c ****     /* Configure DMA Channel data length */
1827:Drivers/STM32H7xx_HAL_Driver/Src/stm32h7xx_hal_dma.c ****     ((BDMA_Channel_TypeDef *)hdma->Instance)->CNDTR = DataLength;
 253              		.loc 1 1827 0
 254 0148 0468     		ldr	r4, [r0]
 255 014a 6360     		str	r3, [r4, #4]
1828:Drivers/STM32H7xx_HAL_Driver/Src/stm32h7xx_hal_dma.c **** 
1829:Drivers/STM32H7xx_HAL_Driver/Src/stm32h7xx_hal_dma.c ****     /* Peripheral to Memory */
1830:Drivers/STM32H7xx_HAL_Driver/Src/stm32h7xx_hal_dma.c ****     if((hdma->Init.Direction) == DMA_MEMORY_TO_PERIPH)
 256              		.loc 1 1830 0
 257 014c 8368     		ldr	r3, [r0, #8]
 258              	.LVL2:
 259 014e 402B     		cmp	r3, #64
 260 0150 1FD0     		beq	.L12
1831:Drivers/STM32H7xx_HAL_Driver/Src/stm32h7xx_hal_dma.c ****     {
1832:Drivers/STM32H7xx_HAL_Driver/Src/stm32h7xx_hal_dma.c ****       /* Configure DMA Channel destination address */
1833:Drivers/STM32H7xx_HAL_Driver/Src/stm32h7xx_hal_dma.c ****       ((BDMA_Channel_TypeDef *)hdma->Instance)->CPAR = DstAddress;
1834:Drivers/STM32H7xx_HAL_Driver/Src/stm32h7xx_hal_dma.c **** 
1835:Drivers/STM32H7xx_HAL_Driver/Src/stm32h7xx_hal_dma.c ****       /* Configure DMA Channel source address */
1836:Drivers/STM32H7xx_HAL_Driver/Src/stm32h7xx_hal_dma.c ****       ((BDMA_Channel_TypeDef *)hdma->Instance)->CM0AR = SrcAddress;
1837:Drivers/STM32H7xx_HAL_Driver/Src/stm32h7xx_hal_dma.c ****     }
1838:Drivers/STM32H7xx_HAL_Driver/Src/stm32h7xx_hal_dma.c ****     /* Memory to Peripheral */
1839:Drivers/STM32H7xx_HAL_Driver/Src/stm32h7xx_hal_dma.c ****     else
1840:Drivers/STM32H7xx_HAL_Driver/Src/stm32h7xx_hal_dma.c ****     {
1841:Drivers/STM32H7xx_HAL_Driver/Src/stm32h7xx_hal_dma.c ****       /* Configure DMA Channel source address */
1842:Drivers/STM32H7xx_HAL_Driver/Src/stm32h7xx_hal_dma.c ****       ((BDMA_Channel_TypeDef *)hdma->Instance)->CPAR = SrcAddress;
 261              		.loc 1 1842 0
 262 0152 0368     		ldr	r3, [r0]
 263 0154 9960     		str	r1, [r3, #8]
 264              	.LVL3:
1843:Drivers/STM32H7xx_HAL_Driver/Src/stm32h7xx_hal_dma.c **** 
1844:Drivers/STM32H7xx_HAL_Driver/Src/stm32h7xx_hal_dma.c ****       /* Configure DMA Channel destination address */
1845:Drivers/STM32H7xx_HAL_Driver/Src/stm32h7xx_hal_dma.c ****       ((BDMA_Channel_TypeDef *)hdma->Instance)->CM0AR = DstAddress;
 265              		.loc 1 1845 0
ARM GAS  /tmp/ccBO8Lmd.s 			page 38


 266 0156 0368     		ldr	r3, [r0]
 267 0158 DA60     		str	r2, [r3, #12]
1846:Drivers/STM32H7xx_HAL_Driver/Src/stm32h7xx_hal_dma.c ****     }
1847:Drivers/STM32H7xx_HAL_Driver/Src/stm32h7xx_hal_dma.c ****   }
1848:Drivers/STM32H7xx_HAL_Driver/Src/stm32h7xx_hal_dma.c ****   else
1849:Drivers/STM32H7xx_HAL_Driver/Src/stm32h7xx_hal_dma.c ****   {
1850:Drivers/STM32H7xx_HAL_Driver/Src/stm32h7xx_hal_dma.c ****     /* Nothing To Do */
1851:Drivers/STM32H7xx_HAL_Driver/Src/stm32h7xx_hal_dma.c ****   }
1852:Drivers/STM32H7xx_HAL_Driver/Src/stm32h7xx_hal_dma.c **** }
 268              		.loc 1 1852 0
 269 015a 13E0     		b	.L1
 270              	.LVL4:
 271              	.L4:
1794:Drivers/STM32H7xx_HAL_Driver/Src/stm32h7xx_hal_dma.c **** 
 272              		.loc 1 1794 0
 273 015c C46D     		ldr	r4, [r0, #92]
 274 015e 04F01F05 		and	r5, r4, #31
 275 0162 3F24     		movs	r4, #63
 276 0164 AC40     		lsls	r4, r4, r5
 277 0166 BC60     		str	r4, [r7, #8]
1797:Drivers/STM32H7xx_HAL_Driver/Src/stm32h7xx_hal_dma.c **** 
 278              		.loc 1 1797 0
 279 0168 0568     		ldr	r5, [r0]
 280 016a 2C68     		ldr	r4, [r5]
 281 016c 24F48024 		bic	r4, r4, #262144
 282 0170 2C60     		str	r4, [r5]
1800:Drivers/STM32H7xx_HAL_Driver/Src/stm32h7xx_hal_dma.c **** 
 283              		.loc 1 1800 0
 284 0172 0468     		ldr	r4, [r0]
 285 0174 6360     		str	r3, [r4, #4]
1803:Drivers/STM32H7xx_HAL_Driver/Src/stm32h7xx_hal_dma.c ****     {
 286              		.loc 1 1803 0
 287 0176 8368     		ldr	r3, [r0, #8]
 288              	.LVL5:
 289 0178 402B     		cmp	r3, #64
 290 017a 05D0     		beq	.L13
1815:Drivers/STM32H7xx_HAL_Driver/Src/stm32h7xx_hal_dma.c **** 
 291              		.loc 1 1815 0
 292 017c 0368     		ldr	r3, [r0]
 293 017e 9960     		str	r1, [r3, #8]
 294              	.LVL6:
1818:Drivers/STM32H7xx_HAL_Driver/Src/stm32h7xx_hal_dma.c ****     }
 295              		.loc 1 1818 0
 296 0180 0368     		ldr	r3, [r0]
 297 0182 DA60     		str	r2, [r3, #12]
 298              	.L1:
 299              		.loc 1 1852 0
 300 0184 F0BC     		pop	{r4, r5, r6, r7}
 301              	.LCFI1:
 302              		.cfi_remember_state
 303              		.cfi_restore 7
 304              		.cfi_restore 6
 305              		.cfi_restore 5
 306              		.cfi_restore 4
 307              		.cfi_def_cfa_offset 0
 308              	.LVL7:
 309 0186 7047     		bx	lr
ARM GAS  /tmp/ccBO8Lmd.s 			page 39


 310              	.LVL8:
 311              	.L13:
 312              	.LCFI2:
 313              		.cfi_restore_state
1806:Drivers/STM32H7xx_HAL_Driver/Src/stm32h7xx_hal_dma.c **** 
 314              		.loc 1 1806 0
 315 0188 0368     		ldr	r3, [r0]
 316 018a 9A60     		str	r2, [r3, #8]
 317              	.LVL9:
1809:Drivers/STM32H7xx_HAL_Driver/Src/stm32h7xx_hal_dma.c ****     }
 318              		.loc 1 1809 0
 319 018c 0368     		ldr	r3, [r0]
 320 018e D960     		str	r1, [r3, #12]
 321 0190 F8E7     		b	.L1
 322              	.LVL10:
 323              	.L12:
1833:Drivers/STM32H7xx_HAL_Driver/Src/stm32h7xx_hal_dma.c **** 
 324              		.loc 1 1833 0
 325 0192 0368     		ldr	r3, [r0]
 326 0194 9A60     		str	r2, [r3, #8]
 327              	.LVL11:
1836:Drivers/STM32H7xx_HAL_Driver/Src/stm32h7xx_hal_dma.c ****     }
 328              		.loc 1 1836 0
 329 0196 0368     		ldr	r3, [r0]
 330 0198 D960     		str	r1, [r3, #12]
 331 019a F3E7     		b	.L1
 332              	.L15:
 333              		.align	2
 334              	.L14:
 335 019c 10000240 		.word	1073872912
 336 01a0 28000240 		.word	1073872936
 337 01a4 08540258 		.word	1476547592
 338 01a8 1C540258 		.word	1476547612
 339 01ac 30540258 		.word	1476547632
 340              		.cfi_endproc
 341              	.LFE156:
 343              		.section	.text.DMA_CalcBaseAndBitshift,"ax",%progbits
 344              		.align	1
 345              		.syntax unified
 346              		.thumb
 347              		.thumb_func
 348              		.fpu fpv5-d16
 350              	DMA_CalcBaseAndBitshift:
 351              	.LFB157:
1853:Drivers/STM32H7xx_HAL_Driver/Src/stm32h7xx_hal_dma.c **** 
1854:Drivers/STM32H7xx_HAL_Driver/Src/stm32h7xx_hal_dma.c **** /**
1855:Drivers/STM32H7xx_HAL_Driver/Src/stm32h7xx_hal_dma.c ****   * @brief  Returns the DMA Stream base address depending on stream number
1856:Drivers/STM32H7xx_HAL_Driver/Src/stm32h7xx_hal_dma.c ****   * @param  hdma:       pointer to a DMA_HandleTypeDef structure that contains
1857:Drivers/STM32H7xx_HAL_Driver/Src/stm32h7xx_hal_dma.c ****   *                     the configuration information for the specified DMA Stream.
1858:Drivers/STM32H7xx_HAL_Driver/Src/stm32h7xx_hal_dma.c ****   * @retval Stream base address
1859:Drivers/STM32H7xx_HAL_Driver/Src/stm32h7xx_hal_dma.c ****   */
1860:Drivers/STM32H7xx_HAL_Driver/Src/stm32h7xx_hal_dma.c **** static uint32_t DMA_CalcBaseAndBitshift(DMA_HandleTypeDef *hdma)
1861:Drivers/STM32H7xx_HAL_Driver/Src/stm32h7xx_hal_dma.c **** {
 352              		.loc 1 1861 0
 353              		.cfi_startproc
 354              		@ args = 0, pretend = 0, frame = 0
 355              		@ frame_needed = 0, uses_anonymous_args = 0
ARM GAS  /tmp/ccBO8Lmd.s 			page 40


 356              		@ link register save eliminated.
 357              	.LVL12:
1862:Drivers/STM32H7xx_HAL_Driver/Src/stm32h7xx_hal_dma.c ****   if(IS_DMA_STREAM_INSTANCE(hdma->Instance) != 0U) /* DMA1 or DMA2 instance */
 358              		.loc 1 1862 0
 359 0000 0268     		ldr	r2, [r0]
 360 0002 2849     		ldr	r1, .L24
 361 0004 284B     		ldr	r3, .L24+4
 362 0006 9A42     		cmp	r2, r3
 363 0008 18BF     		it	ne
 364 000a 8A42     		cmpne	r2, r1
 365 000c 2FD0     		beq	.L17
 366              		.loc 1 1862 0 is_stmt 0 discriminator 2
 367 000e 1833     		adds	r3, r3, #24
 368 0010 9A42     		cmp	r2, r3
 369 0012 2CD0     		beq	.L17
 370              		.loc 1 1862 0 discriminator 4
 371 0014 1833     		adds	r3, r3, #24
 372 0016 9A42     		cmp	r2, r3
 373 0018 29D0     		beq	.L17
 374              		.loc 1 1862 0 discriminator 6
 375 001a 1833     		adds	r3, r3, #24
 376 001c 9A42     		cmp	r2, r3
 377 001e 26D0     		beq	.L17
 378              		.loc 1 1862 0 discriminator 8
 379 0020 1833     		adds	r3, r3, #24
 380 0022 9A42     		cmp	r2, r3
 381 0024 23D0     		beq	.L17
 382              		.loc 1 1862 0 discriminator 10
 383 0026 1833     		adds	r3, r3, #24
 384 0028 9A42     		cmp	r2, r3
 385 002a 20D0     		beq	.L17
 386              		.loc 1 1862 0 discriminator 12
 387 002c 1833     		adds	r3, r3, #24
 388 002e 9A42     		cmp	r2, r3
 389 0030 1DD0     		beq	.L17
 390              		.loc 1 1862 0 discriminator 14
 391 0032 03F55673 		add	r3, r3, #856
 392 0036 9A42     		cmp	r2, r3
 393 0038 19D0     		beq	.L17
 394              		.loc 1 1862 0 discriminator 16
 395 003a 1833     		adds	r3, r3, #24
 396 003c 9A42     		cmp	r2, r3
 397 003e 16D0     		beq	.L17
 398              		.loc 1 1862 0 discriminator 18
 399 0040 1833     		adds	r3, r3, #24
 400 0042 9A42     		cmp	r2, r3
 401 0044 13D0     		beq	.L17
 402              		.loc 1 1862 0 discriminator 20
 403 0046 1833     		adds	r3, r3, #24
 404 0048 9A42     		cmp	r2, r3
 405 004a 10D0     		beq	.L17
 406              		.loc 1 1862 0 discriminator 22
 407 004c 1833     		adds	r3, r3, #24
 408 004e 9A42     		cmp	r2, r3
 409 0050 0DD0     		beq	.L17
 410              		.loc 1 1862 0 discriminator 24
 411 0052 1833     		adds	r3, r3, #24
ARM GAS  /tmp/ccBO8Lmd.s 			page 41


 412 0054 9A42     		cmp	r2, r3
 413 0056 0AD0     		beq	.L17
 414              		.loc 1 1862 0 discriminator 26
 415 0058 1833     		adds	r3, r3, #24
 416 005a 9A42     		cmp	r2, r3
 417 005c 07D0     		beq	.L17
 418              		.loc 1 1862 0 discriminator 28
 419 005e 1833     		adds	r3, r3, #24
 420 0060 9A42     		cmp	r2, r3
 421 0062 04D0     		beq	.L17
1863:Drivers/STM32H7xx_HAL_Driver/Src/stm32h7xx_hal_dma.c ****   {
1864:Drivers/STM32H7xx_HAL_Driver/Src/stm32h7xx_hal_dma.c ****     uint32_t stream_number = (((uint32_t)((uint32_t*)hdma->Instance) & 0xFFU) - 16U) / 24U;
1865:Drivers/STM32H7xx_HAL_Driver/Src/stm32h7xx_hal_dma.c **** 
1866:Drivers/STM32H7xx_HAL_Driver/Src/stm32h7xx_hal_dma.c ****     /* lookup table for necessary bitshift of flags within status registers */
1867:Drivers/STM32H7xx_HAL_Driver/Src/stm32h7xx_hal_dma.c ****     static const uint8_t flagBitshiftOffset[8U] = {0U, 6U, 16U, 22U, 0U, 6U, 16U, 22U};
1868:Drivers/STM32H7xx_HAL_Driver/Src/stm32h7xx_hal_dma.c ****     hdma->StreamIndex = flagBitshiftOffset[stream_number & 0x7U];
1869:Drivers/STM32H7xx_HAL_Driver/Src/stm32h7xx_hal_dma.c **** 
1870:Drivers/STM32H7xx_HAL_Driver/Src/stm32h7xx_hal_dma.c ****     if (stream_number > 3U)
1871:Drivers/STM32H7xx_HAL_Driver/Src/stm32h7xx_hal_dma.c ****     {
1872:Drivers/STM32H7xx_HAL_Driver/Src/stm32h7xx_hal_dma.c ****       /* return pointer to HISR and HIFCR */
1873:Drivers/STM32H7xx_HAL_Driver/Src/stm32h7xx_hal_dma.c ****       hdma->StreamBaseAddress = (((uint32_t)((uint32_t*)hdma->Instance) & (uint32_t)(~0x3FFU)) + 4U
1874:Drivers/STM32H7xx_HAL_Driver/Src/stm32h7xx_hal_dma.c ****     }
1875:Drivers/STM32H7xx_HAL_Driver/Src/stm32h7xx_hal_dma.c ****     else
1876:Drivers/STM32H7xx_HAL_Driver/Src/stm32h7xx_hal_dma.c ****     {
1877:Drivers/STM32H7xx_HAL_Driver/Src/stm32h7xx_hal_dma.c ****       /* return pointer to LISR and LIFCR */
1878:Drivers/STM32H7xx_HAL_Driver/Src/stm32h7xx_hal_dma.c ****       hdma->StreamBaseAddress = ((uint32_t)((uint32_t*)hdma->Instance) & (uint32_t)(~0x3FFU));
1879:Drivers/STM32H7xx_HAL_Driver/Src/stm32h7xx_hal_dma.c ****     }
1880:Drivers/STM32H7xx_HAL_Driver/Src/stm32h7xx_hal_dma.c ****   }
1881:Drivers/STM32H7xx_HAL_Driver/Src/stm32h7xx_hal_dma.c ****   else /* BDMA instance(s) */
1882:Drivers/STM32H7xx_HAL_Driver/Src/stm32h7xx_hal_dma.c ****   {
1883:Drivers/STM32H7xx_HAL_Driver/Src/stm32h7xx_hal_dma.c ****     /* return pointer to ISR and IFCR */
1884:Drivers/STM32H7xx_HAL_Driver/Src/stm32h7xx_hal_dma.c ****     hdma->StreamBaseAddress = ((uint32_t)((uint32_t*)hdma->Instance) & (uint32_t)(~0xFFU));
 422              		.loc 1 1884 0 is_stmt 1
 423 0064 22F0FF02 		bic	r2, r2, #255
 424 0068 8265     		str	r2, [r0, #88]
1885:Drivers/STM32H7xx_HAL_Driver/Src/stm32h7xx_hal_dma.c ****   }
1886:Drivers/STM32H7xx_HAL_Driver/Src/stm32h7xx_hal_dma.c **** 
1887:Drivers/STM32H7xx_HAL_Driver/Src/stm32h7xx_hal_dma.c ****   return hdma->StreamBaseAddress;
1888:Drivers/STM32H7xx_HAL_Driver/Src/stm32h7xx_hal_dma.c **** }
 425              		.loc 1 1888 0
 426 006a 806D     		ldr	r0, [r0, #88]
 427              	.LVL13:
 428 006c 7047     		bx	lr
 429              	.LVL14:
 430              	.L17:
1861:Drivers/STM32H7xx_HAL_Driver/Src/stm32h7xx_hal_dma.c ****   if(IS_DMA_STREAM_INSTANCE(hdma->Instance) != 0U) /* DMA1 or DMA2 instance */
 431              		.loc 1 1861 0
 432 006e 10B4     		push	{r4}
 433              	.LCFI3:
 434              		.cfi_def_cfa_offset 4
 435              		.cfi_offset 4, -4
 436              	.LBB2:
1864:Drivers/STM32H7xx_HAL_Driver/Src/stm32h7xx_hal_dma.c **** 
 437              		.loc 1 1864 0
 438 0070 D3B2     		uxtb	r3, r2
 439 0072 103B     		subs	r3, r3, #16
 440 0074 0D49     		ldr	r1, .L24+8
ARM GAS  /tmp/ccBO8Lmd.s 			page 42


 441 0076 A1FB0313 		umull	r1, r3, r1, r3
 442 007a 1B09     		lsrs	r3, r3, #4
 443              	.LVL15:
1868:Drivers/STM32H7xx_HAL_Driver/Src/stm32h7xx_hal_dma.c **** 
 444              		.loc 1 1868 0
 445 007c 03F00701 		and	r1, r3, #7
 446 0080 0B4C     		ldr	r4, .L24+12
 447 0082 615C     		ldrb	r1, [r4, r1]	@ zero_extendqisi2
 448 0084 C165     		str	r1, [r0, #92]
1870:Drivers/STM32H7xx_HAL_Driver/Src/stm32h7xx_hal_dma.c ****     {
 449              		.loc 1 1870 0
 450 0086 032B     		cmp	r3, #3
 451 0088 06D8     		bhi	.L23
1878:Drivers/STM32H7xx_HAL_Driver/Src/stm32h7xx_hal_dma.c ****     }
 452              		.loc 1 1878 0
 453 008a 0A4B     		ldr	r3, .L24+16
 454              	.LVL16:
 455 008c 1340     		ands	r3, r3, r2
 456 008e 8365     		str	r3, [r0, #88]
 457              	.L18:
 458              	.LBE2:
 459              		.loc 1 1888 0
 460 0090 806D     		ldr	r0, [r0, #88]
 461              	.LVL17:
 462 0092 5DF8044B 		ldr	r4, [sp], #4
 463              	.LCFI4:
 464              		.cfi_remember_state
 465              		.cfi_restore 4
 466              		.cfi_def_cfa_offset 0
 467 0096 7047     		bx	lr
 468              	.LVL18:
 469              	.L23:
 470              	.LCFI5:
 471              		.cfi_restore_state
 472              	.LBB3:
1873:Drivers/STM32H7xx_HAL_Driver/Src/stm32h7xx_hal_dma.c ****     }
 473              		.loc 1 1873 0
 474 0098 064B     		ldr	r3, .L24+16
 475              	.LVL19:
 476 009a 1340     		ands	r3, r3, r2
 477 009c 0433     		adds	r3, r3, #4
 478 009e 8365     		str	r3, [r0, #88]
 479 00a0 F6E7     		b	.L18
 480              	.L25:
 481 00a2 00BF     		.align	2
 482              	.L24:
 483 00a4 10000240 		.word	1073872912
 484 00a8 28000240 		.word	1073872936
 485 00ac ABAAAAAA 		.word	-1431655765
 486 00b0 00000000 		.word	.LANCHOR0
 487 00b4 00FCFFFF 		.word	-1024
 488              	.LBE3:
 489              		.cfi_endproc
 490              	.LFE157:
 492              		.section	.text.DMA_CheckFifoParam,"ax",%progbits
 493              		.align	1
 494              		.syntax unified
ARM GAS  /tmp/ccBO8Lmd.s 			page 43


 495              		.thumb
 496              		.thumb_func
 497              		.fpu fpv5-d16
 499              	DMA_CheckFifoParam:
 500              	.LFB158:
1889:Drivers/STM32H7xx_HAL_Driver/Src/stm32h7xx_hal_dma.c **** 
1890:Drivers/STM32H7xx_HAL_Driver/Src/stm32h7xx_hal_dma.c **** /**
1891:Drivers/STM32H7xx_HAL_Driver/Src/stm32h7xx_hal_dma.c ****   * @brief  Check compatibility between FIFO threshold level and size of the memory burst
1892:Drivers/STM32H7xx_HAL_Driver/Src/stm32h7xx_hal_dma.c ****   * @param  hdma:       pointer to a DMA_HandleTypeDef structure that contains
1893:Drivers/STM32H7xx_HAL_Driver/Src/stm32h7xx_hal_dma.c ****   *                     the configuration information for the specified DMA Stream.
1894:Drivers/STM32H7xx_HAL_Driver/Src/stm32h7xx_hal_dma.c ****   * @retval HAL status
1895:Drivers/STM32H7xx_HAL_Driver/Src/stm32h7xx_hal_dma.c ****   */
1896:Drivers/STM32H7xx_HAL_Driver/Src/stm32h7xx_hal_dma.c **** static HAL_StatusTypeDef DMA_CheckFifoParam(DMA_HandleTypeDef *hdma)
1897:Drivers/STM32H7xx_HAL_Driver/Src/stm32h7xx_hal_dma.c **** {
 501              		.loc 1 1897 0
 502              		.cfi_startproc
 503              		@ args = 0, pretend = 0, frame = 0
 504              		@ frame_needed = 0, uses_anonymous_args = 0
 505              		@ link register save eliminated.
 506              	.LVL20:
1898:Drivers/STM32H7xx_HAL_Driver/Src/stm32h7xx_hal_dma.c ****   HAL_StatusTypeDef status = HAL_OK;
1899:Drivers/STM32H7xx_HAL_Driver/Src/stm32h7xx_hal_dma.c **** 
1900:Drivers/STM32H7xx_HAL_Driver/Src/stm32h7xx_hal_dma.c ****   /* Memory Data size equal to Byte */
1901:Drivers/STM32H7xx_HAL_Driver/Src/stm32h7xx_hal_dma.c ****   if (hdma->Init.MemDataAlignment == DMA_MDATAALIGN_BYTE)
 507              		.loc 1 1901 0
 508 0000 8369     		ldr	r3, [r0, #24]
 509 0002 9BB9     		cbnz	r3, .L27
1902:Drivers/STM32H7xx_HAL_Driver/Src/stm32h7xx_hal_dma.c ****   {
1903:Drivers/STM32H7xx_HAL_Driver/Src/stm32h7xx_hal_dma.c ****     switch (hdma->Init.FIFOThreshold)
 510              		.loc 1 1903 0
 511 0004 836A     		ldr	r3, [r0, #40]
 512 0006 012B     		cmp	r3, #1
 513 0008 0AD0     		beq	.L29
 514 000a 1BB1     		cbz	r3, .L30
 515 000c 022B     		cmp	r3, #2
 516 000e 01D0     		beq	.L30
1898:Drivers/STM32H7xx_HAL_Driver/Src/stm32h7xx_hal_dma.c ****   HAL_StatusTypeDef status = HAL_OK;
 517              		.loc 1 1898 0
 518 0010 0020     		movs	r0, #0
 519              	.LVL21:
 520 0012 7047     		bx	lr
 521              	.LVL22:
 522              	.L30:
1904:Drivers/STM32H7xx_HAL_Driver/Src/stm32h7xx_hal_dma.c ****     {
1905:Drivers/STM32H7xx_HAL_Driver/Src/stm32h7xx_hal_dma.c ****       case DMA_FIFO_THRESHOLD_1QUARTERFULL:
1906:Drivers/STM32H7xx_HAL_Driver/Src/stm32h7xx_hal_dma.c ****       case DMA_FIFO_THRESHOLD_3QUARTERSFULL:
1907:Drivers/STM32H7xx_HAL_Driver/Src/stm32h7xx_hal_dma.c **** 
1908:Drivers/STM32H7xx_HAL_Driver/Src/stm32h7xx_hal_dma.c ****         if ((hdma->Init.MemBurst & DMA_SxCR_MBURST_1) == DMA_SxCR_MBURST_1)
 523              		.loc 1 1908 0
 524 0014 C36A     		ldr	r3, [r0, #44]
 525 0016 13F0807F 		tst	r3, #16777216
 526 001a 2ED1     		bne	.L39
1898:Drivers/STM32H7xx_HAL_Driver/Src/stm32h7xx_hal_dma.c **** 
 527              		.loc 1 1898 0
 528 001c 0020     		movs	r0, #0
 529              	.LVL23:
 530 001e 7047     		bx	lr
ARM GAS  /tmp/ccBO8Lmd.s 			page 44


 531              	.LVL24:
 532              	.L29:
1909:Drivers/STM32H7xx_HAL_Driver/Src/stm32h7xx_hal_dma.c ****         {
1910:Drivers/STM32H7xx_HAL_Driver/Src/stm32h7xx_hal_dma.c ****           status = HAL_ERROR;
1911:Drivers/STM32H7xx_HAL_Driver/Src/stm32h7xx_hal_dma.c ****         }
1912:Drivers/STM32H7xx_HAL_Driver/Src/stm32h7xx_hal_dma.c ****         break;
1913:Drivers/STM32H7xx_HAL_Driver/Src/stm32h7xx_hal_dma.c **** 
1914:Drivers/STM32H7xx_HAL_Driver/Src/stm32h7xx_hal_dma.c ****       case DMA_FIFO_THRESHOLD_HALFFULL:
1915:Drivers/STM32H7xx_HAL_Driver/Src/stm32h7xx_hal_dma.c ****         if (hdma->Init.MemBurst == DMA_MBURST_INC16)
 533              		.loc 1 1915 0
 534 0020 C36A     		ldr	r3, [r0, #44]
 535 0022 B3F1C07F 		cmp	r3, #25165824
 536 0026 2AD0     		beq	.L40
1898:Drivers/STM32H7xx_HAL_Driver/Src/stm32h7xx_hal_dma.c **** 
 537              		.loc 1 1898 0
 538 0028 0020     		movs	r0, #0
 539              	.LVL25:
 540 002a 7047     		bx	lr
 541              	.LVL26:
 542              	.L27:
1916:Drivers/STM32H7xx_HAL_Driver/Src/stm32h7xx_hal_dma.c ****         {
1917:Drivers/STM32H7xx_HAL_Driver/Src/stm32h7xx_hal_dma.c ****           status = HAL_ERROR;
1918:Drivers/STM32H7xx_HAL_Driver/Src/stm32h7xx_hal_dma.c ****         }
1919:Drivers/STM32H7xx_HAL_Driver/Src/stm32h7xx_hal_dma.c ****         break;
1920:Drivers/STM32H7xx_HAL_Driver/Src/stm32h7xx_hal_dma.c **** 
1921:Drivers/STM32H7xx_HAL_Driver/Src/stm32h7xx_hal_dma.c ****       case DMA_FIFO_THRESHOLD_FULL:
1922:Drivers/STM32H7xx_HAL_Driver/Src/stm32h7xx_hal_dma.c ****         break;
1923:Drivers/STM32H7xx_HAL_Driver/Src/stm32h7xx_hal_dma.c **** 
1924:Drivers/STM32H7xx_HAL_Driver/Src/stm32h7xx_hal_dma.c ****       default:
1925:Drivers/STM32H7xx_HAL_Driver/Src/stm32h7xx_hal_dma.c ****         break;
1926:Drivers/STM32H7xx_HAL_Driver/Src/stm32h7xx_hal_dma.c ****     }
1927:Drivers/STM32H7xx_HAL_Driver/Src/stm32h7xx_hal_dma.c ****   }
1928:Drivers/STM32H7xx_HAL_Driver/Src/stm32h7xx_hal_dma.c **** 
1929:Drivers/STM32H7xx_HAL_Driver/Src/stm32h7xx_hal_dma.c ****   /* Memory Data size equal to Half-Word */
1930:Drivers/STM32H7xx_HAL_Driver/Src/stm32h7xx_hal_dma.c ****   else if (hdma->Init.MemDataAlignment == DMA_MDATAALIGN_HALFWORD)
 543              		.loc 1 1930 0
 544 002c B3F5005F 		cmp	r3, #8192
 545 0030 06D0     		beq	.L47
1931:Drivers/STM32H7xx_HAL_Driver/Src/stm32h7xx_hal_dma.c ****   {
1932:Drivers/STM32H7xx_HAL_Driver/Src/stm32h7xx_hal_dma.c ****     switch (hdma->Init.FIFOThreshold)
1933:Drivers/STM32H7xx_HAL_Driver/Src/stm32h7xx_hal_dma.c ****     {
1934:Drivers/STM32H7xx_HAL_Driver/Src/stm32h7xx_hal_dma.c ****       case DMA_FIFO_THRESHOLD_1QUARTERFULL:
1935:Drivers/STM32H7xx_HAL_Driver/Src/stm32h7xx_hal_dma.c ****       case DMA_FIFO_THRESHOLD_3QUARTERSFULL:
1936:Drivers/STM32H7xx_HAL_Driver/Src/stm32h7xx_hal_dma.c ****         status = HAL_ERROR;
1937:Drivers/STM32H7xx_HAL_Driver/Src/stm32h7xx_hal_dma.c ****         break;
1938:Drivers/STM32H7xx_HAL_Driver/Src/stm32h7xx_hal_dma.c **** 
1939:Drivers/STM32H7xx_HAL_Driver/Src/stm32h7xx_hal_dma.c ****       case DMA_FIFO_THRESHOLD_HALFFULL:
1940:Drivers/STM32H7xx_HAL_Driver/Src/stm32h7xx_hal_dma.c ****         if ((hdma->Init.MemBurst & DMA_SxCR_MBURST_1) == DMA_SxCR_MBURST_1)
1941:Drivers/STM32H7xx_HAL_Driver/Src/stm32h7xx_hal_dma.c ****         {
1942:Drivers/STM32H7xx_HAL_Driver/Src/stm32h7xx_hal_dma.c ****           status = HAL_ERROR;
1943:Drivers/STM32H7xx_HAL_Driver/Src/stm32h7xx_hal_dma.c ****         }
1944:Drivers/STM32H7xx_HAL_Driver/Src/stm32h7xx_hal_dma.c ****         break;
1945:Drivers/STM32H7xx_HAL_Driver/Src/stm32h7xx_hal_dma.c **** 
1946:Drivers/STM32H7xx_HAL_Driver/Src/stm32h7xx_hal_dma.c ****       case DMA_FIFO_THRESHOLD_FULL:
1947:Drivers/STM32H7xx_HAL_Driver/Src/stm32h7xx_hal_dma.c ****         if (hdma->Init.MemBurst == DMA_MBURST_INC16)
1948:Drivers/STM32H7xx_HAL_Driver/Src/stm32h7xx_hal_dma.c ****         {
1949:Drivers/STM32H7xx_HAL_Driver/Src/stm32h7xx_hal_dma.c ****           status = HAL_ERROR;
ARM GAS  /tmp/ccBO8Lmd.s 			page 45


1950:Drivers/STM32H7xx_HAL_Driver/Src/stm32h7xx_hal_dma.c ****         }
1951:Drivers/STM32H7xx_HAL_Driver/Src/stm32h7xx_hal_dma.c ****         break;
1952:Drivers/STM32H7xx_HAL_Driver/Src/stm32h7xx_hal_dma.c **** 
1953:Drivers/STM32H7xx_HAL_Driver/Src/stm32h7xx_hal_dma.c ****       default:
1954:Drivers/STM32H7xx_HAL_Driver/Src/stm32h7xx_hal_dma.c ****         break;
1955:Drivers/STM32H7xx_HAL_Driver/Src/stm32h7xx_hal_dma.c ****     }
1956:Drivers/STM32H7xx_HAL_Driver/Src/stm32h7xx_hal_dma.c ****   }
1957:Drivers/STM32H7xx_HAL_Driver/Src/stm32h7xx_hal_dma.c **** 
1958:Drivers/STM32H7xx_HAL_Driver/Src/stm32h7xx_hal_dma.c ****   /* Memory Data size equal to Word */
1959:Drivers/STM32H7xx_HAL_Driver/Src/stm32h7xx_hal_dma.c ****   else
1960:Drivers/STM32H7xx_HAL_Driver/Src/stm32h7xx_hal_dma.c ****   {
1961:Drivers/STM32H7xx_HAL_Driver/Src/stm32h7xx_hal_dma.c ****     switch (hdma->Init.FIFOThreshold)
 546              		.loc 1 1961 0
 547 0032 836A     		ldr	r3, [r0, #40]
 548 0034 022B     		cmp	r3, #2
 549 0036 2AD9     		bls	.L44
 550 0038 032B     		cmp	r3, #3
 551 003a 16D0     		beq	.L37
1898:Drivers/STM32H7xx_HAL_Driver/Src/stm32h7xx_hal_dma.c **** 
 552              		.loc 1 1898 0
 553 003c 0020     		movs	r0, #0
 554              	.LVL27:
 555 003e 7047     		bx	lr
 556              	.LVL28:
 557              	.L47:
1932:Drivers/STM32H7xx_HAL_Driver/Src/stm32h7xx_hal_dma.c ****     {
 558              		.loc 1 1932 0
 559 0040 836A     		ldr	r3, [r0, #40]
 560 0042 032B     		cmp	r3, #3
 561 0044 03D8     		bhi	.L32
 562 0046 DFE803F0 		tbb	[pc, r3]
 563              	.L33:
 564 004a 1C       		.byte	(.L41-.L33)/2
 565 004b 04       		.byte	(.L34-.L33)/2
 566 004c 1C       		.byte	(.L41-.L33)/2
 567 004d 0A       		.byte	(.L35-.L33)/2
 568              		.p2align 1
 569              	.L32:
1898:Drivers/STM32H7xx_HAL_Driver/Src/stm32h7xx_hal_dma.c **** 
 570              		.loc 1 1898 0
 571 004e 0020     		movs	r0, #0
 572              	.LVL29:
 573 0050 7047     		bx	lr
 574              	.LVL30:
 575              	.L34:
1940:Drivers/STM32H7xx_HAL_Driver/Src/stm32h7xx_hal_dma.c ****         {
 576              		.loc 1 1940 0
 577 0052 C36A     		ldr	r3, [r0, #44]
 578 0054 13F0807F 		tst	r3, #16777216
 579 0058 15D1     		bne	.L42
1898:Drivers/STM32H7xx_HAL_Driver/Src/stm32h7xx_hal_dma.c **** 
 580              		.loc 1 1898 0
 581 005a 0020     		movs	r0, #0
 582              	.LVL31:
 583 005c 7047     		bx	lr
 584              	.LVL32:
 585              	.L35:
ARM GAS  /tmp/ccBO8Lmd.s 			page 46


1947:Drivers/STM32H7xx_HAL_Driver/Src/stm32h7xx_hal_dma.c ****         {
 586              		.loc 1 1947 0
 587 005e C36A     		ldr	r3, [r0, #44]
 588 0060 B3F1C07F 		cmp	r3, #25165824
 589 0064 11D0     		beq	.L43
1898:Drivers/STM32H7xx_HAL_Driver/Src/stm32h7xx_hal_dma.c **** 
 590              		.loc 1 1898 0
 591 0066 0020     		movs	r0, #0
 592              	.LVL33:
 593 0068 7047     		bx	lr
 594              	.LVL34:
 595              	.L37:
1962:Drivers/STM32H7xx_HAL_Driver/Src/stm32h7xx_hal_dma.c ****     {
1963:Drivers/STM32H7xx_HAL_Driver/Src/stm32h7xx_hal_dma.c ****       case DMA_FIFO_THRESHOLD_1QUARTERFULL:
1964:Drivers/STM32H7xx_HAL_Driver/Src/stm32h7xx_hal_dma.c ****       case DMA_FIFO_THRESHOLD_HALFFULL:
1965:Drivers/STM32H7xx_HAL_Driver/Src/stm32h7xx_hal_dma.c ****       case DMA_FIFO_THRESHOLD_3QUARTERSFULL:
1966:Drivers/STM32H7xx_HAL_Driver/Src/stm32h7xx_hal_dma.c ****         status = HAL_ERROR;
1967:Drivers/STM32H7xx_HAL_Driver/Src/stm32h7xx_hal_dma.c ****         break;
1968:Drivers/STM32H7xx_HAL_Driver/Src/stm32h7xx_hal_dma.c **** 
1969:Drivers/STM32H7xx_HAL_Driver/Src/stm32h7xx_hal_dma.c ****       case DMA_FIFO_THRESHOLD_FULL:
1970:Drivers/STM32H7xx_HAL_Driver/Src/stm32h7xx_hal_dma.c ****         if ((hdma->Init.MemBurst & DMA_SxCR_MBURST_1) == DMA_SxCR_MBURST_1)
 596              		.loc 1 1970 0
 597 006a C36A     		ldr	r3, [r0, #44]
 598 006c 13F0807F 		tst	r3, #16777216
 599 0070 01D0     		beq	.L48
1971:Drivers/STM32H7xx_HAL_Driver/Src/stm32h7xx_hal_dma.c ****         {
1972:Drivers/STM32H7xx_HAL_Driver/Src/stm32h7xx_hal_dma.c ****           status = HAL_ERROR;
 600              		.loc 1 1972 0
 601 0072 0120     		movs	r0, #1
 602              	.LVL35:
1973:Drivers/STM32H7xx_HAL_Driver/Src/stm32h7xx_hal_dma.c ****         }
1974:Drivers/STM32H7xx_HAL_Driver/Src/stm32h7xx_hal_dma.c ****     break;
1975:Drivers/STM32H7xx_HAL_Driver/Src/stm32h7xx_hal_dma.c **** 
1976:Drivers/STM32H7xx_HAL_Driver/Src/stm32h7xx_hal_dma.c ****       default:
1977:Drivers/STM32H7xx_HAL_Driver/Src/stm32h7xx_hal_dma.c ****         break;
1978:Drivers/STM32H7xx_HAL_Driver/Src/stm32h7xx_hal_dma.c ****     }
1979:Drivers/STM32H7xx_HAL_Driver/Src/stm32h7xx_hal_dma.c ****   }
1980:Drivers/STM32H7xx_HAL_Driver/Src/stm32h7xx_hal_dma.c **** 
1981:Drivers/STM32H7xx_HAL_Driver/Src/stm32h7xx_hal_dma.c ****   return status;
1982:Drivers/STM32H7xx_HAL_Driver/Src/stm32h7xx_hal_dma.c **** }
 603              		.loc 1 1982 0
 604 0074 7047     		bx	lr
 605              	.LVL36:
 606              	.L48:
1898:Drivers/STM32H7xx_HAL_Driver/Src/stm32h7xx_hal_dma.c **** 
 607              		.loc 1 1898 0
 608 0076 0020     		movs	r0, #0
 609              	.LVL37:
 610 0078 7047     		bx	lr
 611              	.LVL38:
 612              	.L39:
1910:Drivers/STM32H7xx_HAL_Driver/Src/stm32h7xx_hal_dma.c ****         }
 613              		.loc 1 1910 0
 614 007a 0120     		movs	r0, #1
 615              	.LVL39:
 616 007c 7047     		bx	lr
 617              	.LVL40:
ARM GAS  /tmp/ccBO8Lmd.s 			page 47


 618              	.L40:
1917:Drivers/STM32H7xx_HAL_Driver/Src/stm32h7xx_hal_dma.c ****         }
 619              		.loc 1 1917 0
 620 007e 0120     		movs	r0, #1
 621              	.LVL41:
 622 0080 7047     		bx	lr
 623              	.LVL42:
 624              	.L41:
1936:Drivers/STM32H7xx_HAL_Driver/Src/stm32h7xx_hal_dma.c ****         break;
 625              		.loc 1 1936 0
 626 0082 0120     		movs	r0, #1
 627              	.LVL43:
 628 0084 7047     		bx	lr
 629              	.LVL44:
 630              	.L42:
1942:Drivers/STM32H7xx_HAL_Driver/Src/stm32h7xx_hal_dma.c ****         }
 631              		.loc 1 1942 0
 632 0086 0120     		movs	r0, #1
 633              	.LVL45:
 634 0088 7047     		bx	lr
 635              	.LVL46:
 636              	.L43:
1949:Drivers/STM32H7xx_HAL_Driver/Src/stm32h7xx_hal_dma.c ****         }
 637              		.loc 1 1949 0
 638 008a 0120     		movs	r0, #1
 639              	.LVL47:
 640 008c 7047     		bx	lr
 641              	.LVL48:
 642              	.L44:
1966:Drivers/STM32H7xx_HAL_Driver/Src/stm32h7xx_hal_dma.c ****         break;
 643              		.loc 1 1966 0
 644 008e 0120     		movs	r0, #1
 645              	.LVL49:
 646 0090 7047     		bx	lr
 647              		.cfi_endproc
 648              	.LFE158:
 650              		.section	.text.DMA_CalcDMAMUXChannelBaseAndMask,"ax",%progbits
 651              		.align	1
 652              		.syntax unified
 653              		.thumb
 654              		.thumb_func
 655              		.fpu fpv5-d16
 657              	DMA_CalcDMAMUXChannelBaseAndMask:
 658              	.LFB159:
1983:Drivers/STM32H7xx_HAL_Driver/Src/stm32h7xx_hal_dma.c **** 
1984:Drivers/STM32H7xx_HAL_Driver/Src/stm32h7xx_hal_dma.c **** /**
1985:Drivers/STM32H7xx_HAL_Driver/Src/stm32h7xx_hal_dma.c ****   * @brief  Updates the DMA handle with the DMAMUX  channel and status mask depending on stream num
1986:Drivers/STM32H7xx_HAL_Driver/Src/stm32h7xx_hal_dma.c ****   * @param  hdma:       pointer to a DMA_HandleTypeDef structure that contains
1987:Drivers/STM32H7xx_HAL_Driver/Src/stm32h7xx_hal_dma.c ****   *                     the configuration information for the specified DMA Stream.
1988:Drivers/STM32H7xx_HAL_Driver/Src/stm32h7xx_hal_dma.c ****   * @retval HAL status
1989:Drivers/STM32H7xx_HAL_Driver/Src/stm32h7xx_hal_dma.c ****   */
1990:Drivers/STM32H7xx_HAL_Driver/Src/stm32h7xx_hal_dma.c **** static void DMA_CalcDMAMUXChannelBaseAndMask(DMA_HandleTypeDef *hdma)
1991:Drivers/STM32H7xx_HAL_Driver/Src/stm32h7xx_hal_dma.c **** {
 659              		.loc 1 1991 0
 660              		.cfi_startproc
 661              		@ args = 0, pretend = 0, frame = 0
 662              		@ frame_needed = 0, uses_anonymous_args = 0
ARM GAS  /tmp/ccBO8Lmd.s 			page 48


 663              		@ link register save eliminated.
 664              	.LVL50:
1992:Drivers/STM32H7xx_HAL_Driver/Src/stm32h7xx_hal_dma.c ****   uint32_t stream_number;
1993:Drivers/STM32H7xx_HAL_Driver/Src/stm32h7xx_hal_dma.c ****   uint32_t stream_baseaddress = (uint32_t)((uint32_t*)hdma->Instance);
 665              		.loc 1 1993 0
 666 0000 0368     		ldr	r3, [r0]
 667              	.LVL51:
1994:Drivers/STM32H7xx_HAL_Driver/Src/stm32h7xx_hal_dma.c **** 
1995:Drivers/STM32H7xx_HAL_Driver/Src/stm32h7xx_hal_dma.c ****   if(IS_BDMA_CHANNEL_DMAMUX_INSTANCE(hdma->Instance) != 0U)
 668              		.loc 1 1995 0
 669 0002 2249     		ldr	r1, .L54
 670 0004 224A     		ldr	r2, .L54+4
 671 0006 9342     		cmp	r3, r2
 672 0008 18BF     		it	ne
 673 000a 8B42     		cmpne	r3, r1
 674 000c 28D0     		beq	.L50
 675              		.loc 1 1995 0 is_stmt 0 discriminator 2
 676 000e 1432     		adds	r2, r2, #20
 677 0010 9342     		cmp	r3, r2
 678 0012 25D0     		beq	.L50
 679              		.loc 1 1995 0 discriminator 4
 680 0014 1432     		adds	r2, r2, #20
 681 0016 9342     		cmp	r3, r2
 682 0018 22D0     		beq	.L50
 683              		.loc 1 1995 0 discriminator 6
 684 001a 1432     		adds	r2, r2, #20
 685 001c 9342     		cmp	r3, r2
 686 001e 1FD0     		beq	.L50
 687              		.loc 1 1995 0 discriminator 8
 688 0020 1432     		adds	r2, r2, #20
 689 0022 9342     		cmp	r3, r2
 690 0024 1CD0     		beq	.L50
 691              		.loc 1 1995 0 discriminator 10
 692 0026 1432     		adds	r2, r2, #20
 693 0028 9342     		cmp	r3, r2
 694 002a 19D0     		beq	.L50
 695              		.loc 1 1995 0 discriminator 12
 696 002c 1432     		adds	r2, r2, #20
 697 002e 9342     		cmp	r3, r2
 698 0030 16D0     		beq	.L50
1996:Drivers/STM32H7xx_HAL_Driver/Src/stm32h7xx_hal_dma.c ****   {
1997:Drivers/STM32H7xx_HAL_Driver/Src/stm32h7xx_hal_dma.c ****     /* BDMA Channels are connected to DMAMUX2 channels */
1998:Drivers/STM32H7xx_HAL_Driver/Src/stm32h7xx_hal_dma.c ****     stream_number = (((uint32_t)((uint32_t*)hdma->Instance) & 0xFFU) - 8U) / 20U;
1999:Drivers/STM32H7xx_HAL_Driver/Src/stm32h7xx_hal_dma.c ****     hdma->DMAmuxChannel = (DMAMUX_Channel_TypeDef *)((uint32_t)(((uint32_t)DMAMUX2_Channel0) + (str
2000:Drivers/STM32H7xx_HAL_Driver/Src/stm32h7xx_hal_dma.c ****     hdma->DMAmuxChannelStatus = DMAMUX2_ChannelStatus;
2001:Drivers/STM32H7xx_HAL_Driver/Src/stm32h7xx_hal_dma.c ****     hdma->DMAmuxChannelStatusMask = 1UL << (stream_number & 0x1FU);
2002:Drivers/STM32H7xx_HAL_Driver/Src/stm32h7xx_hal_dma.c ****   }
2003:Drivers/STM32H7xx_HAL_Driver/Src/stm32h7xx_hal_dma.c ****   else
2004:Drivers/STM32H7xx_HAL_Driver/Src/stm32h7xx_hal_dma.c ****   {
2005:Drivers/STM32H7xx_HAL_Driver/Src/stm32h7xx_hal_dma.c ****     /* DMA1/DMA2 Streams are connected to DMAMUX1 channels */
2006:Drivers/STM32H7xx_HAL_Driver/Src/stm32h7xx_hal_dma.c ****     stream_number = (((uint32_t)((uint32_t*)hdma->Instance) & 0xFFU) - 16U) / 24U;
 699              		.loc 1 2006 0 is_stmt 1
 700 0032 DAB2     		uxtb	r2, r3
 701 0034 103A     		subs	r2, r2, #16
 702 0036 1749     		ldr	r1, .L54+8
 703 0038 A1FB0212 		umull	r1, r2, r1, r2
 704 003c 1209     		lsrs	r2, r2, #4
ARM GAS  /tmp/ccBO8Lmd.s 			page 49


 705              	.LVL52:
2007:Drivers/STM32H7xx_HAL_Driver/Src/stm32h7xx_hal_dma.c **** 
2008:Drivers/STM32H7xx_HAL_Driver/Src/stm32h7xx_hal_dma.c ****     if((stream_baseaddress <= ((uint32_t)DMA2_Stream7) ) && \
 706              		.loc 1 2008 0
 707 003e 1649     		ldr	r1, .L54+12
 708 0040 1944     		add	r1, r1, r3
 709 0042 A829     		cmp	r1, #168
 710 0044 1FD9     		bls	.L51
 711              	.L52:
2009:Drivers/STM32H7xx_HAL_Driver/Src/stm32h7xx_hal_dma.c ****        (stream_baseaddress >= ((uint32_t)DMA2_Stream0)))
2010:Drivers/STM32H7xx_HAL_Driver/Src/stm32h7xx_hal_dma.c ****     {
2011:Drivers/STM32H7xx_HAL_Driver/Src/stm32h7xx_hal_dma.c ****       stream_number += 8U;
2012:Drivers/STM32H7xx_HAL_Driver/Src/stm32h7xx_hal_dma.c ****     }
2013:Drivers/STM32H7xx_HAL_Driver/Src/stm32h7xx_hal_dma.c ****     hdma->DMAmuxChannel = (DMAMUX_Channel_TypeDef *)((uint32_t)(((uint32_t)DMAMUX1_Channel0) + (str
 712              		.loc 1 2013 0
 713 0046 154B     		ldr	r3, .L54+16
 714              	.LVL53:
 715 0048 1344     		add	r3, r3, r2
 716 004a 9B00     		lsls	r3, r3, #2
 717 004c 0366     		str	r3, [r0, #96]
2014:Drivers/STM32H7xx_HAL_Driver/Src/stm32h7xx_hal_dma.c ****     hdma->DMAmuxChannelStatus = DMAMUX1_ChannelStatus;
 718              		.loc 1 2014 0
 719 004e 144B     		ldr	r3, .L54+20
 720 0050 4366     		str	r3, [r0, #100]
2015:Drivers/STM32H7xx_HAL_Driver/Src/stm32h7xx_hal_dma.c ****     hdma->DMAmuxChannelStatusMask = 1UL << (stream_number & 0x1FU);
 721              		.loc 1 2015 0
 722 0052 02F01F02 		and	r2, r2, #31
 723              	.LVL54:
 724 0056 0123     		movs	r3, #1
 725 0058 03FA02F2 		lsl	r2, r3, r2
 726 005c 8266     		str	r2, [r0, #104]
2016:Drivers/STM32H7xx_HAL_Driver/Src/stm32h7xx_hal_dma.c ****   }
2017:Drivers/STM32H7xx_HAL_Driver/Src/stm32h7xx_hal_dma.c **** }
 727              		.loc 1 2017 0
 728 005e 7047     		bx	lr
 729              	.LVL55:
 730              	.L50:
1998:Drivers/STM32H7xx_HAL_Driver/Src/stm32h7xx_hal_dma.c ****     hdma->DMAmuxChannel = (DMAMUX_Channel_TypeDef *)((uint32_t)(((uint32_t)DMAMUX2_Channel0) + (str
 731              		.loc 1 1998 0
 732 0060 DBB2     		uxtb	r3, r3
 733              	.LVL56:
 734 0062 083B     		subs	r3, r3, #8
 735 0064 0F4A     		ldr	r2, .L54+24
 736 0066 A2FB0323 		umull	r2, r3, r2, r3
 737 006a 1B09     		lsrs	r3, r3, #4
 738              	.LVL57:
1999:Drivers/STM32H7xx_HAL_Driver/Src/stm32h7xx_hal_dma.c ****     hdma->DMAmuxChannelStatus = DMAMUX2_ChannelStatus;
 739              		.loc 1 1999 0
 740 006c 0E4A     		ldr	r2, .L54+28
 741 006e 1A44     		add	r2, r2, r3
 742 0070 9200     		lsls	r2, r2, #2
 743 0072 0266     		str	r2, [r0, #96]
2000:Drivers/STM32H7xx_HAL_Driver/Src/stm32h7xx_hal_dma.c ****     hdma->DMAmuxChannelStatusMask = 1UL << (stream_number & 0x1FU);
 744              		.loc 1 2000 0
 745 0074 0D4A     		ldr	r2, .L54+32
 746 0076 4266     		str	r2, [r0, #100]
2001:Drivers/STM32H7xx_HAL_Driver/Src/stm32h7xx_hal_dma.c ****   }
ARM GAS  /tmp/ccBO8Lmd.s 			page 50


 747              		.loc 1 2001 0
 748 0078 03F01F03 		and	r3, r3, #31
 749              	.LVL58:
 750 007c 0122     		movs	r2, #1
 751 007e 02FA03F3 		lsl	r3, r2, r3
 752 0082 8366     		str	r3, [r0, #104]
 753 0084 7047     		bx	lr
 754              	.LVL59:
 755              	.L51:
2011:Drivers/STM32H7xx_HAL_Driver/Src/stm32h7xx_hal_dma.c ****     }
 756              		.loc 1 2011 0
 757 0086 0832     		adds	r2, r2, #8
 758              	.LVL60:
 759 0088 DDE7     		b	.L52
 760              	.L55:
 761 008a 00BF     		.align	2
 762              	.L54:
 763 008c 08540258 		.word	1476547592
 764 0090 1C540258 		.word	1476547612
 765 0094 ABAAAAAA 		.word	-1431655765
 766 0098 F0FBFDBF 		.word	-1073873936
 767 009c 00820010 		.word	268468736
 768 00a0 80080240 		.word	1073875072
 769 00a4 CDCCCCCC 		.word	-858993459
 770 00a8 00960016 		.word	369137152
 771 00ac 80580258 		.word	1476548736
 772              		.cfi_endproc
 773              	.LFE159:
 775              		.section	.text.DMA_CalcDMAMUXRequestGenBaseAndMask,"ax",%progbits
 776              		.align	1
 777              		.syntax unified
 778              		.thumb
 779              		.thumb_func
 780              		.fpu fpv5-d16
 782              	DMA_CalcDMAMUXRequestGenBaseAndMask:
 783              	.LFB160:
2018:Drivers/STM32H7xx_HAL_Driver/Src/stm32h7xx_hal_dma.c **** 
2019:Drivers/STM32H7xx_HAL_Driver/Src/stm32h7xx_hal_dma.c **** /**
2020:Drivers/STM32H7xx_HAL_Driver/Src/stm32h7xx_hal_dma.c ****   * @brief  Updates the DMA handle with the DMAMUX  request generator params
2021:Drivers/STM32H7xx_HAL_Driver/Src/stm32h7xx_hal_dma.c ****   * @param  hdma:       pointer to a DMA_HandleTypeDef structure that contains
2022:Drivers/STM32H7xx_HAL_Driver/Src/stm32h7xx_hal_dma.c ****   *                     the configuration information for the specified DMA Stream.
2023:Drivers/STM32H7xx_HAL_Driver/Src/stm32h7xx_hal_dma.c ****   * @retval HAL status
2024:Drivers/STM32H7xx_HAL_Driver/Src/stm32h7xx_hal_dma.c ****   */
2025:Drivers/STM32H7xx_HAL_Driver/Src/stm32h7xx_hal_dma.c **** static void DMA_CalcDMAMUXRequestGenBaseAndMask(DMA_HandleTypeDef *hdma)
2026:Drivers/STM32H7xx_HAL_Driver/Src/stm32h7xx_hal_dma.c **** {
 784              		.loc 1 2026 0
 785              		.cfi_startproc
 786              		@ args = 0, pretend = 0, frame = 0
 787              		@ frame_needed = 0, uses_anonymous_args = 0
 788              		@ link register save eliminated.
 789              	.LVL61:
2027:Drivers/STM32H7xx_HAL_Driver/Src/stm32h7xx_hal_dma.c ****   uint32_t request =  hdma->Init.Request & DMAMUX_CxCR_DMAREQ_ID;
 790              		.loc 1 2027 0
 791 0000 0179     		ldrb	r1, [r0, #4]	@ zero_extendqisi2
 792              	.LVL62:
2028:Drivers/STM32H7xx_HAL_Driver/Src/stm32h7xx_hal_dma.c **** 
2029:Drivers/STM32H7xx_HAL_Driver/Src/stm32h7xx_hal_dma.c ****   if((request >= DMA_REQUEST_GENERATOR0) && (request <= DMA_REQUEST_GENERATOR7))
ARM GAS  /tmp/ccBO8Lmd.s 			page 51


 793              		.loc 1 2029 0
 794 0002 4A1E     		subs	r2, r1, #1
 795 0004 072A     		cmp	r2, #7
 796 0006 2CD8     		bhi	.L61
2026:Drivers/STM32H7xx_HAL_Driver/Src/stm32h7xx_hal_dma.c ****   uint32_t request =  hdma->Init.Request & DMAMUX_CxCR_DMAREQ_ID;
 797              		.loc 1 2026 0
 798 0008 30B4     		push	{r4, r5}
 799              	.LCFI6:
 800              		.cfi_def_cfa_offset 8
 801              		.cfi_offset 4, -8
 802              		.cfi_offset 5, -4
2030:Drivers/STM32H7xx_HAL_Driver/Src/stm32h7xx_hal_dma.c ****   {
2031:Drivers/STM32H7xx_HAL_Driver/Src/stm32h7xx_hal_dma.c ****     if(IS_BDMA_CHANNEL_DMAMUX_INSTANCE(hdma->Instance) != 0U)
 803              		.loc 1 2031 0
 804 000a 0368     		ldr	r3, [r0]
 805 000c 154D     		ldr	r5, .L64
 806 000e 164C     		ldr	r4, .L64+4
 807 0010 A342     		cmp	r3, r4
 808 0012 18BF     		it	ne
 809 0014 AB42     		cmpne	r3, r5
 810 0016 18D0     		beq	.L58
 811              		.loc 1 2031 0 is_stmt 0 discriminator 2
 812 0018 1434     		adds	r4, r4, #20
 813 001a A342     		cmp	r3, r4
 814 001c 15D0     		beq	.L58
 815              		.loc 1 2031 0 discriminator 4
 816 001e 1434     		adds	r4, r4, #20
 817 0020 A342     		cmp	r3, r4
 818 0022 12D0     		beq	.L58
 819              		.loc 1 2031 0 discriminator 6
 820 0024 1434     		adds	r4, r4, #20
 821 0026 A342     		cmp	r3, r4
 822 0028 0FD0     		beq	.L58
 823              		.loc 1 2031 0 discriminator 8
 824 002a 1434     		adds	r4, r4, #20
 825 002c A342     		cmp	r3, r4
 826 002e 0CD0     		beq	.L58
 827              		.loc 1 2031 0 discriminator 10
 828 0030 1434     		adds	r4, r4, #20
 829 0032 A342     		cmp	r3, r4
 830 0034 09D0     		beq	.L58
 831              		.loc 1 2031 0 discriminator 12
 832 0036 1434     		adds	r4, r4, #20
 833 0038 A342     		cmp	r3, r4
 834 003a 06D0     		beq	.L58
2032:Drivers/STM32H7xx_HAL_Driver/Src/stm32h7xx_hal_dma.c ****     {
2033:Drivers/STM32H7xx_HAL_Driver/Src/stm32h7xx_hal_dma.c ****       /* BDMA Channels are connected to DMAMUX2 request generator blocks */
2034:Drivers/STM32H7xx_HAL_Driver/Src/stm32h7xx_hal_dma.c ****       hdma->DMAmuxRequestGen = (DMAMUX_RequestGen_TypeDef *)((uint32_t)(((uint32_t)DMAMUX2_RequestG
2035:Drivers/STM32H7xx_HAL_Driver/Src/stm32h7xx_hal_dma.c **** 
2036:Drivers/STM32H7xx_HAL_Driver/Src/stm32h7xx_hal_dma.c ****       hdma->DMAmuxRequestGenStatus = DMAMUX2_RequestGenStatus;
2037:Drivers/STM32H7xx_HAL_Driver/Src/stm32h7xx_hal_dma.c ****     }
2038:Drivers/STM32H7xx_HAL_Driver/Src/stm32h7xx_hal_dma.c ****     else
2039:Drivers/STM32H7xx_HAL_Driver/Src/stm32h7xx_hal_dma.c ****     {
2040:Drivers/STM32H7xx_HAL_Driver/Src/stm32h7xx_hal_dma.c ****       /* DMA1 and DMA2 Streams use DMAMUX1 request generator blocks */
2041:Drivers/STM32H7xx_HAL_Driver/Src/stm32h7xx_hal_dma.c ****       hdma->DMAmuxRequestGen = (DMAMUX_RequestGen_TypeDef *)((uint32_t)(((uint32_t)DMAMUX1_RequestG
 835              		.loc 1 2041 0 is_stmt 1
 836 003c 0B4B     		ldr	r3, .L64+8
ARM GAS  /tmp/ccBO8Lmd.s 			page 52


 837 003e 0B44     		add	r3, r3, r1
 838 0040 9B00     		lsls	r3, r3, #2
 839 0042 C366     		str	r3, [r0, #108]
2042:Drivers/STM32H7xx_HAL_Driver/Src/stm32h7xx_hal_dma.c **** 
2043:Drivers/STM32H7xx_HAL_Driver/Src/stm32h7xx_hal_dma.c ****       hdma->DMAmuxRequestGenStatus = DMAMUX1_RequestGenStatus;
 840              		.loc 1 2043 0
 841 0044 0A4B     		ldr	r3, .L64+12
 842 0046 0367     		str	r3, [r0, #112]
 843 0048 05E0     		b	.L59
 844              	.L58:
2034:Drivers/STM32H7xx_HAL_Driver/Src/stm32h7xx_hal_dma.c **** 
 845              		.loc 1 2034 0
 846 004a 0A4B     		ldr	r3, .L64+16
 847 004c 0B44     		add	r3, r3, r1
 848 004e 9B00     		lsls	r3, r3, #2
 849 0050 C366     		str	r3, [r0, #108]
2036:Drivers/STM32H7xx_HAL_Driver/Src/stm32h7xx_hal_dma.c ****     }
 850              		.loc 1 2036 0
 851 0052 094B     		ldr	r3, .L64+20
 852 0054 0367     		str	r3, [r0, #112]
 853              	.L59:
2044:Drivers/STM32H7xx_HAL_Driver/Src/stm32h7xx_hal_dma.c ****     }
2045:Drivers/STM32H7xx_HAL_Driver/Src/stm32h7xx_hal_dma.c **** 
2046:Drivers/STM32H7xx_HAL_Driver/Src/stm32h7xx_hal_dma.c ****     hdma->DMAmuxRequestGenStatusMask = 1UL << (request - 1U);
 854              		.loc 1 2046 0
 855 0056 0123     		movs	r3, #1
 856 0058 03FA02F2 		lsl	r2, r3, r2
 857 005c 4267     		str	r2, [r0, #116]
2047:Drivers/STM32H7xx_HAL_Driver/Src/stm32h7xx_hal_dma.c ****   }
2048:Drivers/STM32H7xx_HAL_Driver/Src/stm32h7xx_hal_dma.c **** }
 858              		.loc 1 2048 0
 859 005e 30BC     		pop	{r4, r5}
 860              	.LCFI7:
 861              		.cfi_restore 5
 862              		.cfi_restore 4
 863              		.cfi_def_cfa_offset 0
 864 0060 7047     		bx	lr
 865              	.L61:
 866 0062 7047     		bx	lr
 867              	.L65:
 868              		.align	2
 869              	.L64:
 870 0064 08540258 		.word	1476547592
 871 0068 1C540258 		.word	1476547612
 872 006c 3F820010 		.word	268468799
 873 0070 40090240 		.word	1073875264
 874 0074 3F960016 		.word	369137215
 875 0078 40590258 		.word	1476548928
 876              		.cfi_endproc
 877              	.LFE160:
 879              		.section	.text.HAL_DMA_Init,"ax",%progbits
 880              		.align	1
 881              		.global	HAL_DMA_Init
 882              		.syntax unified
 883              		.thumb
 884              		.thumb_func
 885              		.fpu fpv5-d16
ARM GAS  /tmp/ccBO8Lmd.s 			page 53


 887              	HAL_DMA_Init:
 888              	.LFB144:
 217:Drivers/STM32H7xx_HAL_Driver/Src/stm32h7xx_hal_dma.c ****   uint32_t registerValue;
 889              		.loc 1 217 0
 890              		.cfi_startproc
 891              		@ args = 0, pretend = 0, frame = 0
 892              		@ frame_needed = 0, uses_anonymous_args = 0
 893              	.LVL63:
 894 0000 70B5     		push	{r4, r5, r6, lr}
 895              	.LCFI8:
 896              		.cfi_def_cfa_offset 16
 897              		.cfi_offset 4, -16
 898              		.cfi_offset 5, -12
 899              		.cfi_offset 6, -8
 900              		.cfi_offset 14, -4
 901 0002 0446     		mov	r4, r0
 219:Drivers/STM32H7xx_HAL_Driver/Src/stm32h7xx_hal_dma.c ****   DMA_Base_Registers *regs_dma;
 902              		.loc 1 219 0
 903 0004 FFF7FEFF 		bl	HAL_GetTick
 904              	.LVL64:
 224:Drivers/STM32H7xx_HAL_Driver/Src/stm32h7xx_hal_dma.c ****   {
 905              		.loc 1 224 0
 906 0008 002C     		cmp	r4, #0
 907 000a 00F0BD81 		beq	.L86
 908 000e 0546     		mov	r5, r0
 239:Drivers/STM32H7xx_HAL_Driver/Src/stm32h7xx_hal_dma.c ****   {
 909              		.loc 1 239 0
 910 0010 2368     		ldr	r3, [r4]
 911 0012 B749     		ldr	r1, .L97
 912 0014 B74A     		ldr	r2, .L97+4
 913 0016 9342     		cmp	r3, r2
 914 0018 18BF     		it	ne
 915 001a 8B42     		cmpne	r3, r1
 916 001c 0CBF     		ite	eq
 917 001e 0122     		moveq	r2, #1
 918 0020 0022     		movne	r2, #0
 919 0022 50D0     		beq	.L68
 239:Drivers/STM32H7xx_HAL_Driver/Src/stm32h7xx_hal_dma.c ****   {
 920              		.loc 1 239 0 is_stmt 0 discriminator 2
 921 0024 3031     		adds	r1, r1, #48
 922 0026 8B42     		cmp	r3, r1
 923 0028 4DD0     		beq	.L68
 239:Drivers/STM32H7xx_HAL_Driver/Src/stm32h7xx_hal_dma.c ****   {
 924              		.loc 1 239 0 discriminator 4
 925 002a 1831     		adds	r1, r1, #24
 926 002c 8B42     		cmp	r3, r1
 927 002e 4AD0     		beq	.L68
 239:Drivers/STM32H7xx_HAL_Driver/Src/stm32h7xx_hal_dma.c ****   {
 928              		.loc 1 239 0 discriminator 6
 929 0030 1831     		adds	r1, r1, #24
 930 0032 8B42     		cmp	r3, r1
 931 0034 47D0     		beq	.L68
 239:Drivers/STM32H7xx_HAL_Driver/Src/stm32h7xx_hal_dma.c ****   {
 932              		.loc 1 239 0 discriminator 8
 933 0036 1831     		adds	r1, r1, #24
 934 0038 8B42     		cmp	r3, r1
 935 003a 44D0     		beq	.L68
ARM GAS  /tmp/ccBO8Lmd.s 			page 54


 239:Drivers/STM32H7xx_HAL_Driver/Src/stm32h7xx_hal_dma.c ****   {
 936              		.loc 1 239 0 discriminator 10
 937 003c 1831     		adds	r1, r1, #24
 938 003e 8B42     		cmp	r3, r1
 939 0040 41D0     		beq	.L68
 239:Drivers/STM32H7xx_HAL_Driver/Src/stm32h7xx_hal_dma.c ****   {
 940              		.loc 1 239 0 discriminator 12
 941 0042 1831     		adds	r1, r1, #24
 942 0044 8B42     		cmp	r3, r1
 943 0046 3ED0     		beq	.L68
 239:Drivers/STM32H7xx_HAL_Driver/Src/stm32h7xx_hal_dma.c ****   {
 944              		.loc 1 239 0 discriminator 14
 945 0048 01F55671 		add	r1, r1, #856
 946 004c 8B42     		cmp	r3, r1
 947 004e 3AD0     		beq	.L68
 239:Drivers/STM32H7xx_HAL_Driver/Src/stm32h7xx_hal_dma.c ****   {
 948              		.loc 1 239 0 discriminator 16
 949 0050 1831     		adds	r1, r1, #24
 950 0052 8B42     		cmp	r3, r1
 951 0054 37D0     		beq	.L68
 239:Drivers/STM32H7xx_HAL_Driver/Src/stm32h7xx_hal_dma.c ****   {
 952              		.loc 1 239 0 discriminator 18
 953 0056 1831     		adds	r1, r1, #24
 954 0058 8B42     		cmp	r3, r1
 955 005a 34D0     		beq	.L68
 239:Drivers/STM32H7xx_HAL_Driver/Src/stm32h7xx_hal_dma.c ****   {
 956              		.loc 1 239 0 discriminator 20
 957 005c 1831     		adds	r1, r1, #24
 958 005e 8B42     		cmp	r3, r1
 959 0060 31D0     		beq	.L68
 239:Drivers/STM32H7xx_HAL_Driver/Src/stm32h7xx_hal_dma.c ****   {
 960              		.loc 1 239 0 discriminator 22
 961 0062 1831     		adds	r1, r1, #24
 962 0064 8B42     		cmp	r3, r1
 963 0066 2ED0     		beq	.L68
 239:Drivers/STM32H7xx_HAL_Driver/Src/stm32h7xx_hal_dma.c ****   {
 964              		.loc 1 239 0 discriminator 24
 965 0068 1831     		adds	r1, r1, #24
 966 006a 8B42     		cmp	r3, r1
 967 006c 2BD0     		beq	.L68
 239:Drivers/STM32H7xx_HAL_Driver/Src/stm32h7xx_hal_dma.c ****   {
 968              		.loc 1 239 0 discriminator 26
 969 006e 1831     		adds	r1, r1, #24
 970 0070 8B42     		cmp	r3, r1
 971 0072 28D0     		beq	.L68
 239:Drivers/STM32H7xx_HAL_Driver/Src/stm32h7xx_hal_dma.c ****   {
 972              		.loc 1 239 0 discriminator 28
 973 0074 1831     		adds	r1, r1, #24
 974 0076 8B42     		cmp	r3, r1
 975 0078 25D0     		beq	.L68
 358:Drivers/STM32H7xx_HAL_Driver/Src/stm32h7xx_hal_dma.c ****   {
 976              		.loc 1 358 0 is_stmt 1
 977 007a 9F49     		ldr	r1, .L97+8
 978 007c 9F4A     		ldr	r2, .L97+12
 979 007e 9342     		cmp	r3, r2
 980 0080 18BF     		it	ne
 981 0082 8B42     		cmpne	r3, r1
ARM GAS  /tmp/ccBO8Lmd.s 			page 55


 982 0084 00F02481 		beq	.L69
 358:Drivers/STM32H7xx_HAL_Driver/Src/stm32h7xx_hal_dma.c ****   {
 983              		.loc 1 358 0 is_stmt 0 discriminator 2
 984 0088 9D4A     		ldr	r2, .L97+16
 985 008a 9342     		cmp	r3, r2
 986 008c 00F02081 		beq	.L69
 358:Drivers/STM32H7xx_HAL_Driver/Src/stm32h7xx_hal_dma.c ****   {
 987              		.loc 1 358 0 discriminator 4
 988 0090 1432     		adds	r2, r2, #20
 989 0092 9342     		cmp	r3, r2
 990 0094 00F01C81 		beq	.L69
 358:Drivers/STM32H7xx_HAL_Driver/Src/stm32h7xx_hal_dma.c ****   {
 991              		.loc 1 358 0 discriminator 6
 992 0098 1432     		adds	r2, r2, #20
 993 009a 9342     		cmp	r3, r2
 994 009c 00F01881 		beq	.L69
 358:Drivers/STM32H7xx_HAL_Driver/Src/stm32h7xx_hal_dma.c ****   {
 995              		.loc 1 358 0 discriminator 8
 996 00a0 1432     		adds	r2, r2, #20
 997 00a2 9342     		cmp	r3, r2
 998 00a4 00F01481 		beq	.L69
 358:Drivers/STM32H7xx_HAL_Driver/Src/stm32h7xx_hal_dma.c ****   {
 999              		.loc 1 358 0 discriminator 10
 1000 00a8 1432     		adds	r2, r2, #20
 1001 00aa 9342     		cmp	r3, r2
 1002 00ac 00F01081 		beq	.L69
 358:Drivers/STM32H7xx_HAL_Driver/Src/stm32h7xx_hal_dma.c ****   {
 1003              		.loc 1 358 0 discriminator 12
 1004 00b0 1432     		adds	r2, r2, #20
 1005 00b2 9342     		cmp	r3, r2
 1006 00b4 00F00C81 		beq	.L69
 405:Drivers/STM32H7xx_HAL_Driver/Src/stm32h7xx_hal_dma.c ****     hdma->State     = HAL_DMA_STATE_ERROR;
 1007              		.loc 1 405 0 is_stmt 1
 1008 00b8 4023     		movs	r3, #64
 1009 00ba 6365     		str	r3, [r4, #84]
 406:Drivers/STM32H7xx_HAL_Driver/Src/stm32h7xx_hal_dma.c **** 
 1010              		.loc 1 406 0
 1011 00bc 0323     		movs	r3, #3
 1012 00be 84F83530 		strb	r3, [r4, #53]
 408:Drivers/STM32H7xx_HAL_Driver/Src/stm32h7xx_hal_dma.c ****   }
 1013              		.loc 1 408 0
 1014 00c2 0120     		movs	r0, #1
 1015              	.LVL65:
 1016 00c4 4AE0     		b	.L67
 1017              	.LVL66:
 1018              	.L68:
 253:Drivers/STM32H7xx_HAL_Driver/Src/stm32h7xx_hal_dma.c **** 
 1019              		.loc 1 253 0
 1020 00c6 0221     		movs	r1, #2
 1021 00c8 84F83510 		strb	r1, [r4, #53]
 256:Drivers/STM32H7xx_HAL_Driver/Src/stm32h7xx_hal_dma.c **** 
 1022              		.loc 1 256 0
 1023 00cc 0021     		movs	r1, #0
 1024 00ce 84F83410 		strb	r1, [r4, #52]
 259:Drivers/STM32H7xx_HAL_Driver/Src/stm32h7xx_hal_dma.c **** 
 1025              		.loc 1 259 0
 1026 00d2 7ABB     		cbnz	r2, .L71
ARM GAS  /tmp/ccBO8Lmd.s 			page 56


 259:Drivers/STM32H7xx_HAL_Driver/Src/stm32h7xx_hal_dma.c **** 
 1027              		.loc 1 259 0 is_stmt 0 discriminator 2
 1028 00d4 8B4A     		ldr	r2, .L97+20
 1029 00d6 9342     		cmp	r3, r2
 1030 00d8 2CD0     		beq	.L71
 259:Drivers/STM32H7xx_HAL_Driver/Src/stm32h7xx_hal_dma.c **** 
 1031              		.loc 1 259 0 discriminator 4
 1032 00da 1832     		adds	r2, r2, #24
 1033 00dc 9342     		cmp	r3, r2
 1034 00de 29D0     		beq	.L71
 259:Drivers/STM32H7xx_HAL_Driver/Src/stm32h7xx_hal_dma.c **** 
 1035              		.loc 1 259 0 discriminator 6
 1036 00e0 1832     		adds	r2, r2, #24
 1037 00e2 9342     		cmp	r3, r2
 1038 00e4 26D0     		beq	.L71
 259:Drivers/STM32H7xx_HAL_Driver/Src/stm32h7xx_hal_dma.c **** 
 1039              		.loc 1 259 0 discriminator 8
 1040 00e6 1832     		adds	r2, r2, #24
 1041 00e8 9342     		cmp	r3, r2
 1042 00ea 23D0     		beq	.L71
 259:Drivers/STM32H7xx_HAL_Driver/Src/stm32h7xx_hal_dma.c **** 
 1043              		.loc 1 259 0 discriminator 10
 1044 00ec 1832     		adds	r2, r2, #24
 1045 00ee 9342     		cmp	r3, r2
 1046 00f0 20D0     		beq	.L71
 259:Drivers/STM32H7xx_HAL_Driver/Src/stm32h7xx_hal_dma.c **** 
 1047              		.loc 1 259 0 discriminator 12
 1048 00f2 1832     		adds	r2, r2, #24
 1049 00f4 9342     		cmp	r3, r2
 1050 00f6 1DD0     		beq	.L71
 259:Drivers/STM32H7xx_HAL_Driver/Src/stm32h7xx_hal_dma.c **** 
 1051              		.loc 1 259 0 discriminator 14
 1052 00f8 02F55672 		add	r2, r2, #856
 1053 00fc 9342     		cmp	r3, r2
 1054 00fe 19D0     		beq	.L71
 259:Drivers/STM32H7xx_HAL_Driver/Src/stm32h7xx_hal_dma.c **** 
 1055              		.loc 1 259 0 discriminator 16
 1056 0100 1832     		adds	r2, r2, #24
 1057 0102 9342     		cmp	r3, r2
 1058 0104 16D0     		beq	.L71
 259:Drivers/STM32H7xx_HAL_Driver/Src/stm32h7xx_hal_dma.c **** 
 1059              		.loc 1 259 0 discriminator 18
 1060 0106 1832     		adds	r2, r2, #24
 1061 0108 9342     		cmp	r3, r2
 1062 010a 13D0     		beq	.L71
 259:Drivers/STM32H7xx_HAL_Driver/Src/stm32h7xx_hal_dma.c **** 
 1063              		.loc 1 259 0 discriminator 20
 1064 010c 1832     		adds	r2, r2, #24
 1065 010e 9342     		cmp	r3, r2
 1066 0110 10D0     		beq	.L71
 259:Drivers/STM32H7xx_HAL_Driver/Src/stm32h7xx_hal_dma.c **** 
 1067              		.loc 1 259 0 discriminator 22
 1068 0112 1832     		adds	r2, r2, #24
 1069 0114 9342     		cmp	r3, r2
 1070 0116 0DD0     		beq	.L71
 259:Drivers/STM32H7xx_HAL_Driver/Src/stm32h7xx_hal_dma.c **** 
 1071              		.loc 1 259 0 discriminator 24
ARM GAS  /tmp/ccBO8Lmd.s 			page 57


 1072 0118 1832     		adds	r2, r2, #24
 1073 011a 9342     		cmp	r3, r2
 1074 011c 0AD0     		beq	.L71
 259:Drivers/STM32H7xx_HAL_Driver/Src/stm32h7xx_hal_dma.c **** 
 1075              		.loc 1 259 0 discriminator 26
 1076 011e 1832     		adds	r2, r2, #24
 1077 0120 9342     		cmp	r3, r2
 1078 0122 07D0     		beq	.L71
 259:Drivers/STM32H7xx_HAL_Driver/Src/stm32h7xx_hal_dma.c **** 
 1079              		.loc 1 259 0 discriminator 28
 1080 0124 1832     		adds	r2, r2, #24
 1081 0126 9342     		cmp	r3, r2
 1082 0128 04D0     		beq	.L71
 259:Drivers/STM32H7xx_HAL_Driver/Src/stm32h7xx_hal_dma.c **** 
 1083              		.loc 1 259 0 discriminator 30
 1084 012a 1A68     		ldr	r2, [r3]
 1085 012c 22F00102 		bic	r2, r2, #1
 1086 0130 1A60     		str	r2, [r3]
 1087 0132 03E0     		b	.L74
 1088              	.L71:
 259:Drivers/STM32H7xx_HAL_Driver/Src/stm32h7xx_hal_dma.c **** 
 1089              		.loc 1 259 0 discriminator 29
 1090 0134 1A68     		ldr	r2, [r3]
 1091 0136 22F00102 		bic	r2, r2, #1
 1092 013a 1A60     		str	r2, [r3]
 1093              	.LVL67:
 1094              	.L74:
 262:Drivers/STM32H7xx_HAL_Driver/Src/stm32h7xx_hal_dma.c ****     {
 1095              		.loc 1 262 0 is_stmt 1
 1096 013c 2368     		ldr	r3, [r4]
 1097 013e 1A68     		ldr	r2, [r3]
 1098 0140 12F0010F 		tst	r2, #1
 1099 0144 0BD0     		beq	.L91
 265:Drivers/STM32H7xx_HAL_Driver/Src/stm32h7xx_hal_dma.c ****       {
 1100              		.loc 1 265 0
 1101 0146 FFF7FEFF 		bl	HAL_GetTick
 1102              	.LVL68:
 1103 014a 401B     		subs	r0, r0, r5
 1104 014c 0528     		cmp	r0, #5
 1105 014e F5D9     		bls	.L74
 268:Drivers/STM32H7xx_HAL_Driver/Src/stm32h7xx_hal_dma.c **** 
 1106              		.loc 1 268 0
 1107 0150 2023     		movs	r3, #32
 1108 0152 6365     		str	r3, [r4, #84]
 271:Drivers/STM32H7xx_HAL_Driver/Src/stm32h7xx_hal_dma.c **** 
 1109              		.loc 1 271 0
 1110 0154 0323     		movs	r3, #3
 1111 0156 84F83530 		strb	r3, [r4, #53]
 273:Drivers/STM32H7xx_HAL_Driver/Src/stm32h7xx_hal_dma.c ****       }
 1112              		.loc 1 273 0
 1113 015a 0120     		movs	r0, #1
 1114              	.LVL69:
 1115              	.L67:
 460:Drivers/STM32H7xx_HAL_Driver/Src/stm32h7xx_hal_dma.c **** 
 1116              		.loc 1 460 0
 1117 015c 70BD     		pop	{r4, r5, r6, pc}
 1118              	.LVL70:
ARM GAS  /tmp/ccBO8Lmd.s 			page 58


 1119              	.L91:
 278:Drivers/STM32H7xx_HAL_Driver/Src/stm32h7xx_hal_dma.c **** 
 1120              		.loc 1 278 0
 1121 015e 1A68     		ldr	r2, [r3]
 1122              	.LVL71:
 281:Drivers/STM32H7xx_HAL_Driver/Src/stm32h7xx_hal_dma.c ****                         DMA_SxCR_PL    | DMA_SxCR_MSIZE  | DMA_SxCR_PSIZE  | \
 1123              		.loc 1 281 0
 1124 0160 6948     		ldr	r0, .L97+24
 1125 0162 1040     		ands	r0, r0, r2
 1126              	.LVL72:
 287:Drivers/STM32H7xx_HAL_Driver/Src/stm32h7xx_hal_dma.c ****             hdma->Init.PeriphInc           | hdma->Init.MemInc           |
 1127              		.loc 1 287 0
 1128 0164 A168     		ldr	r1, [r4, #8]
 288:Drivers/STM32H7xx_HAL_Driver/Src/stm32h7xx_hal_dma.c ****             hdma->Init.PeriphDataAlignment | hdma->Init.MemDataAlignment |
 1129              		.loc 1 288 0
 1130 0166 E268     		ldr	r2, [r4, #12]
 287:Drivers/STM32H7xx_HAL_Driver/Src/stm32h7xx_hal_dma.c ****             hdma->Init.PeriphInc           | hdma->Init.MemInc           |
 1131              		.loc 1 287 0
 1132 0168 0A43     		orrs	r2, r2, r1
 288:Drivers/STM32H7xx_HAL_Driver/Src/stm32h7xx_hal_dma.c ****             hdma->Init.PeriphDataAlignment | hdma->Init.MemDataAlignment |
 1133              		.loc 1 288 0
 1134 016a 2169     		ldr	r1, [r4, #16]
 1135 016c 0A43     		orrs	r2, r2, r1
 289:Drivers/STM32H7xx_HAL_Driver/Src/stm32h7xx_hal_dma.c ****             hdma->Init.Mode                | hdma->Init.Priority;
 1136              		.loc 1 289 0
 1137 016e 6169     		ldr	r1, [r4, #20]
 288:Drivers/STM32H7xx_HAL_Driver/Src/stm32h7xx_hal_dma.c ****             hdma->Init.PeriphDataAlignment | hdma->Init.MemDataAlignment |
 1138              		.loc 1 288 0
 1139 0170 0A43     		orrs	r2, r2, r1
 289:Drivers/STM32H7xx_HAL_Driver/Src/stm32h7xx_hal_dma.c ****             hdma->Init.Mode                | hdma->Init.Priority;
 1140              		.loc 1 289 0
 1141 0172 A169     		ldr	r1, [r4, #24]
 1142 0174 0A43     		orrs	r2, r2, r1
 290:Drivers/STM32H7xx_HAL_Driver/Src/stm32h7xx_hal_dma.c **** 
 1143              		.loc 1 290 0
 1144 0176 E169     		ldr	r1, [r4, #28]
 289:Drivers/STM32H7xx_HAL_Driver/Src/stm32h7xx_hal_dma.c ****             hdma->Init.Mode                | hdma->Init.Priority;
 1145              		.loc 1 289 0
 1146 0178 0A43     		orrs	r2, r2, r1
 290:Drivers/STM32H7xx_HAL_Driver/Src/stm32h7xx_hal_dma.c **** 
 1147              		.loc 1 290 0
 1148 017a 216A     		ldr	r1, [r4, #32]
 1149 017c 0A43     		orrs	r2, r2, r1
 287:Drivers/STM32H7xx_HAL_Driver/Src/stm32h7xx_hal_dma.c ****             hdma->Init.PeriphInc           | hdma->Init.MemInc           |
 1150              		.loc 1 287 0
 1151 017e 0243     		orrs	r2, r2, r0
 1152              	.LVL73:
 293:Drivers/STM32H7xx_HAL_Driver/Src/stm32h7xx_hal_dma.c ****     {
 1153              		.loc 1 293 0
 1154 0180 616A     		ldr	r1, [r4, #36]
 1155 0182 0429     		cmp	r1, #4
 1156 0184 00F09980 		beq	.L92
 1157              	.L76:
 302:Drivers/STM32H7xx_HAL_Driver/Src/stm32h7xx_hal_dma.c ****     {
 1158              		.loc 1 302 0
 1159 0188 6049     		ldr	r1, .L97+28
 1160 018a 0868     		ldr	r0, [r1]
ARM GAS  /tmp/ccBO8Lmd.s 			page 59


 1161 018c 6049     		ldr	r1, .L97+32
 1162 018e 0140     		ands	r1, r1, r0
 1163 0190 B1F1005F 		cmp	r1, #536870912
 1164 0194 11D3     		bcc	.L77
 305:Drivers/STM32H7xx_HAL_Driver/Src/stm32h7xx_hal_dma.c ****       {
 1165              		.loc 1 305 0
 1166 0196 6168     		ldr	r1, [r4, #4]
 1167 0198 A1F12905 		sub	r5, r1, #41
 1168              	.LVL74:
 1169 019c A1F13F00 		sub	r0, r1, #63
 1170 01a0 0328     		cmp	r0, #3
 1171 01a2 88BF     		it	hi
 1172 01a4 052D     		cmphi	r5, #5
 1173 01a6 06D9     		bls	.L78
 305:Drivers/STM32H7xx_HAL_Driver/Src/stm32h7xx_hal_dma.c ****       {
 1174              		.loc 1 305 0 is_stmt 0 discriminator 2
 1175 01a8 A1F14700 		sub	r0, r1, #71
 1176 01ac 0128     		cmp	r0, #1
 1177 01ae 02D9     		bls	.L78
 305:Drivers/STM32H7xx_HAL_Driver/Src/stm32h7xx_hal_dma.c ****       {
 1178              		.loc 1 305 0 discriminator 4
 1179 01b0 4F39     		subs	r1, r1, #79
 1180 01b2 0329     		cmp	r1, #3
 1181 01b4 01D8     		bhi	.L77
 1182              	.L78:
 307:Drivers/STM32H7xx_HAL_Driver/Src/stm32h7xx_hal_dma.c ****       }
 1183              		.loc 1 307 0 is_stmt 1
 1184 01b6 42F48012 		orr	r2, r2, #1048576
 1185              	.LVL75:
 1186              	.L77:
 314:Drivers/STM32H7xx_HAL_Driver/Src/stm32h7xx_hal_dma.c **** 
 1187              		.loc 1 314 0
 1188 01ba 1A60     		str	r2, [r3]
 317:Drivers/STM32H7xx_HAL_Driver/Src/stm32h7xx_hal_dma.c **** 
 1189              		.loc 1 317 0
 1190 01bc 2668     		ldr	r6, [r4]
 1191 01be 7569     		ldr	r5, [r6, #20]
 1192              	.LVL76:
 320:Drivers/STM32H7xx_HAL_Driver/Src/stm32h7xx_hal_dma.c **** 
 1193              		.loc 1 320 0
 1194 01c0 25F00705 		bic	r5, r5, #7
 1195              	.LVL77:
 323:Drivers/STM32H7xx_HAL_Driver/Src/stm32h7xx_hal_dma.c **** 
 1196              		.loc 1 323 0
 1197 01c4 636A     		ldr	r3, [r4, #36]
 1198 01c6 1D43     		orrs	r5, r5, r3
 1199              	.LVL78:
 326:Drivers/STM32H7xx_HAL_Driver/Src/stm32h7xx_hal_dma.c ****     {
 1200              		.loc 1 326 0
 1201 01c8 042B     		cmp	r3, #4
 1202 01ca 08D1     		bne	.L79
 329:Drivers/STM32H7xx_HAL_Driver/Src/stm32h7xx_hal_dma.c **** 
 1203              		.loc 1 329 0
 1204 01cc A36A     		ldr	r3, [r4, #40]
 1205 01ce 1D43     		orrs	r5, r5, r3
 1206              	.LVL79:
 333:Drivers/STM32H7xx_HAL_Driver/Src/stm32h7xx_hal_dma.c ****       {
ARM GAS  /tmp/ccBO8Lmd.s 			page 60


 1207              		.loc 1 333 0
 1208 01d0 E36A     		ldr	r3, [r4, #44]
 1209 01d2 23B1     		cbz	r3, .L79
 335:Drivers/STM32H7xx_HAL_Driver/Src/stm32h7xx_hal_dma.c ****         {
 1210              		.loc 1 335 0
 1211 01d4 2046     		mov	r0, r4
 1212 01d6 FFF7FEFF 		bl	DMA_CheckFifoParam
 1213              	.LVL80:
 1214 01da 0028     		cmp	r0, #0
 1215 01dc 72D1     		bne	.L93
 1216              	.L79:
 349:Drivers/STM32H7xx_HAL_Driver/Src/stm32h7xx_hal_dma.c **** 
 1217              		.loc 1 349 0
 1218 01de 7561     		str	r5, [r6, #20]
 353:Drivers/STM32H7xx_HAL_Driver/Src/stm32h7xx_hal_dma.c **** 
 1219              		.loc 1 353 0
 1220 01e0 2046     		mov	r0, r4
 1221 01e2 FFF7FEFF 		bl	DMA_CalcBaseAndBitshift
 1222              	.LVL81:
 356:Drivers/STM32H7xx_HAL_Driver/Src/stm32h7xx_hal_dma.c ****   }
 1223              		.loc 1 356 0
 1224 01e6 E36D     		ldr	r3, [r4, #92]
 1225 01e8 03F01F02 		and	r2, r3, #31
 1226 01ec 3F23     		movs	r3, #63
 1227 01ee 9340     		lsls	r3, r3, r2
 1228 01f0 8360     		str	r3, [r0, #8]
 1229              	.LVL82:
 1230              	.L80:
 411:Drivers/STM32H7xx_HAL_Driver/Src/stm32h7xx_hal_dma.c ****   {
 1231              		.loc 1 411 0
 1232 01f2 2368     		ldr	r3, [r4]
 1233 01f4 3E49     		ldr	r1, .L97
 1234 01f6 3F4A     		ldr	r2, .L97+4
 1235 01f8 9342     		cmp	r3, r2
 1236 01fa 18BF     		it	ne
 1237 01fc 8B42     		cmpne	r3, r1
 1238 01fe 42D0     		beq	.L82
 411:Drivers/STM32H7xx_HAL_Driver/Src/stm32h7xx_hal_dma.c ****   {
 1239              		.loc 1 411 0 is_stmt 0 discriminator 2
 1240 0200 1832     		adds	r2, r2, #24
 1241 0202 9342     		cmp	r3, r2
 1242 0204 3FD0     		beq	.L82
 411:Drivers/STM32H7xx_HAL_Driver/Src/stm32h7xx_hal_dma.c ****   {
 1243              		.loc 1 411 0 discriminator 4
 1244 0206 1832     		adds	r2, r2, #24
 1245 0208 9342     		cmp	r3, r2
 1246 020a 3CD0     		beq	.L82
 411:Drivers/STM32H7xx_HAL_Driver/Src/stm32h7xx_hal_dma.c ****   {
 1247              		.loc 1 411 0 discriminator 6
 1248 020c 1832     		adds	r2, r2, #24
 1249 020e 9342     		cmp	r3, r2
 1250 0210 39D0     		beq	.L82
 411:Drivers/STM32H7xx_HAL_Driver/Src/stm32h7xx_hal_dma.c ****   {
 1251              		.loc 1 411 0 discriminator 8
 1252 0212 1832     		adds	r2, r2, #24
 1253 0214 9342     		cmp	r3, r2
 1254 0216 36D0     		beq	.L82
ARM GAS  /tmp/ccBO8Lmd.s 			page 61


 411:Drivers/STM32H7xx_HAL_Driver/Src/stm32h7xx_hal_dma.c ****   {
 1255              		.loc 1 411 0 discriminator 10
 1256 0218 1832     		adds	r2, r2, #24
 1257 021a 9342     		cmp	r3, r2
 1258 021c 33D0     		beq	.L82
 411:Drivers/STM32H7xx_HAL_Driver/Src/stm32h7xx_hal_dma.c ****   {
 1259              		.loc 1 411 0 discriminator 12
 1260 021e 1832     		adds	r2, r2, #24
 1261 0220 9342     		cmp	r3, r2
 1262 0222 30D0     		beq	.L82
 411:Drivers/STM32H7xx_HAL_Driver/Src/stm32h7xx_hal_dma.c ****   {
 1263              		.loc 1 411 0 discriminator 14
 1264 0224 02F55672 		add	r2, r2, #856
 1265 0228 9342     		cmp	r3, r2
 1266 022a 2CD0     		beq	.L82
 411:Drivers/STM32H7xx_HAL_Driver/Src/stm32h7xx_hal_dma.c ****   {
 1267              		.loc 1 411 0 discriminator 16
 1268 022c 1832     		adds	r2, r2, #24
 1269 022e 9342     		cmp	r3, r2
 1270 0230 29D0     		beq	.L82
 411:Drivers/STM32H7xx_HAL_Driver/Src/stm32h7xx_hal_dma.c ****   {
 1271              		.loc 1 411 0 discriminator 18
 1272 0232 1832     		adds	r2, r2, #24
 1273 0234 9342     		cmp	r3, r2
 1274 0236 26D0     		beq	.L82
 411:Drivers/STM32H7xx_HAL_Driver/Src/stm32h7xx_hal_dma.c ****   {
 1275              		.loc 1 411 0 discriminator 20
 1276 0238 1832     		adds	r2, r2, #24
 1277 023a 9342     		cmp	r3, r2
 1278 023c 23D0     		beq	.L82
 411:Drivers/STM32H7xx_HAL_Driver/Src/stm32h7xx_hal_dma.c ****   {
 1279              		.loc 1 411 0 discriminator 22
 1280 023e 1832     		adds	r2, r2, #24
 1281 0240 9342     		cmp	r3, r2
 1282 0242 20D0     		beq	.L82
 411:Drivers/STM32H7xx_HAL_Driver/Src/stm32h7xx_hal_dma.c ****   {
 1283              		.loc 1 411 0 discriminator 24
 1284 0244 1832     		adds	r2, r2, #24
 1285 0246 9342     		cmp	r3, r2
 1286 0248 1DD0     		beq	.L82
 411:Drivers/STM32H7xx_HAL_Driver/Src/stm32h7xx_hal_dma.c ****   {
 1287              		.loc 1 411 0 discriminator 26
 1288 024a 1832     		adds	r2, r2, #24
 1289 024c 9342     		cmp	r3, r2
 1290 024e 1AD0     		beq	.L82
 411:Drivers/STM32H7xx_HAL_Driver/Src/stm32h7xx_hal_dma.c ****   {
 1291              		.loc 1 411 0 discriminator 28
 1292 0250 1832     		adds	r2, r2, #24
 1293 0252 9342     		cmp	r3, r2
 1294 0254 17D0     		beq	.L82
 411:Drivers/STM32H7xx_HAL_Driver/Src/stm32h7xx_hal_dma.c ****   {
 1295              		.loc 1 411 0 discriminator 30
 1296 0256 284A     		ldr	r2, .L97+8
 1297 0258 9342     		cmp	r3, r2
 1298 025a 14D0     		beq	.L82
 411:Drivers/STM32H7xx_HAL_Driver/Src/stm32h7xx_hal_dma.c ****   {
 1299              		.loc 1 411 0 discriminator 32
ARM GAS  /tmp/ccBO8Lmd.s 			page 62


 1300 025c 1432     		adds	r2, r2, #20
 1301 025e 9342     		cmp	r3, r2
 1302 0260 11D0     		beq	.L82
 411:Drivers/STM32H7xx_HAL_Driver/Src/stm32h7xx_hal_dma.c ****   {
 1303              		.loc 1 411 0 discriminator 34
 1304 0262 1432     		adds	r2, r2, #20
 1305 0264 9342     		cmp	r3, r2
 1306 0266 0ED0     		beq	.L82
 411:Drivers/STM32H7xx_HAL_Driver/Src/stm32h7xx_hal_dma.c ****   {
 1307              		.loc 1 411 0 discriminator 36
 1308 0268 1432     		adds	r2, r2, #20
 1309 026a 9342     		cmp	r3, r2
 1310 026c 0BD0     		beq	.L82
 411:Drivers/STM32H7xx_HAL_Driver/Src/stm32h7xx_hal_dma.c ****   {
 1311              		.loc 1 411 0 discriminator 38
 1312 026e 1432     		adds	r2, r2, #20
 1313 0270 9342     		cmp	r3, r2
 1314 0272 08D0     		beq	.L82
 411:Drivers/STM32H7xx_HAL_Driver/Src/stm32h7xx_hal_dma.c ****   {
 1315              		.loc 1 411 0 discriminator 40
 1316 0274 1432     		adds	r2, r2, #20
 1317 0276 9342     		cmp	r3, r2
 1318 0278 05D0     		beq	.L82
 411:Drivers/STM32H7xx_HAL_Driver/Src/stm32h7xx_hal_dma.c ****   {
 1319              		.loc 1 411 0 discriminator 42
 1320 027a 1432     		adds	r2, r2, #20
 1321 027c 9342     		cmp	r3, r2
 1322 027e 02D0     		beq	.L82
 411:Drivers/STM32H7xx_HAL_Driver/Src/stm32h7xx_hal_dma.c ****   {
 1323              		.loc 1 411 0 discriminator 44
 1324 0280 1432     		adds	r2, r2, #20
 1325 0282 9342     		cmp	r3, r2
 1326 0284 13D1     		bne	.L83
 1327              	.L82:
 416:Drivers/STM32H7xx_HAL_Driver/Src/stm32h7xx_hal_dma.c **** 
 1328              		.loc 1 416 0 is_stmt 1
 1329 0286 2046     		mov	r0, r4
 1330 0288 FFF7FEFF 		bl	DMA_CalcDMAMUXChannelBaseAndMask
 1331              	.LVL83:
 418:Drivers/STM32H7xx_HAL_Driver/Src/stm32h7xx_hal_dma.c ****     {
 1332              		.loc 1 418 0
 1333 028c A368     		ldr	r3, [r4, #8]
 1334 028e 802B     		cmp	r3, #128
 1335 0290 6DD0     		beq	.L94
 1336              	.L84:
 425:Drivers/STM32H7xx_HAL_Driver/Src/stm32h7xx_hal_dma.c **** 
 1337              		.loc 1 425 0
 1338 0292 236E     		ldr	r3, [r4, #96]
 1339 0294 2279     		ldrb	r2, [r4, #4]	@ zero_extendqisi2
 1340 0296 1A60     		str	r2, [r3]
 428:Drivers/STM32H7xx_HAL_Driver/Src/stm32h7xx_hal_dma.c **** 
 1341              		.loc 1 428 0
 1342 0298 636E     		ldr	r3, [r4, #100]
 1343 029a A26E     		ldr	r2, [r4, #104]
 1344 029c 5A60     		str	r2, [r3, #4]
 433:Drivers/STM32H7xx_HAL_Driver/Src/stm32h7xx_hal_dma.c ****     {
 1345              		.loc 1 433 0
ARM GAS  /tmp/ccBO8Lmd.s 			page 63


 1346 029e 6368     		ldr	r3, [r4, #4]
 1347 02a0 013B     		subs	r3, r3, #1
 1348 02a2 072B     		cmp	r3, #7
 1349 02a4 66D9     		bls	.L95
 447:Drivers/STM32H7xx_HAL_Driver/Src/stm32h7xx_hal_dma.c ****       hdma->DMAmuxRequestGenStatus = 0U;
 1350              		.loc 1 447 0
 1351 02a6 0023     		movs	r3, #0
 1352 02a8 E366     		str	r3, [r4, #108]
 448:Drivers/STM32H7xx_HAL_Driver/Src/stm32h7xx_hal_dma.c ****       hdma->DMAmuxRequestGenStatusMask = 0U;
 1353              		.loc 1 448 0
 1354 02aa 2367     		str	r3, [r4, #112]
 449:Drivers/STM32H7xx_HAL_Driver/Src/stm32h7xx_hal_dma.c ****     }
 1355              		.loc 1 449 0
 1356 02ac 6367     		str	r3, [r4, #116]
 1357              	.L83:
 454:Drivers/STM32H7xx_HAL_Driver/Src/stm32h7xx_hal_dma.c **** 
 1358              		.loc 1 454 0
 1359 02ae 0020     		movs	r0, #0
 1360 02b0 6065     		str	r0, [r4, #84]
 457:Drivers/STM32H7xx_HAL_Driver/Src/stm32h7xx_hal_dma.c **** 
 1361              		.loc 1 457 0
 1362 02b2 0123     		movs	r3, #1
 1363 02b4 84F83530 		strb	r3, [r4, #53]
 459:Drivers/STM32H7xx_HAL_Driver/Src/stm32h7xx_hal_dma.c **** }
 1364              		.loc 1 459 0
 1365 02b8 50E7     		b	.L67
 1366              	.LVL84:
 1367              	.L92:
 296:Drivers/STM32H7xx_HAL_Driver/Src/stm32h7xx_hal_dma.c ****     }
 1368              		.loc 1 296 0
 1369 02ba E16A     		ldr	r1, [r4, #44]
 1370 02bc 206B     		ldr	r0, [r4, #48]
 1371 02be 0143     		orrs	r1, r1, r0
 1372 02c0 0A43     		orrs	r2, r2, r1
 1373              	.LVL85:
 1374 02c2 61E7     		b	.L76
 1375              	.LVL86:
 1376              	.L93:
 338:Drivers/STM32H7xx_HAL_Driver/Src/stm32h7xx_hal_dma.c **** 
 1377              		.loc 1 338 0
 1378 02c4 4023     		movs	r3, #64
 1379 02c6 6365     		str	r3, [r4, #84]
 341:Drivers/STM32H7xx_HAL_Driver/Src/stm32h7xx_hal_dma.c **** 
 1380              		.loc 1 341 0
 1381 02c8 0120     		movs	r0, #1
 1382 02ca 84F83500 		strb	r0, [r4, #53]
 343:Drivers/STM32H7xx_HAL_Driver/Src/stm32h7xx_hal_dma.c ****         }
 1383              		.loc 1 343 0
 1384 02ce 45E7     		b	.L67
 1385              	.LVL87:
 1386              	.L69:
 367:Drivers/STM32H7xx_HAL_Driver/Src/stm32h7xx_hal_dma.c **** 
 1387              		.loc 1 367 0
 1388 02d0 0222     		movs	r2, #2
 1389 02d2 84F83520 		strb	r2, [r4, #53]
 370:Drivers/STM32H7xx_HAL_Driver/Src/stm32h7xx_hal_dma.c **** 
 1390              		.loc 1 370 0
ARM GAS  /tmp/ccBO8Lmd.s 			page 64


 1391 02d6 0022     		movs	r2, #0
 1392 02d8 84F83420 		strb	r2, [r4, #52]
 373:Drivers/STM32H7xx_HAL_Driver/Src/stm32h7xx_hal_dma.c **** 
 1393              		.loc 1 373 0
 1394 02dc 1A68     		ldr	r2, [r3]
 1395              	.LVL88:
 376:Drivers/STM32H7xx_HAL_Driver/Src/stm32h7xx_hal_dma.c ****                                   BDMA_CCR_MINC  | BDMA_CCR_PINC    | BDMA_CCR_CIRC   | \
 1396              		.loc 1 376 0
 1397 02de 0D49     		ldr	r1, .L97+36
 1398 02e0 1140     		ands	r1, r1, r2
 1399              	.LVL89:
 382:Drivers/STM32H7xx_HAL_Driver/Src/stm32h7xx_hal_dma.c ****                       DMA_TO_BDMA_PERIPHERAL_INC(hdma->Init.PeriphInc)       |
 1400              		.loc 1 382 0
 1401 02e2 A268     		ldr	r2, [r4, #8]
 1402 02e4 402A     		cmp	r2, #64
 1403 02e6 1AD0     		beq	.L87
 382:Drivers/STM32H7xx_HAL_Driver/Src/stm32h7xx_hal_dma.c ****                       DMA_TO_BDMA_PERIPHERAL_INC(hdma->Init.PeriphInc)       |
 1404              		.loc 1 382 0 is_stmt 0 discriminator 1
 1405 02e8 802A     		cmp	r2, #128
 1406 02ea 15D0     		beq	.L96
 382:Drivers/STM32H7xx_HAL_Driver/Src/stm32h7xx_hal_dma.c ****                       DMA_TO_BDMA_PERIPHERAL_INC(hdma->Init.PeriphInc)       |
 1407              		.loc 1 382 0
 1408 02ec 0022     		movs	r2, #0
 1409 02ee 17E0     		b	.L81
 1410              	.L98:
 1411              		.align	2
 1412              	.L97:
 1413 02f0 10000240 		.word	1073872912
 1414 02f4 28000240 		.word	1073872936
 1415 02f8 08540258 		.word	1476547592
 1416 02fc 1C540258 		.word	1476547612
 1417 0300 30540258 		.word	1476547632
 1418 0304 40000240 		.word	1073872960
 1419 0308 3F8010FE 		.word	-32473025
 1420 030c 0010005C 		.word	1543507968
 1421 0310 0000FFFF 		.word	-65536
 1422 0314 0F00FEFF 		.word	-131057
 1423              	.L96:
 1424 0318 4FF48042 		mov	r2, #16384
 1425 031c 00E0     		b	.L81
 1426              	.L87:
 1427 031e 1022     		movs	r2, #16
 1428              	.L81:
 383:Drivers/STM32H7xx_HAL_Driver/Src/stm32h7xx_hal_dma.c ****                       DMA_TO_BDMA_MEMORY_INC(hdma->Init.MemInc)              |
 1429              		.loc 1 383 0 is_stmt 1
 1430 0320 E068     		ldr	r0, [r4, #12]
 1431              	.LVL90:
 382:Drivers/STM32H7xx_HAL_Driver/Src/stm32h7xx_hal_dma.c ****                       DMA_TO_BDMA_PERIPHERAL_INC(hdma->Init.PeriphInc)       |
 1432              		.loc 1 382 0
 1433 0322 42EAD002 		orr	r2, r2, r0, lsr #3
 384:Drivers/STM32H7xx_HAL_Driver/Src/stm32h7xx_hal_dma.c ****                       DMA_TO_BDMA_PDATA_SIZE(hdma->Init.PeriphDataAlignment) |
 1434              		.loc 1 384 0
 1435 0326 2069     		ldr	r0, [r4, #16]
 383:Drivers/STM32H7xx_HAL_Driver/Src/stm32h7xx_hal_dma.c ****                       DMA_TO_BDMA_MEMORY_INC(hdma->Init.MemInc)              |
 1436              		.loc 1 383 0
 1437 0328 42EAD002 		orr	r2, r2, r0, lsr #3
 385:Drivers/STM32H7xx_HAL_Driver/Src/stm32h7xx_hal_dma.c ****                       DMA_TO_BDMA_MDATA_SIZE(hdma->Init.MemDataAlignment)    |
ARM GAS  /tmp/ccBO8Lmd.s 			page 65


 1438              		.loc 1 385 0
 1439 032c 6069     		ldr	r0, [r4, #20]
 384:Drivers/STM32H7xx_HAL_Driver/Src/stm32h7xx_hal_dma.c ****                       DMA_TO_BDMA_PDATA_SIZE(hdma->Init.PeriphDataAlignment) |
 1440              		.loc 1 384 0
 1441 032e 42EAD002 		orr	r2, r2, r0, lsr #3
 386:Drivers/STM32H7xx_HAL_Driver/Src/stm32h7xx_hal_dma.c ****                       DMA_TO_BDMA_MODE(hdma->Init.Mode)                      |
 1442              		.loc 1 386 0
 1443 0332 A069     		ldr	r0, [r4, #24]
 385:Drivers/STM32H7xx_HAL_Driver/Src/stm32h7xx_hal_dma.c ****                       DMA_TO_BDMA_MDATA_SIZE(hdma->Init.MemDataAlignment)    |
 1444              		.loc 1 385 0
 1445 0334 42EAD002 		orr	r2, r2, r0, lsr #3
 387:Drivers/STM32H7xx_HAL_Driver/Src/stm32h7xx_hal_dma.c ****                       DMA_TO_BDMA_PRIORITY(hdma->Init.Priority);
 1446              		.loc 1 387 0
 1447 0338 E069     		ldr	r0, [r4, #28]
 386:Drivers/STM32H7xx_HAL_Driver/Src/stm32h7xx_hal_dma.c ****                       DMA_TO_BDMA_MODE(hdma->Init.Mode)                      |
 1448              		.loc 1 386 0
 1449 033a 42EAD002 		orr	r2, r2, r0, lsr #3
 388:Drivers/STM32H7xx_HAL_Driver/Src/stm32h7xx_hal_dma.c **** 
 1450              		.loc 1 388 0
 1451 033e 206A     		ldr	r0, [r4, #32]
 387:Drivers/STM32H7xx_HAL_Driver/Src/stm32h7xx_hal_dma.c ****                       DMA_TO_BDMA_PRIORITY(hdma->Init.Priority);
 1452              		.loc 1 387 0
 1453 0340 42EA1012 		orr	r2, r2, r0, lsr #4
 382:Drivers/STM32H7xx_HAL_Driver/Src/stm32h7xx_hal_dma.c ****                       DMA_TO_BDMA_PERIPHERAL_INC(hdma->Init.PeriphInc)       |
 1454              		.loc 1 382 0
 1455 0344 0A43     		orrs	r2, r2, r1
 1456              	.LVL91:
 391:Drivers/STM32H7xx_HAL_Driver/Src/stm32h7xx_hal_dma.c **** 
 1457              		.loc 1 391 0
 1458 0346 1A60     		str	r2, [r3]
 394:Drivers/STM32H7xx_HAL_Driver/Src/stm32h7xx_hal_dma.c **** 
 1459              		.loc 1 394 0
 1460 0348 2268     		ldr	r2, [r4]
 1461              	.LVL92:
 1462 034a 104B     		ldr	r3, .L99
 1463              	.LVL93:
 1464 034c 1344     		add	r3, r3, r2
 1465 034e 104A     		ldr	r2, .L99+4
 1466 0350 A2FB0323 		umull	r2, r3, r2, r3
 1467 0354 1B09     		lsrs	r3, r3, #4
 1468 0356 9B00     		lsls	r3, r3, #2
 1469 0358 E365     		str	r3, [r4, #92]
 398:Drivers/STM32H7xx_HAL_Driver/Src/stm32h7xx_hal_dma.c **** 
 1470              		.loc 1 398 0
 1471 035a 2046     		mov	r0, r4
 1472 035c FFF7FEFF 		bl	DMA_CalcBaseAndBitshift
 1473              	.LVL94:
 401:Drivers/STM32H7xx_HAL_Driver/Src/stm32h7xx_hal_dma.c ****   }
 1474              		.loc 1 401 0
 1475 0360 E36D     		ldr	r3, [r4, #92]
 1476 0362 03F01F02 		and	r2, r3, #31
 1477 0366 0123     		movs	r3, #1
 1478 0368 9340     		lsls	r3, r3, r2
 1479 036a 4360     		str	r3, [r0, #4]
 1480 036c 41E7     		b	.L80
 1481              	.LVL95:
 1482              	.L94:
ARM GAS  /tmp/ccBO8Lmd.s 			page 66


 421:Drivers/STM32H7xx_HAL_Driver/Src/stm32h7xx_hal_dma.c ****     }
 1483              		.loc 1 421 0
 1484 036e 0023     		movs	r3, #0
 1485 0370 6360     		str	r3, [r4, #4]
 1486 0372 8EE7     		b	.L84
 1487              	.L95:
 437:Drivers/STM32H7xx_HAL_Driver/Src/stm32h7xx_hal_dma.c **** 
 1488              		.loc 1 437 0
 1489 0374 2046     		mov	r0, r4
 1490 0376 FFF7FEFF 		bl	DMA_CalcDMAMUXRequestGenBaseAndMask
 1491              	.LVL96:
 440:Drivers/STM32H7xx_HAL_Driver/Src/stm32h7xx_hal_dma.c **** 
 1492              		.loc 1 440 0
 1493 037a E36E     		ldr	r3, [r4, #108]
 1494 037c 0022     		movs	r2, #0
 1495 037e 1A60     		str	r2, [r3]
 443:Drivers/STM32H7xx_HAL_Driver/Src/stm32h7xx_hal_dma.c ****     }
 1496              		.loc 1 443 0
 1497 0380 236F     		ldr	r3, [r4, #112]
 1498 0382 626F     		ldr	r2, [r4, #116]
 1499 0384 5A60     		str	r2, [r3, #4]
 1500 0386 92E7     		b	.L83
 1501              	.LVL97:
 1502              	.L86:
 226:Drivers/STM32H7xx_HAL_Driver/Src/stm32h7xx_hal_dma.c ****   }
 1503              		.loc 1 226 0
 1504 0388 0120     		movs	r0, #1
 1505              	.LVL98:
 1506 038a E7E6     		b	.L67
 1507              	.L100:
 1508              		.align	2
 1509              	.L99:
 1510 038c F8ABFDA7 		.word	-1476547592
 1511 0390 CDCCCCCC 		.word	-858993459
 1512              		.cfi_endproc
 1513              	.LFE144:
 1515              		.section	.text.HAL_DMA_DeInit,"ax",%progbits
 1516              		.align	1
 1517              		.global	HAL_DMA_DeInit
 1518              		.syntax unified
 1519              		.thumb
 1520              		.thumb_func
 1521              		.fpu fpv5-d16
 1523              	HAL_DMA_DeInit:
 1524              	.LFB145:
 469:Drivers/STM32H7xx_HAL_Driver/Src/stm32h7xx_hal_dma.c ****   DMA_Base_Registers *regs_dma;
 1525              		.loc 1 469 0
 1526              		.cfi_startproc
 1527              		@ args = 0, pretend = 0, frame = 0
 1528              		@ frame_needed = 0, uses_anonymous_args = 0
 1529              	.LVL99:
 474:Drivers/STM32H7xx_HAL_Driver/Src/stm32h7xx_hal_dma.c ****   {
 1530              		.loc 1 474 0
 1531 0000 0028     		cmp	r0, #0
 1532 0002 00F0DB80 		beq	.L112
 469:Drivers/STM32H7xx_HAL_Driver/Src/stm32h7xx_hal_dma.c ****   DMA_Base_Registers *regs_dma;
 1533              		.loc 1 469 0
ARM GAS  /tmp/ccBO8Lmd.s 			page 67


 1534 0006 10B5     		push	{r4, lr}
 1535              	.LCFI9:
 1536              		.cfi_def_cfa_offset 8
 1537              		.cfi_offset 4, -8
 1538              		.cfi_offset 14, -4
 1539 0008 0446     		mov	r4, r0
 480:Drivers/STM32H7xx_HAL_Driver/Src/stm32h7xx_hal_dma.c **** 
 1540              		.loc 1 480 0
 1541 000a 0368     		ldr	r3, [r0]
 1542 000c 6C49     		ldr	r1, .L120
 1543 000e 6D4A     		ldr	r2, .L120+4
 1544 0010 9342     		cmp	r3, r2
 1545 0012 18BF     		it	ne
 1546 0014 8B42     		cmpne	r3, r1
 1547 0016 2FD0     		beq	.L103
 480:Drivers/STM32H7xx_HAL_Driver/Src/stm32h7xx_hal_dma.c **** 
 1548              		.loc 1 480 0 is_stmt 0 discriminator 2
 1549 0018 1832     		adds	r2, r2, #24
 1550 001a 9342     		cmp	r3, r2
 1551 001c 2CD0     		beq	.L103
 480:Drivers/STM32H7xx_HAL_Driver/Src/stm32h7xx_hal_dma.c **** 
 1552              		.loc 1 480 0 discriminator 4
 1553 001e 1832     		adds	r2, r2, #24
 1554 0020 9342     		cmp	r3, r2
 1555 0022 29D0     		beq	.L103
 480:Drivers/STM32H7xx_HAL_Driver/Src/stm32h7xx_hal_dma.c **** 
 1556              		.loc 1 480 0 discriminator 6
 1557 0024 1832     		adds	r2, r2, #24
 1558 0026 9342     		cmp	r3, r2
 1559 0028 26D0     		beq	.L103
 480:Drivers/STM32H7xx_HAL_Driver/Src/stm32h7xx_hal_dma.c **** 
 1560              		.loc 1 480 0 discriminator 8
 1561 002a 1832     		adds	r2, r2, #24
 1562 002c 9342     		cmp	r3, r2
 1563 002e 23D0     		beq	.L103
 480:Drivers/STM32H7xx_HAL_Driver/Src/stm32h7xx_hal_dma.c **** 
 1564              		.loc 1 480 0 discriminator 10
 1565 0030 1832     		adds	r2, r2, #24
 1566 0032 9342     		cmp	r3, r2
 1567 0034 20D0     		beq	.L103
 480:Drivers/STM32H7xx_HAL_Driver/Src/stm32h7xx_hal_dma.c **** 
 1568              		.loc 1 480 0 discriminator 12
 1569 0036 1832     		adds	r2, r2, #24
 1570 0038 9342     		cmp	r3, r2
 1571 003a 1DD0     		beq	.L103
 480:Drivers/STM32H7xx_HAL_Driver/Src/stm32h7xx_hal_dma.c **** 
 1572              		.loc 1 480 0 discriminator 14
 1573 003c 02F55672 		add	r2, r2, #856
 1574 0040 9342     		cmp	r3, r2
 1575 0042 19D0     		beq	.L103
 480:Drivers/STM32H7xx_HAL_Driver/Src/stm32h7xx_hal_dma.c **** 
 1576              		.loc 1 480 0 discriminator 16
 1577 0044 1832     		adds	r2, r2, #24
 1578 0046 9342     		cmp	r3, r2
 1579 0048 16D0     		beq	.L103
 480:Drivers/STM32H7xx_HAL_Driver/Src/stm32h7xx_hal_dma.c **** 
 1580              		.loc 1 480 0 discriminator 18
ARM GAS  /tmp/ccBO8Lmd.s 			page 68


 1581 004a 1832     		adds	r2, r2, #24
 1582 004c 9342     		cmp	r3, r2
 1583 004e 13D0     		beq	.L103
 480:Drivers/STM32H7xx_HAL_Driver/Src/stm32h7xx_hal_dma.c **** 
 1584              		.loc 1 480 0 discriminator 20
 1585 0050 1832     		adds	r2, r2, #24
 1586 0052 9342     		cmp	r3, r2
 1587 0054 10D0     		beq	.L103
 480:Drivers/STM32H7xx_HAL_Driver/Src/stm32h7xx_hal_dma.c **** 
 1588              		.loc 1 480 0 discriminator 22
 1589 0056 1832     		adds	r2, r2, #24
 1590 0058 9342     		cmp	r3, r2
 1591 005a 0DD0     		beq	.L103
 480:Drivers/STM32H7xx_HAL_Driver/Src/stm32h7xx_hal_dma.c **** 
 1592              		.loc 1 480 0 discriminator 24
 1593 005c 1832     		adds	r2, r2, #24
 1594 005e 9342     		cmp	r3, r2
 1595 0060 0AD0     		beq	.L103
 480:Drivers/STM32H7xx_HAL_Driver/Src/stm32h7xx_hal_dma.c **** 
 1596              		.loc 1 480 0 discriminator 26
 1597 0062 1832     		adds	r2, r2, #24
 1598 0064 9342     		cmp	r3, r2
 1599 0066 07D0     		beq	.L103
 480:Drivers/STM32H7xx_HAL_Driver/Src/stm32h7xx_hal_dma.c **** 
 1600              		.loc 1 480 0 discriminator 28
 1601 0068 1832     		adds	r2, r2, #24
 1602 006a 9342     		cmp	r3, r2
 1603 006c 04D0     		beq	.L103
 480:Drivers/STM32H7xx_HAL_Driver/Src/stm32h7xx_hal_dma.c **** 
 1604              		.loc 1 480 0 discriminator 30
 1605 006e 1A68     		ldr	r2, [r3]
 1606 0070 22F00102 		bic	r2, r2, #1
 1607 0074 1A60     		str	r2, [r3]
 1608 0076 03E0     		b	.L105
 1609              	.L103:
 480:Drivers/STM32H7xx_HAL_Driver/Src/stm32h7xx_hal_dma.c **** 
 1610              		.loc 1 480 0 discriminator 29
 1611 0078 1A68     		ldr	r2, [r3]
 1612 007a 22F00102 		bic	r2, r2, #1
 1613 007e 1A60     		str	r2, [r3]
 1614              	.L105:
 482:Drivers/STM32H7xx_HAL_Driver/Src/stm32h7xx_hal_dma.c ****   {
 1615              		.loc 1 482 0 is_stmt 1
 1616 0080 2368     		ldr	r3, [r4]
 1617 0082 4F49     		ldr	r1, .L120
 1618 0084 4F4A     		ldr	r2, .L120+4
 1619 0086 9342     		cmp	r3, r2
 1620 0088 18BF     		it	ne
 1621 008a 8B42     		cmpne	r3, r1
 1622 008c 44D0     		beq	.L106
 482:Drivers/STM32H7xx_HAL_Driver/Src/stm32h7xx_hal_dma.c ****   {
 1623              		.loc 1 482 0 is_stmt 0 discriminator 2
 1624 008e 1832     		adds	r2, r2, #24
 1625 0090 9342     		cmp	r3, r2
 1626 0092 41D0     		beq	.L106
 482:Drivers/STM32H7xx_HAL_Driver/Src/stm32h7xx_hal_dma.c ****   {
 1627              		.loc 1 482 0 discriminator 4
ARM GAS  /tmp/ccBO8Lmd.s 			page 69


 1628 0094 1832     		adds	r2, r2, #24
 1629 0096 9342     		cmp	r3, r2
 1630 0098 3ED0     		beq	.L106
 482:Drivers/STM32H7xx_HAL_Driver/Src/stm32h7xx_hal_dma.c ****   {
 1631              		.loc 1 482 0 discriminator 6
 1632 009a 1832     		adds	r2, r2, #24
 1633 009c 9342     		cmp	r3, r2
 1634 009e 3BD0     		beq	.L106
 482:Drivers/STM32H7xx_HAL_Driver/Src/stm32h7xx_hal_dma.c ****   {
 1635              		.loc 1 482 0 discriminator 8
 1636 00a0 1832     		adds	r2, r2, #24
 1637 00a2 9342     		cmp	r3, r2
 1638 00a4 38D0     		beq	.L106
 482:Drivers/STM32H7xx_HAL_Driver/Src/stm32h7xx_hal_dma.c ****   {
 1639              		.loc 1 482 0 discriminator 10
 1640 00a6 1832     		adds	r2, r2, #24
 1641 00a8 9342     		cmp	r3, r2
 1642 00aa 35D0     		beq	.L106
 482:Drivers/STM32H7xx_HAL_Driver/Src/stm32h7xx_hal_dma.c ****   {
 1643              		.loc 1 482 0 discriminator 12
 1644 00ac 1832     		adds	r2, r2, #24
 1645 00ae 9342     		cmp	r3, r2
 1646 00b0 32D0     		beq	.L106
 482:Drivers/STM32H7xx_HAL_Driver/Src/stm32h7xx_hal_dma.c ****   {
 1647              		.loc 1 482 0 discriminator 14
 1648 00b2 02F55672 		add	r2, r2, #856
 1649 00b6 9342     		cmp	r3, r2
 1650 00b8 2ED0     		beq	.L106
 482:Drivers/STM32H7xx_HAL_Driver/Src/stm32h7xx_hal_dma.c ****   {
 1651              		.loc 1 482 0 discriminator 16
 1652 00ba 1832     		adds	r2, r2, #24
 1653 00bc 9342     		cmp	r3, r2
 1654 00be 2BD0     		beq	.L106
 482:Drivers/STM32H7xx_HAL_Driver/Src/stm32h7xx_hal_dma.c ****   {
 1655              		.loc 1 482 0 discriminator 18
 1656 00c0 1832     		adds	r2, r2, #24
 1657 00c2 9342     		cmp	r3, r2
 1658 00c4 28D0     		beq	.L106
 482:Drivers/STM32H7xx_HAL_Driver/Src/stm32h7xx_hal_dma.c ****   {
 1659              		.loc 1 482 0 discriminator 20
 1660 00c6 1832     		adds	r2, r2, #24
 1661 00c8 9342     		cmp	r3, r2
 1662 00ca 25D0     		beq	.L106
 482:Drivers/STM32H7xx_HAL_Driver/Src/stm32h7xx_hal_dma.c ****   {
 1663              		.loc 1 482 0 discriminator 22
 1664 00cc 1832     		adds	r2, r2, #24
 1665 00ce 9342     		cmp	r3, r2
 1666 00d0 22D0     		beq	.L106
 482:Drivers/STM32H7xx_HAL_Driver/Src/stm32h7xx_hal_dma.c ****   {
 1667              		.loc 1 482 0 discriminator 24
 1668 00d2 1832     		adds	r2, r2, #24
 1669 00d4 9342     		cmp	r3, r2
 1670 00d6 1FD0     		beq	.L106
 482:Drivers/STM32H7xx_HAL_Driver/Src/stm32h7xx_hal_dma.c ****   {
 1671              		.loc 1 482 0 discriminator 26
 1672 00d8 1832     		adds	r2, r2, #24
 1673 00da 9342     		cmp	r3, r2
ARM GAS  /tmp/ccBO8Lmd.s 			page 70


 1674 00dc 1CD0     		beq	.L106
 482:Drivers/STM32H7xx_HAL_Driver/Src/stm32h7xx_hal_dma.c ****   {
 1675              		.loc 1 482 0 discriminator 28
 1676 00de 1832     		adds	r2, r2, #24
 1677 00e0 9342     		cmp	r3, r2
 1678 00e2 19D0     		beq	.L106
 508:Drivers/STM32H7xx_HAL_Driver/Src/stm32h7xx_hal_dma.c ****   {
 1679              		.loc 1 508 0 is_stmt 1
 1680 00e4 3849     		ldr	r1, .L120+8
 1681 00e6 394A     		ldr	r2, .L120+12
 1682 00e8 9342     		cmp	r3, r2
 1683 00ea 18BF     		it	ne
 1684 00ec 8B42     		cmpne	r3, r1
 1685 00ee 47D0     		beq	.L107
 508:Drivers/STM32H7xx_HAL_Driver/Src/stm32h7xx_hal_dma.c ****   {
 1686              		.loc 1 508 0 is_stmt 0 discriminator 2
 1687 00f0 374A     		ldr	r2, .L120+16
 1688 00f2 9342     		cmp	r3, r2
 1689 00f4 44D0     		beq	.L107
 508:Drivers/STM32H7xx_HAL_Driver/Src/stm32h7xx_hal_dma.c ****   {
 1690              		.loc 1 508 0 discriminator 4
 1691 00f6 1432     		adds	r2, r2, #20
 1692 00f8 9342     		cmp	r3, r2
 1693 00fa 41D0     		beq	.L107
 508:Drivers/STM32H7xx_HAL_Driver/Src/stm32h7xx_hal_dma.c ****   {
 1694              		.loc 1 508 0 discriminator 6
 1695 00fc 1432     		adds	r2, r2, #20
 1696 00fe 9342     		cmp	r3, r2
 1697 0100 3ED0     		beq	.L107
 508:Drivers/STM32H7xx_HAL_Driver/Src/stm32h7xx_hal_dma.c ****   {
 1698              		.loc 1 508 0 discriminator 8
 1699 0102 1432     		adds	r2, r2, #20
 1700 0104 9342     		cmp	r3, r2
 1701 0106 3BD0     		beq	.L107
 508:Drivers/STM32H7xx_HAL_Driver/Src/stm32h7xx_hal_dma.c ****   {
 1702              		.loc 1 508 0 discriminator 10
 1703 0108 1432     		adds	r2, r2, #20
 1704 010a 9342     		cmp	r3, r2
 1705 010c 38D0     		beq	.L107
 508:Drivers/STM32H7xx_HAL_Driver/Src/stm32h7xx_hal_dma.c ****   {
 1706              		.loc 1 508 0 discriminator 12
 1707 010e 1432     		adds	r2, r2, #20
 1708 0110 9342     		cmp	r3, r2
 1709 0112 35D0     		beq	.L107
 534:Drivers/STM32H7xx_HAL_Driver/Src/stm32h7xx_hal_dma.c ****   }
 1710              		.loc 1 534 0 is_stmt 1
 1711 0114 0120     		movs	r0, #1
 1712              	.LVL100:
 1713 0116 32E0     		b	.L102
 1714              	.LVL101:
 1715              	.L106:
 485:Drivers/STM32H7xx_HAL_Driver/Src/stm32h7xx_hal_dma.c **** 
 1716              		.loc 1 485 0
 1717 0118 0022     		movs	r2, #0
 1718 011a 1A60     		str	r2, [r3]
 488:Drivers/STM32H7xx_HAL_Driver/Src/stm32h7xx_hal_dma.c **** 
 1719              		.loc 1 488 0
ARM GAS  /tmp/ccBO8Lmd.s 			page 71


 1720 011c 2368     		ldr	r3, [r4]
 1721 011e 5A60     		str	r2, [r3, #4]
 491:Drivers/STM32H7xx_HAL_Driver/Src/stm32h7xx_hal_dma.c **** 
 1722              		.loc 1 491 0
 1723 0120 2368     		ldr	r3, [r4]
 1724 0122 9A60     		str	r2, [r3, #8]
 494:Drivers/STM32H7xx_HAL_Driver/Src/stm32h7xx_hal_dma.c **** 
 1725              		.loc 1 494 0
 1726 0124 2368     		ldr	r3, [r4]
 1727 0126 DA60     		str	r2, [r3, #12]
 497:Drivers/STM32H7xx_HAL_Driver/Src/stm32h7xx_hal_dma.c **** 
 1728              		.loc 1 497 0
 1729 0128 2368     		ldr	r3, [r4]
 1730 012a 1A61     		str	r2, [r3, #16]
 500:Drivers/STM32H7xx_HAL_Driver/Src/stm32h7xx_hal_dma.c **** 
 1731              		.loc 1 500 0
 1732 012c 2368     		ldr	r3, [r4]
 1733 012e 2122     		movs	r2, #33
 1734 0130 5A61     		str	r2, [r3, #20]
 503:Drivers/STM32H7xx_HAL_Driver/Src/stm32h7xx_hal_dma.c **** 
 1735              		.loc 1 503 0
 1736 0132 2046     		mov	r0, r4
 1737              	.LVL102:
 1738 0134 FFF7FEFF 		bl	DMA_CalcBaseAndBitshift
 1739              	.LVL103:
 506:Drivers/STM32H7xx_HAL_Driver/Src/stm32h7xx_hal_dma.c ****   }
 1740              		.loc 1 506 0
 1741 0138 E36D     		ldr	r3, [r4, #92]
 1742 013a 03F01F02 		and	r2, r3, #31
 1743 013e 3F23     		movs	r3, #63
 1744 0140 9340     		lsls	r3, r3, r2
 1745 0142 8360     		str	r3, [r0, #8]
 1746              	.LVL104:
 1747              	.L109:
 543:Drivers/STM32H7xx_HAL_Driver/Src/stm32h7xx_hal_dma.c **** 
 1748              		.loc 1 543 0
 1749 0144 2046     		mov	r0, r4
 1750 0146 FFF7FEFF 		bl	DMA_CalcDMAMUXChannelBaseAndMask
 1751              	.LVL105:
 545:Drivers/STM32H7xx_HAL_Driver/Src/stm32h7xx_hal_dma.c ****     {
 1752              		.loc 1 545 0
 1753 014a 236E     		ldr	r3, [r4, #96]
 1754 014c 23B1     		cbz	r3, .L110
 548:Drivers/STM32H7xx_HAL_Driver/Src/stm32h7xx_hal_dma.c **** 
 1755              		.loc 1 548 0
 1756 014e 0022     		movs	r2, #0
 1757 0150 1A60     		str	r2, [r3]
 551:Drivers/STM32H7xx_HAL_Driver/Src/stm32h7xx_hal_dma.c ****     }
 1758              		.loc 1 551 0
 1759 0152 636E     		ldr	r3, [r4, #100]
 1760 0154 A26E     		ldr	r2, [r4, #104]
 1761 0156 5A60     		str	r2, [r3, #4]
 1762              	.L110:
 554:Drivers/STM32H7xx_HAL_Driver/Src/stm32h7xx_hal_dma.c ****     {
 1763              		.loc 1 554 0
 1764 0158 6368     		ldr	r3, [r4, #4]
 1765 015a 013B     		subs	r3, r3, #1
ARM GAS  /tmp/ccBO8Lmd.s 			page 72


 1766 015c 072B     		cmp	r3, #7
 1767 015e 23D9     		bls	.L119
 1768              	.L111:
 567:Drivers/STM32H7xx_HAL_Driver/Src/stm32h7xx_hal_dma.c ****     hdma->DMAmuxRequestGenStatus = 0U;
 1769              		.loc 1 567 0
 1770 0160 0020     		movs	r0, #0
 1771 0162 E066     		str	r0, [r4, #108]
 568:Drivers/STM32H7xx_HAL_Driver/Src/stm32h7xx_hal_dma.c ****     hdma->DMAmuxRequestGenStatusMask = 0U;
 1772              		.loc 1 568 0
 1773 0164 2067     		str	r0, [r4, #112]
 569:Drivers/STM32H7xx_HAL_Driver/Src/stm32h7xx_hal_dma.c ****   }
 1774              		.loc 1 569 0
 1775 0166 6067     		str	r0, [r4, #116]
 574:Drivers/STM32H7xx_HAL_Driver/Src/stm32h7xx_hal_dma.c ****   hdma->XferHalfCpltCallback   = NULL;
 1776              		.loc 1 574 0
 1777 0168 E063     		str	r0, [r4, #60]
 575:Drivers/STM32H7xx_HAL_Driver/Src/stm32h7xx_hal_dma.c ****   hdma->XferM1CpltCallback     = NULL;
 1778              		.loc 1 575 0
 1779 016a 2064     		str	r0, [r4, #64]
 576:Drivers/STM32H7xx_HAL_Driver/Src/stm32h7xx_hal_dma.c ****   hdma->XferM1HalfCpltCallback = NULL;
 1780              		.loc 1 576 0
 1781 016c 6064     		str	r0, [r4, #68]
 577:Drivers/STM32H7xx_HAL_Driver/Src/stm32h7xx_hal_dma.c ****   hdma->XferErrorCallback      = NULL;
 1782              		.loc 1 577 0
 1783 016e A064     		str	r0, [r4, #72]
 578:Drivers/STM32H7xx_HAL_Driver/Src/stm32h7xx_hal_dma.c ****   hdma->XferAbortCallback      = NULL;
 1784              		.loc 1 578 0
 1785 0170 E064     		str	r0, [r4, #76]
 579:Drivers/STM32H7xx_HAL_Driver/Src/stm32h7xx_hal_dma.c **** 
 1786              		.loc 1 579 0
 1787 0172 2065     		str	r0, [r4, #80]
 582:Drivers/STM32H7xx_HAL_Driver/Src/stm32h7xx_hal_dma.c **** 
 1788              		.loc 1 582 0
 1789 0174 6065     		str	r0, [r4, #84]
 585:Drivers/STM32H7xx_HAL_Driver/Src/stm32h7xx_hal_dma.c **** 
 1790              		.loc 1 585 0
 1791 0176 84F83500 		strb	r0, [r4, #53]
 588:Drivers/STM32H7xx_HAL_Driver/Src/stm32h7xx_hal_dma.c **** 
 1792              		.loc 1 588 0
 1793 017a 84F83400 		strb	r0, [r4, #52]
 1794              	.L102:
 591:Drivers/STM32H7xx_HAL_Driver/Src/stm32h7xx_hal_dma.c **** 
 1795              		.loc 1 591 0
 1796 017e 10BD     		pop	{r4, pc}
 1797              	.LVL106:
 1798              	.L107:
 511:Drivers/STM32H7xx_HAL_Driver/Src/stm32h7xx_hal_dma.c **** 
 1799              		.loc 1 511 0
 1800 0180 0022     		movs	r2, #0
 1801 0182 1A60     		str	r2, [r3]
 514:Drivers/STM32H7xx_HAL_Driver/Src/stm32h7xx_hal_dma.c **** 
 1802              		.loc 1 514 0
 1803 0184 2368     		ldr	r3, [r4]
 1804 0186 5A60     		str	r2, [r3, #4]
 517:Drivers/STM32H7xx_HAL_Driver/Src/stm32h7xx_hal_dma.c **** 
 1805              		.loc 1 517 0
 1806 0188 2368     		ldr	r3, [r4]
ARM GAS  /tmp/ccBO8Lmd.s 			page 73


 1807 018a 9A60     		str	r2, [r3, #8]
 520:Drivers/STM32H7xx_HAL_Driver/Src/stm32h7xx_hal_dma.c **** 
 1808              		.loc 1 520 0
 1809 018c 2368     		ldr	r3, [r4]
 1810 018e DA60     		str	r2, [r3, #12]
 523:Drivers/STM32H7xx_HAL_Driver/Src/stm32h7xx_hal_dma.c **** 
 1811              		.loc 1 523 0
 1812 0190 2368     		ldr	r3, [r4]
 1813 0192 1A61     		str	r2, [r3, #16]
 526:Drivers/STM32H7xx_HAL_Driver/Src/stm32h7xx_hal_dma.c **** 
 1814              		.loc 1 526 0
 1815 0194 2046     		mov	r0, r4
 1816              	.LVL107:
 1817 0196 FFF7FEFF 		bl	DMA_CalcBaseAndBitshift
 1818              	.LVL108:
 529:Drivers/STM32H7xx_HAL_Driver/Src/stm32h7xx_hal_dma.c ****   }
 1819              		.loc 1 529 0
 1820 019a E36D     		ldr	r3, [r4, #92]
 1821 019c 03F01F02 		and	r2, r3, #31
 1822 01a0 0123     		movs	r3, #1
 1823 01a2 9340     		lsls	r3, r3, r2
 1824 01a4 4360     		str	r3, [r0, #4]
 1825 01a6 CDE7     		b	.L109
 1826              	.LVL109:
 1827              	.L119:
 558:Drivers/STM32H7xx_HAL_Driver/Src/stm32h7xx_hal_dma.c **** 
 1828              		.loc 1 558 0
 1829 01a8 2046     		mov	r0, r4
 1830 01aa FFF7FEFF 		bl	DMA_CalcDMAMUXRequestGenBaseAndMask
 1831              	.LVL110:
 561:Drivers/STM32H7xx_HAL_Driver/Src/stm32h7xx_hal_dma.c **** 
 1832              		.loc 1 561 0
 1833 01ae E36E     		ldr	r3, [r4, #108]
 1834 01b0 0022     		movs	r2, #0
 1835 01b2 1A60     		str	r2, [r3]
 564:Drivers/STM32H7xx_HAL_Driver/Src/stm32h7xx_hal_dma.c ****     }
 1836              		.loc 1 564 0
 1837 01b4 236F     		ldr	r3, [r4, #112]
 1838 01b6 626F     		ldr	r2, [r4, #116]
 1839 01b8 5A60     		str	r2, [r3, #4]
 1840 01ba D1E7     		b	.L111
 1841              	.LVL111:
 1842              	.L112:
 1843              	.LCFI10:
 1844              		.cfi_def_cfa_offset 0
 1845              		.cfi_restore 4
 1846              		.cfi_restore 14
 476:Drivers/STM32H7xx_HAL_Driver/Src/stm32h7xx_hal_dma.c ****   }
 1847              		.loc 1 476 0
 1848 01bc 0120     		movs	r0, #1
 1849              	.LVL112:
 591:Drivers/STM32H7xx_HAL_Driver/Src/stm32h7xx_hal_dma.c **** 
 1850              		.loc 1 591 0
 1851 01be 7047     		bx	lr
 1852              	.L121:
 1853              		.align	2
 1854              	.L120:
ARM GAS  /tmp/ccBO8Lmd.s 			page 74


 1855 01c0 10000240 		.word	1073872912
 1856 01c4 28000240 		.word	1073872936
 1857 01c8 08540258 		.word	1476547592
 1858 01cc 1C540258 		.word	1476547612
 1859 01d0 30540258 		.word	1476547632
 1860              		.cfi_endproc
 1861              	.LFE145:
 1863              		.section	.text.HAL_DMA_Start,"ax",%progbits
 1864              		.align	1
 1865              		.global	HAL_DMA_Start
 1866              		.syntax unified
 1867              		.thumb
 1868              		.thumb_func
 1869              		.fpu fpv5-d16
 1871              	HAL_DMA_Start:
 1872              	.LFB146:
 626:Drivers/STM32H7xx_HAL_Driver/Src/stm32h7xx_hal_dma.c ****   HAL_StatusTypeDef status = HAL_OK;
 1873              		.loc 1 626 0
 1874              		.cfi_startproc
 1875              		@ args = 0, pretend = 0, frame = 0
 1876              		@ frame_needed = 0, uses_anonymous_args = 0
 1877              	.LVL113:
 633:Drivers/STM32H7xx_HAL_Driver/Src/stm32h7xx_hal_dma.c ****   {
 1878              		.loc 1 633 0
 1879 0000 0028     		cmp	r0, #0
 1880 0002 00F09880 		beq	.L130
 626:Drivers/STM32H7xx_HAL_Driver/Src/stm32h7xx_hal_dma.c ****   HAL_StatusTypeDef status = HAL_OK;
 1881              		.loc 1 626 0
 1882 0006 70B5     		push	{r4, r5, r6, lr}
 1883              	.LCFI11:
 1884              		.cfi_def_cfa_offset 16
 1885              		.cfi_offset 4, -16
 1886              		.cfi_offset 5, -12
 1887              		.cfi_offset 6, -8
 1888              		.cfi_offset 14, -4
 1889 0008 0446     		mov	r4, r0
 639:Drivers/STM32H7xx_HAL_Driver/Src/stm32h7xx_hal_dma.c **** 
 1890              		.loc 1 639 0
 1891 000a 90F83400 		ldrb	r0, [r0, #52]	@ zero_extendqisi2
 1892              	.LVL114:
 1893 000e 0128     		cmp	r0, #1
 1894 0010 00F09380 		beq	.L131
 639:Drivers/STM32H7xx_HAL_Driver/Src/stm32h7xx_hal_dma.c **** 
 1895              		.loc 1 639 0 is_stmt 0 discriminator 2
 1896 0014 0120     		movs	r0, #1
 1897 0016 84F83400 		strb	r0, [r4, #52]
 641:Drivers/STM32H7xx_HAL_Driver/Src/stm32h7xx_hal_dma.c ****   {
 1898              		.loc 1 641 0 is_stmt 1 discriminator 2
 1899 001a 94F83500 		ldrb	r0, [r4, #53]	@ zero_extendqisi2
 1900 001e C0B2     		uxtb	r0, r0
 1901 0020 0128     		cmp	r0, #1
 1902 0022 07D0     		beq	.L136
 661:Drivers/STM32H7xx_HAL_Driver/Src/stm32h7xx_hal_dma.c **** 
 1903              		.loc 1 661 0
 1904 0024 4FF40063 		mov	r3, #2048
 1905              	.LVL115:
 1906 0028 6365     		str	r3, [r4, #84]
ARM GAS  /tmp/ccBO8Lmd.s 			page 75


 664:Drivers/STM32H7xx_HAL_Driver/Src/stm32h7xx_hal_dma.c **** 
 1907              		.loc 1 664 0
 1908 002a 0023     		movs	r3, #0
 1909 002c 84F83430 		strb	r3, [r4, #52]
 1910              	.LVL116:
 667:Drivers/STM32H7xx_HAL_Driver/Src/stm32h7xx_hal_dma.c ****   }
 1911              		.loc 1 667 0
 1912 0030 0120     		movs	r0, #1
 1913              	.LVL117:
 1914              	.L123:
 670:Drivers/STM32H7xx_HAL_Driver/Src/stm32h7xx_hal_dma.c **** 
 1915              		.loc 1 670 0
 1916 0032 70BD     		pop	{r4, r5, r6, pc}
 1917              	.LVL118:
 1918              	.L136:
 644:Drivers/STM32H7xx_HAL_Driver/Src/stm32h7xx_hal_dma.c **** 
 1919              		.loc 1 644 0
 1920 0034 0220     		movs	r0, #2
 1921 0036 84F83500 		strb	r0, [r4, #53]
 647:Drivers/STM32H7xx_HAL_Driver/Src/stm32h7xx_hal_dma.c **** 
 1922              		.loc 1 647 0
 1923 003a 0020     		movs	r0, #0
 1924 003c 6065     		str	r0, [r4, #84]
 650:Drivers/STM32H7xx_HAL_Driver/Src/stm32h7xx_hal_dma.c **** 
 1925              		.loc 1 650 0
 1926 003e 2068     		ldr	r0, [r4]
 1927 0040 3F4E     		ldr	r6, .L137
 1928 0042 404D     		ldr	r5, .L137+4
 1929 0044 A842     		cmp	r0, r5
 1930 0046 18BF     		it	ne
 1931 0048 B042     		cmpne	r0, r6
 1932 004a 2FD0     		beq	.L125
 650:Drivers/STM32H7xx_HAL_Driver/Src/stm32h7xx_hal_dma.c **** 
 1933              		.loc 1 650 0 is_stmt 0 discriminator 2
 1934 004c 1835     		adds	r5, r5, #24
 1935 004e A842     		cmp	r0, r5
 1936 0050 2CD0     		beq	.L125
 650:Drivers/STM32H7xx_HAL_Driver/Src/stm32h7xx_hal_dma.c **** 
 1937              		.loc 1 650 0 discriminator 4
 1938 0052 1835     		adds	r5, r5, #24
 1939 0054 A842     		cmp	r0, r5
 1940 0056 29D0     		beq	.L125
 650:Drivers/STM32H7xx_HAL_Driver/Src/stm32h7xx_hal_dma.c **** 
 1941              		.loc 1 650 0 discriminator 6
 1942 0058 1835     		adds	r5, r5, #24
 1943 005a A842     		cmp	r0, r5
 1944 005c 26D0     		beq	.L125
 650:Drivers/STM32H7xx_HAL_Driver/Src/stm32h7xx_hal_dma.c **** 
 1945              		.loc 1 650 0 discriminator 8
 1946 005e 1835     		adds	r5, r5, #24
 1947 0060 A842     		cmp	r0, r5
 1948 0062 23D0     		beq	.L125
 650:Drivers/STM32H7xx_HAL_Driver/Src/stm32h7xx_hal_dma.c **** 
 1949              		.loc 1 650 0 discriminator 10
 1950 0064 1835     		adds	r5, r5, #24
 1951 0066 A842     		cmp	r0, r5
 1952 0068 20D0     		beq	.L125
ARM GAS  /tmp/ccBO8Lmd.s 			page 76


 650:Drivers/STM32H7xx_HAL_Driver/Src/stm32h7xx_hal_dma.c **** 
 1953              		.loc 1 650 0 discriminator 12
 1954 006a 1835     		adds	r5, r5, #24
 1955 006c A842     		cmp	r0, r5
 1956 006e 1DD0     		beq	.L125
 650:Drivers/STM32H7xx_HAL_Driver/Src/stm32h7xx_hal_dma.c **** 
 1957              		.loc 1 650 0 discriminator 14
 1958 0070 05F55675 		add	r5, r5, #856
 1959 0074 A842     		cmp	r0, r5
 1960 0076 19D0     		beq	.L125
 650:Drivers/STM32H7xx_HAL_Driver/Src/stm32h7xx_hal_dma.c **** 
 1961              		.loc 1 650 0 discriminator 16
 1962 0078 1835     		adds	r5, r5, #24
 1963 007a A842     		cmp	r0, r5
 1964 007c 16D0     		beq	.L125
 650:Drivers/STM32H7xx_HAL_Driver/Src/stm32h7xx_hal_dma.c **** 
 1965              		.loc 1 650 0 discriminator 18
 1966 007e 1835     		adds	r5, r5, #24
 1967 0080 A842     		cmp	r0, r5
 1968 0082 13D0     		beq	.L125
 650:Drivers/STM32H7xx_HAL_Driver/Src/stm32h7xx_hal_dma.c **** 
 1969              		.loc 1 650 0 discriminator 20
 1970 0084 1835     		adds	r5, r5, #24
 1971 0086 A842     		cmp	r0, r5
 1972 0088 10D0     		beq	.L125
 650:Drivers/STM32H7xx_HAL_Driver/Src/stm32h7xx_hal_dma.c **** 
 1973              		.loc 1 650 0 discriminator 22
 1974 008a 1835     		adds	r5, r5, #24
 1975 008c A842     		cmp	r0, r5
 1976 008e 0DD0     		beq	.L125
 650:Drivers/STM32H7xx_HAL_Driver/Src/stm32h7xx_hal_dma.c **** 
 1977              		.loc 1 650 0 discriminator 24
 1978 0090 1835     		adds	r5, r5, #24
 1979 0092 A842     		cmp	r0, r5
 1980 0094 0AD0     		beq	.L125
 650:Drivers/STM32H7xx_HAL_Driver/Src/stm32h7xx_hal_dma.c **** 
 1981              		.loc 1 650 0 discriminator 26
 1982 0096 1835     		adds	r5, r5, #24
 1983 0098 A842     		cmp	r0, r5
 1984 009a 07D0     		beq	.L125
 650:Drivers/STM32H7xx_HAL_Driver/Src/stm32h7xx_hal_dma.c **** 
 1985              		.loc 1 650 0 discriminator 28
 1986 009c 1835     		adds	r5, r5, #24
 1987 009e A842     		cmp	r0, r5
 1988 00a0 04D0     		beq	.L125
 650:Drivers/STM32H7xx_HAL_Driver/Src/stm32h7xx_hal_dma.c **** 
 1989              		.loc 1 650 0 discriminator 30
 1990 00a2 0568     		ldr	r5, [r0]
 1991 00a4 25F00105 		bic	r5, r5, #1
 1992 00a8 0560     		str	r5, [r0]
 1993 00aa 03E0     		b	.L127
 1994              	.L125:
 650:Drivers/STM32H7xx_HAL_Driver/Src/stm32h7xx_hal_dma.c **** 
 1995              		.loc 1 650 0 discriminator 29
 1996 00ac 0568     		ldr	r5, [r0]
 1997 00ae 25F00105 		bic	r5, r5, #1
 1998 00b2 0560     		str	r5, [r0]
ARM GAS  /tmp/ccBO8Lmd.s 			page 77


 1999              	.L127:
 653:Drivers/STM32H7xx_HAL_Driver/Src/stm32h7xx_hal_dma.c **** 
 2000              		.loc 1 653 0 is_stmt 1
 2001 00b4 2046     		mov	r0, r4
 2002 00b6 FFF7FEFF 		bl	DMA_SetConfig
 2003              	.LVL119:
 656:Drivers/STM32H7xx_HAL_Driver/Src/stm32h7xx_hal_dma.c ****   }
 2004              		.loc 1 656 0
 2005 00ba 2368     		ldr	r3, [r4]
 2006 00bc 2049     		ldr	r1, .L137
 2007 00be 214A     		ldr	r2, .L137+4
 2008 00c0 9342     		cmp	r3, r2
 2009 00c2 18BF     		it	ne
 2010 00c4 8B42     		cmpne	r3, r1
 2011 00c6 30D0     		beq	.L128
 656:Drivers/STM32H7xx_HAL_Driver/Src/stm32h7xx_hal_dma.c ****   }
 2012              		.loc 1 656 0 is_stmt 0 discriminator 2
 2013 00c8 1832     		adds	r2, r2, #24
 2014 00ca 9342     		cmp	r3, r2
 2015 00cc 2DD0     		beq	.L128
 656:Drivers/STM32H7xx_HAL_Driver/Src/stm32h7xx_hal_dma.c ****   }
 2016              		.loc 1 656 0 discriminator 4
 2017 00ce 1832     		adds	r2, r2, #24
 2018 00d0 9342     		cmp	r3, r2
 2019 00d2 2AD0     		beq	.L128
 656:Drivers/STM32H7xx_HAL_Driver/Src/stm32h7xx_hal_dma.c ****   }
 2020              		.loc 1 656 0 discriminator 6
 2021 00d4 1832     		adds	r2, r2, #24
 2022 00d6 9342     		cmp	r3, r2
 2023 00d8 27D0     		beq	.L128
 656:Drivers/STM32H7xx_HAL_Driver/Src/stm32h7xx_hal_dma.c ****   }
 2024              		.loc 1 656 0 discriminator 8
 2025 00da 1832     		adds	r2, r2, #24
 2026 00dc 9342     		cmp	r3, r2
 2027 00de 24D0     		beq	.L128
 656:Drivers/STM32H7xx_HAL_Driver/Src/stm32h7xx_hal_dma.c ****   }
 2028              		.loc 1 656 0 discriminator 10
 2029 00e0 1832     		adds	r2, r2, #24
 2030 00e2 9342     		cmp	r3, r2
 2031 00e4 21D0     		beq	.L128
 656:Drivers/STM32H7xx_HAL_Driver/Src/stm32h7xx_hal_dma.c ****   }
 2032              		.loc 1 656 0 discriminator 12
 2033 00e6 1832     		adds	r2, r2, #24
 2034 00e8 9342     		cmp	r3, r2
 2035 00ea 1ED0     		beq	.L128
 656:Drivers/STM32H7xx_HAL_Driver/Src/stm32h7xx_hal_dma.c ****   }
 2036              		.loc 1 656 0 discriminator 14
 2037 00ec 02F55672 		add	r2, r2, #856
 2038 00f0 9342     		cmp	r3, r2
 2039 00f2 1AD0     		beq	.L128
 656:Drivers/STM32H7xx_HAL_Driver/Src/stm32h7xx_hal_dma.c ****   }
 2040              		.loc 1 656 0 discriminator 16
 2041 00f4 1832     		adds	r2, r2, #24
 2042 00f6 9342     		cmp	r3, r2
 2043 00f8 17D0     		beq	.L128
 656:Drivers/STM32H7xx_HAL_Driver/Src/stm32h7xx_hal_dma.c ****   }
 2044              		.loc 1 656 0 discriminator 18
ARM GAS  /tmp/ccBO8Lmd.s 			page 78


 2045 00fa 1832     		adds	r2, r2, #24
 2046 00fc 9342     		cmp	r3, r2
 2047 00fe 14D0     		beq	.L128
 656:Drivers/STM32H7xx_HAL_Driver/Src/stm32h7xx_hal_dma.c ****   }
 2048              		.loc 1 656 0 discriminator 20
 2049 0100 1832     		adds	r2, r2, #24
 2050 0102 9342     		cmp	r3, r2
 2051 0104 11D0     		beq	.L128
 656:Drivers/STM32H7xx_HAL_Driver/Src/stm32h7xx_hal_dma.c ****   }
 2052              		.loc 1 656 0 discriminator 22
 2053 0106 1832     		adds	r2, r2, #24
 2054 0108 9342     		cmp	r3, r2
 2055 010a 0ED0     		beq	.L128
 656:Drivers/STM32H7xx_HAL_Driver/Src/stm32h7xx_hal_dma.c ****   }
 2056              		.loc 1 656 0 discriminator 24
 2057 010c 1832     		adds	r2, r2, #24
 2058 010e 9342     		cmp	r3, r2
 2059 0110 0BD0     		beq	.L128
 656:Drivers/STM32H7xx_HAL_Driver/Src/stm32h7xx_hal_dma.c ****   }
 2060              		.loc 1 656 0 discriminator 26
 2061 0112 1832     		adds	r2, r2, #24
 2062 0114 9342     		cmp	r3, r2
 2063 0116 08D0     		beq	.L128
 656:Drivers/STM32H7xx_HAL_Driver/Src/stm32h7xx_hal_dma.c ****   }
 2064              		.loc 1 656 0 discriminator 28
 2065 0118 1832     		adds	r2, r2, #24
 2066 011a 9342     		cmp	r3, r2
 2067 011c 05D0     		beq	.L128
 656:Drivers/STM32H7xx_HAL_Driver/Src/stm32h7xx_hal_dma.c ****   }
 2068              		.loc 1 656 0 discriminator 30
 2069 011e 1A68     		ldr	r2, [r3]
 2070 0120 42F00102 		orr	r2, r2, #1
 2071 0124 1A60     		str	r2, [r3]
 627:Drivers/STM32H7xx_HAL_Driver/Src/stm32h7xx_hal_dma.c **** 
 2072              		.loc 1 627 0 is_stmt 1 discriminator 30
 2073 0126 0020     		movs	r0, #0
 2074 0128 83E7     		b	.L123
 2075              	.L128:
 656:Drivers/STM32H7xx_HAL_Driver/Src/stm32h7xx_hal_dma.c ****   }
 2076              		.loc 1 656 0 discriminator 29
 2077 012a 1A68     		ldr	r2, [r3]
 2078 012c 42F00102 		orr	r2, r2, #1
 2079 0130 1A60     		str	r2, [r3]
 627:Drivers/STM32H7xx_HAL_Driver/Src/stm32h7xx_hal_dma.c **** 
 2080              		.loc 1 627 0 discriminator 29
 2081 0132 0020     		movs	r0, #0
 656:Drivers/STM32H7xx_HAL_Driver/Src/stm32h7xx_hal_dma.c ****   }
 2082              		.loc 1 656 0 discriminator 29
 2083 0134 7DE7     		b	.L123
 2084              	.LVL120:
 2085              	.L130:
 2086              	.LCFI12:
 2087              		.cfi_def_cfa_offset 0
 2088              		.cfi_restore 4
 2089              		.cfi_restore 5
 2090              		.cfi_restore 6
 2091              		.cfi_restore 14
ARM GAS  /tmp/ccBO8Lmd.s 			page 79


 635:Drivers/STM32H7xx_HAL_Driver/Src/stm32h7xx_hal_dma.c ****   }
 2092              		.loc 1 635 0
 2093 0136 0120     		movs	r0, #1
 2094              	.LVL121:
 670:Drivers/STM32H7xx_HAL_Driver/Src/stm32h7xx_hal_dma.c **** 
 2095              		.loc 1 670 0
 2096 0138 7047     		bx	lr
 2097              	.LVL122:
 2098              	.L131:
 2099              	.LCFI13:
 2100              		.cfi_def_cfa_offset 16
 2101              		.cfi_offset 4, -16
 2102              		.cfi_offset 5, -12
 2103              		.cfi_offset 6, -8
 2104              		.cfi_offset 14, -4
 639:Drivers/STM32H7xx_HAL_Driver/Src/stm32h7xx_hal_dma.c **** 
 2105              		.loc 1 639 0
 2106 013a 0220     		movs	r0, #2
 2107 013c 79E7     		b	.L123
 2108              	.L138:
 2109 013e 00BF     		.align	2
 2110              	.L137:
 2111 0140 10000240 		.word	1073872912
 2112 0144 28000240 		.word	1073872936
 2113              		.cfi_endproc
 2114              	.LFE146:
 2116              		.section	.text.HAL_DMA_Start_IT,"ax",%progbits
 2117              		.align	1
 2118              		.global	HAL_DMA_Start_IT
 2119              		.syntax unified
 2120              		.thumb
 2121              		.thumb_func
 2122              		.fpu fpv5-d16
 2124              	HAL_DMA_Start_IT:
 2125              	.LFB147:
 682:Drivers/STM32H7xx_HAL_Driver/Src/stm32h7xx_hal_dma.c ****   HAL_StatusTypeDef status = HAL_OK;
 2126              		.loc 1 682 0
 2127              		.cfi_startproc
 2128              		@ args = 0, pretend = 0, frame = 0
 2129              		@ frame_needed = 0, uses_anonymous_args = 0
 2130              	.LVL123:
 689:Drivers/STM32H7xx_HAL_Driver/Src/stm32h7xx_hal_dma.c ****   {
 2131              		.loc 1 689 0
 2132 0000 0028     		cmp	r0, #0
 2133 0002 00F03E81 		beq	.L153
 682:Drivers/STM32H7xx_HAL_Driver/Src/stm32h7xx_hal_dma.c ****   HAL_StatusTypeDef status = HAL_OK;
 2134              		.loc 1 682 0
 2135 0006 70B5     		push	{r4, r5, r6, lr}
 2136              	.LCFI14:
 2137              		.cfi_def_cfa_offset 16
 2138              		.cfi_offset 4, -16
 2139              		.cfi_offset 5, -12
 2140              		.cfi_offset 6, -8
 2141              		.cfi_offset 14, -4
 2142 0008 0446     		mov	r4, r0
 695:Drivers/STM32H7xx_HAL_Driver/Src/stm32h7xx_hal_dma.c **** 
 2143              		.loc 1 695 0
ARM GAS  /tmp/ccBO8Lmd.s 			page 80


 2144 000a 90F83400 		ldrb	r0, [r0, #52]	@ zero_extendqisi2
 2145              	.LVL124:
 2146 000e 0128     		cmp	r0, #1
 2147 0010 00F03981 		beq	.L154
 695:Drivers/STM32H7xx_HAL_Driver/Src/stm32h7xx_hal_dma.c **** 
 2148              		.loc 1 695 0 is_stmt 0 discriminator 2
 2149 0014 0120     		movs	r0, #1
 2150 0016 84F83400 		strb	r0, [r4, #52]
 697:Drivers/STM32H7xx_HAL_Driver/Src/stm32h7xx_hal_dma.c ****   {
 2151              		.loc 1 697 0 is_stmt 1 discriminator 2
 2152 001a 94F83500 		ldrb	r0, [r4, #53]	@ zero_extendqisi2
 2153 001e C0B2     		uxtb	r0, r0
 2154 0020 0128     		cmp	r0, #1
 2155 0022 07D0     		beq	.L159
 757:Drivers/STM32H7xx_HAL_Driver/Src/stm32h7xx_hal_dma.c **** 
 2156              		.loc 1 757 0
 2157 0024 4FF40063 		mov	r3, #2048
 2158              	.LVL125:
 2159 0028 6365     		str	r3, [r4, #84]
 760:Drivers/STM32H7xx_HAL_Driver/Src/stm32h7xx_hal_dma.c **** 
 2160              		.loc 1 760 0
 2161 002a 0023     		movs	r3, #0
 2162 002c 84F83430 		strb	r3, [r4, #52]
 2163              	.LVL126:
 763:Drivers/STM32H7xx_HAL_Driver/Src/stm32h7xx_hal_dma.c ****   }
 2164              		.loc 1 763 0
 2165 0030 0120     		movs	r0, #1
 2166              	.LVL127:
 2167              	.L140:
 767:Drivers/STM32H7xx_HAL_Driver/Src/stm32h7xx_hal_dma.c **** 
 2168              		.loc 1 767 0
 2169 0032 70BD     		pop	{r4, r5, r6, pc}
 2170              	.LVL128:
 2171              	.L159:
 700:Drivers/STM32H7xx_HAL_Driver/Src/stm32h7xx_hal_dma.c **** 
 2172              		.loc 1 700 0
 2173 0034 0220     		movs	r0, #2
 2174 0036 84F83500 		strb	r0, [r4, #53]
 703:Drivers/STM32H7xx_HAL_Driver/Src/stm32h7xx_hal_dma.c **** 
 2175              		.loc 1 703 0
 2176 003a 0020     		movs	r0, #0
 2177 003c 6065     		str	r0, [r4, #84]
 706:Drivers/STM32H7xx_HAL_Driver/Src/stm32h7xx_hal_dma.c **** 
 2178              		.loc 1 706 0
 2179 003e 2068     		ldr	r0, [r4]
 2180 0040 924E     		ldr	r6, .L160
 2181 0042 934D     		ldr	r5, .L160+4
 2182 0044 A842     		cmp	r0, r5
 2183 0046 18BF     		it	ne
 2184 0048 B042     		cmpne	r0, r6
 2185 004a 2FD0     		beq	.L142
 706:Drivers/STM32H7xx_HAL_Driver/Src/stm32h7xx_hal_dma.c **** 
 2186              		.loc 1 706 0 is_stmt 0 discriminator 2
 2187 004c 1835     		adds	r5, r5, #24
 2188 004e A842     		cmp	r0, r5
 2189 0050 2CD0     		beq	.L142
 706:Drivers/STM32H7xx_HAL_Driver/Src/stm32h7xx_hal_dma.c **** 
ARM GAS  /tmp/ccBO8Lmd.s 			page 81


 2190              		.loc 1 706 0 discriminator 4
 2191 0052 1835     		adds	r5, r5, #24
 2192 0054 A842     		cmp	r0, r5
 2193 0056 29D0     		beq	.L142
 706:Drivers/STM32H7xx_HAL_Driver/Src/stm32h7xx_hal_dma.c **** 
 2194              		.loc 1 706 0 discriminator 6
 2195 0058 1835     		adds	r5, r5, #24
 2196 005a A842     		cmp	r0, r5
 2197 005c 26D0     		beq	.L142
 706:Drivers/STM32H7xx_HAL_Driver/Src/stm32h7xx_hal_dma.c **** 
 2198              		.loc 1 706 0 discriminator 8
 2199 005e 1835     		adds	r5, r5, #24
 2200 0060 A842     		cmp	r0, r5
 2201 0062 23D0     		beq	.L142
 706:Drivers/STM32H7xx_HAL_Driver/Src/stm32h7xx_hal_dma.c **** 
 2202              		.loc 1 706 0 discriminator 10
 2203 0064 1835     		adds	r5, r5, #24
 2204 0066 A842     		cmp	r0, r5
 2205 0068 20D0     		beq	.L142
 706:Drivers/STM32H7xx_HAL_Driver/Src/stm32h7xx_hal_dma.c **** 
 2206              		.loc 1 706 0 discriminator 12
 2207 006a 1835     		adds	r5, r5, #24
 2208 006c A842     		cmp	r0, r5
 2209 006e 1DD0     		beq	.L142
 706:Drivers/STM32H7xx_HAL_Driver/Src/stm32h7xx_hal_dma.c **** 
 2210              		.loc 1 706 0 discriminator 14
 2211 0070 05F55675 		add	r5, r5, #856
 2212 0074 A842     		cmp	r0, r5
 2213 0076 19D0     		beq	.L142
 706:Drivers/STM32H7xx_HAL_Driver/Src/stm32h7xx_hal_dma.c **** 
 2214              		.loc 1 706 0 discriminator 16
 2215 0078 1835     		adds	r5, r5, #24
 2216 007a A842     		cmp	r0, r5
 2217 007c 16D0     		beq	.L142
 706:Drivers/STM32H7xx_HAL_Driver/Src/stm32h7xx_hal_dma.c **** 
 2218              		.loc 1 706 0 discriminator 18
 2219 007e 1835     		adds	r5, r5, #24
 2220 0080 A842     		cmp	r0, r5
 2221 0082 13D0     		beq	.L142
 706:Drivers/STM32H7xx_HAL_Driver/Src/stm32h7xx_hal_dma.c **** 
 2222              		.loc 1 706 0 discriminator 20
 2223 0084 1835     		adds	r5, r5, #24
 2224 0086 A842     		cmp	r0, r5
 2225 0088 10D0     		beq	.L142
 706:Drivers/STM32H7xx_HAL_Driver/Src/stm32h7xx_hal_dma.c **** 
 2226              		.loc 1 706 0 discriminator 22
 2227 008a 1835     		adds	r5, r5, #24
 2228 008c A842     		cmp	r0, r5
 2229 008e 0DD0     		beq	.L142
 706:Drivers/STM32H7xx_HAL_Driver/Src/stm32h7xx_hal_dma.c **** 
 2230              		.loc 1 706 0 discriminator 24
 2231 0090 1835     		adds	r5, r5, #24
 2232 0092 A842     		cmp	r0, r5
 2233 0094 0AD0     		beq	.L142
 706:Drivers/STM32H7xx_HAL_Driver/Src/stm32h7xx_hal_dma.c **** 
 2234              		.loc 1 706 0 discriminator 26
 2235 0096 1835     		adds	r5, r5, #24
ARM GAS  /tmp/ccBO8Lmd.s 			page 82


 2236 0098 A842     		cmp	r0, r5
 2237 009a 07D0     		beq	.L142
 706:Drivers/STM32H7xx_HAL_Driver/Src/stm32h7xx_hal_dma.c **** 
 2238              		.loc 1 706 0 discriminator 28
 2239 009c 1835     		adds	r5, r5, #24
 2240 009e A842     		cmp	r0, r5
 2241 00a0 04D0     		beq	.L142
 706:Drivers/STM32H7xx_HAL_Driver/Src/stm32h7xx_hal_dma.c **** 
 2242              		.loc 1 706 0 discriminator 30
 2243 00a2 0568     		ldr	r5, [r0]
 2244 00a4 25F00105 		bic	r5, r5, #1
 2245 00a8 0560     		str	r5, [r0]
 2246 00aa 03E0     		b	.L144
 2247              	.L142:
 706:Drivers/STM32H7xx_HAL_Driver/Src/stm32h7xx_hal_dma.c **** 
 2248              		.loc 1 706 0 discriminator 29
 2249 00ac 0568     		ldr	r5, [r0]
 2250 00ae 25F00105 		bic	r5, r5, #1
 2251 00b2 0560     		str	r5, [r0]
 2252              	.L144:
 709:Drivers/STM32H7xx_HAL_Driver/Src/stm32h7xx_hal_dma.c **** 
 2253              		.loc 1 709 0 is_stmt 1
 2254 00b4 2046     		mov	r0, r4
 2255 00b6 FFF7FEFF 		bl	DMA_SetConfig
 2256              	.LVL129:
 711:Drivers/STM32H7xx_HAL_Driver/Src/stm32h7xx_hal_dma.c ****     {
 2257              		.loc 1 711 0
 2258 00ba 2368     		ldr	r3, [r4]
 2259 00bc 7349     		ldr	r1, .L160
 2260 00be 744A     		ldr	r2, .L160+4
 2261 00c0 9342     		cmp	r3, r2
 2262 00c2 18BF     		it	ne
 2263 00c4 8B42     		cmpne	r3, r1
 2264 00c6 38D0     		beq	.L145
 711:Drivers/STM32H7xx_HAL_Driver/Src/stm32h7xx_hal_dma.c ****     {
 2265              		.loc 1 711 0 is_stmt 0 discriminator 2
 2266 00c8 1832     		adds	r2, r2, #24
 2267 00ca 9342     		cmp	r3, r2
 2268 00cc 35D0     		beq	.L145
 711:Drivers/STM32H7xx_HAL_Driver/Src/stm32h7xx_hal_dma.c ****     {
 2269              		.loc 1 711 0 discriminator 4
 2270 00ce 1832     		adds	r2, r2, #24
 2271 00d0 9342     		cmp	r3, r2
 2272 00d2 32D0     		beq	.L145
 711:Drivers/STM32H7xx_HAL_Driver/Src/stm32h7xx_hal_dma.c ****     {
 2273              		.loc 1 711 0 discriminator 6
 2274 00d4 1832     		adds	r2, r2, #24
 2275 00d6 9342     		cmp	r3, r2
 2276 00d8 2FD0     		beq	.L145
 711:Drivers/STM32H7xx_HAL_Driver/Src/stm32h7xx_hal_dma.c ****     {
 2277              		.loc 1 711 0 discriminator 8
 2278 00da 1832     		adds	r2, r2, #24
 2279 00dc 9342     		cmp	r3, r2
 2280 00de 2CD0     		beq	.L145
 711:Drivers/STM32H7xx_HAL_Driver/Src/stm32h7xx_hal_dma.c ****     {
 2281              		.loc 1 711 0 discriminator 10
 2282 00e0 1832     		adds	r2, r2, #24
ARM GAS  /tmp/ccBO8Lmd.s 			page 83


 2283 00e2 9342     		cmp	r3, r2
 2284 00e4 29D0     		beq	.L145
 711:Drivers/STM32H7xx_HAL_Driver/Src/stm32h7xx_hal_dma.c ****     {
 2285              		.loc 1 711 0 discriminator 12
 2286 00e6 1832     		adds	r2, r2, #24
 2287 00e8 9342     		cmp	r3, r2
 2288 00ea 26D0     		beq	.L145
 711:Drivers/STM32H7xx_HAL_Driver/Src/stm32h7xx_hal_dma.c ****     {
 2289              		.loc 1 711 0 discriminator 14
 2290 00ec 02F55672 		add	r2, r2, #856
 2291 00f0 9342     		cmp	r3, r2
 2292 00f2 22D0     		beq	.L145
 711:Drivers/STM32H7xx_HAL_Driver/Src/stm32h7xx_hal_dma.c ****     {
 2293              		.loc 1 711 0 discriminator 16
 2294 00f4 1832     		adds	r2, r2, #24
 2295 00f6 9342     		cmp	r3, r2
 2296 00f8 1FD0     		beq	.L145
 711:Drivers/STM32H7xx_HAL_Driver/Src/stm32h7xx_hal_dma.c ****     {
 2297              		.loc 1 711 0 discriminator 18
 2298 00fa 1832     		adds	r2, r2, #24
 2299 00fc 9342     		cmp	r3, r2
 2300 00fe 1CD0     		beq	.L145
 711:Drivers/STM32H7xx_HAL_Driver/Src/stm32h7xx_hal_dma.c ****     {
 2301              		.loc 1 711 0 discriminator 20
 2302 0100 1832     		adds	r2, r2, #24
 2303 0102 9342     		cmp	r3, r2
 2304 0104 19D0     		beq	.L145
 711:Drivers/STM32H7xx_HAL_Driver/Src/stm32h7xx_hal_dma.c ****     {
 2305              		.loc 1 711 0 discriminator 22
 2306 0106 1832     		adds	r2, r2, #24
 2307 0108 9342     		cmp	r3, r2
 2308 010a 16D0     		beq	.L145
 711:Drivers/STM32H7xx_HAL_Driver/Src/stm32h7xx_hal_dma.c ****     {
 2309              		.loc 1 711 0 discriminator 24
 2310 010c 1832     		adds	r2, r2, #24
 2311 010e 9342     		cmp	r3, r2
 2312 0110 13D0     		beq	.L145
 711:Drivers/STM32H7xx_HAL_Driver/Src/stm32h7xx_hal_dma.c ****     {
 2313              		.loc 1 711 0 discriminator 26
 2314 0112 1832     		adds	r2, r2, #24
 2315 0114 9342     		cmp	r3, r2
 2316 0116 10D0     		beq	.L145
 711:Drivers/STM32H7xx_HAL_Driver/Src/stm32h7xx_hal_dma.c ****     {
 2317              		.loc 1 711 0 discriminator 28
 2318 0118 1832     		adds	r2, r2, #24
 2319 011a 9342     		cmp	r3, r2
 2320 011c 0DD0     		beq	.L145
 725:Drivers/STM32H7xx_HAL_Driver/Src/stm32h7xx_hal_dma.c **** 
 2321              		.loc 1 725 0 is_stmt 1
 2322 011e 1A68     		ldr	r2, [r3]
 2323 0120 22F00E02 		bic	r2, r2, #14
 2324 0124 42F00A02 		orr	r2, r2, #10
 2325 0128 1A60     		str	r2, [r3]
 727:Drivers/STM32H7xx_HAL_Driver/Src/stm32h7xx_hal_dma.c ****       {
 2326              		.loc 1 727 0
 2327 012a 236C     		ldr	r3, [r4, #64]
 2328 012c 93B1     		cbz	r3, .L147
ARM GAS  /tmp/ccBO8Lmd.s 			page 84


 730:Drivers/STM32H7xx_HAL_Driver/Src/stm32h7xx_hal_dma.c ****       }
 2329              		.loc 1 730 0
 2330 012e 2268     		ldr	r2, [r4]
 2331 0130 1368     		ldr	r3, [r2]
 2332 0132 43F00403 		orr	r3, r3, #4
 2333 0136 1360     		str	r3, [r2]
 2334 0138 0CE0     		b	.L147
 2335              	.L145:
 714:Drivers/STM32H7xx_HAL_Driver/Src/stm32h7xx_hal_dma.c **** 
 2336              		.loc 1 714 0
 2337 013a 1A68     		ldr	r2, [r3]
 2338 013c 22F01E02 		bic	r2, r2, #30
 2339 0140 42F01602 		orr	r2, r2, #22
 2340 0144 1A60     		str	r2, [r3]
 716:Drivers/STM32H7xx_HAL_Driver/Src/stm32h7xx_hal_dma.c ****       {
 2341              		.loc 1 716 0
 2342 0146 236C     		ldr	r3, [r4, #64]
 2343 0148 23B1     		cbz	r3, .L147
 719:Drivers/STM32H7xx_HAL_Driver/Src/stm32h7xx_hal_dma.c ****       }
 2344              		.loc 1 719 0
 2345 014a 2268     		ldr	r2, [r4]
 2346 014c 1368     		ldr	r3, [r2]
 2347 014e 43F00803 		orr	r3, r3, #8
 2348 0152 1360     		str	r3, [r2]
 2349              	.L147:
 734:Drivers/STM32H7xx_HAL_Driver/Src/stm32h7xx_hal_dma.c ****     {
 2350              		.loc 1 734 0
 2351 0154 2368     		ldr	r3, [r4]
 2352 0156 4D49     		ldr	r1, .L160
 2353 0158 4D4A     		ldr	r2, .L160+4
 2354 015a 9342     		cmp	r3, r2
 2355 015c 18BF     		it	ne
 2356 015e 8B42     		cmpne	r3, r1
 2357 0160 42D0     		beq	.L148
 734:Drivers/STM32H7xx_HAL_Driver/Src/stm32h7xx_hal_dma.c ****     {
 2358              		.loc 1 734 0 is_stmt 0 discriminator 2
 2359 0162 1832     		adds	r2, r2, #24
 2360 0164 9342     		cmp	r3, r2
 2361 0166 3FD0     		beq	.L148
 734:Drivers/STM32H7xx_HAL_Driver/Src/stm32h7xx_hal_dma.c ****     {
 2362              		.loc 1 734 0 discriminator 4
 2363 0168 1832     		adds	r2, r2, #24
 2364 016a 9342     		cmp	r3, r2
 2365 016c 3CD0     		beq	.L148
 734:Drivers/STM32H7xx_HAL_Driver/Src/stm32h7xx_hal_dma.c ****     {
 2366              		.loc 1 734 0 discriminator 6
 2367 016e 1832     		adds	r2, r2, #24
 2368 0170 9342     		cmp	r3, r2
 2369 0172 39D0     		beq	.L148
 734:Drivers/STM32H7xx_HAL_Driver/Src/stm32h7xx_hal_dma.c ****     {
 2370              		.loc 1 734 0 discriminator 8
 2371 0174 1832     		adds	r2, r2, #24
 2372 0176 9342     		cmp	r3, r2
 2373 0178 36D0     		beq	.L148
 734:Drivers/STM32H7xx_HAL_Driver/Src/stm32h7xx_hal_dma.c ****     {
 2374              		.loc 1 734 0 discriminator 10
 2375 017a 1832     		adds	r2, r2, #24
ARM GAS  /tmp/ccBO8Lmd.s 			page 85


 2376 017c 9342     		cmp	r3, r2
 2377 017e 33D0     		beq	.L148
 734:Drivers/STM32H7xx_HAL_Driver/Src/stm32h7xx_hal_dma.c ****     {
 2378              		.loc 1 734 0 discriminator 12
 2379 0180 1832     		adds	r2, r2, #24
 2380 0182 9342     		cmp	r3, r2
 2381 0184 30D0     		beq	.L148
 734:Drivers/STM32H7xx_HAL_Driver/Src/stm32h7xx_hal_dma.c ****     {
 2382              		.loc 1 734 0 discriminator 14
 2383 0186 02F55672 		add	r2, r2, #856
 2384 018a 9342     		cmp	r3, r2
 2385 018c 2CD0     		beq	.L148
 734:Drivers/STM32H7xx_HAL_Driver/Src/stm32h7xx_hal_dma.c ****     {
 2386              		.loc 1 734 0 discriminator 16
 2387 018e 1832     		adds	r2, r2, #24
 2388 0190 9342     		cmp	r3, r2
 2389 0192 29D0     		beq	.L148
 734:Drivers/STM32H7xx_HAL_Driver/Src/stm32h7xx_hal_dma.c ****     {
 2390              		.loc 1 734 0 discriminator 18
 2391 0194 1832     		adds	r2, r2, #24
 2392 0196 9342     		cmp	r3, r2
 2393 0198 26D0     		beq	.L148
 734:Drivers/STM32H7xx_HAL_Driver/Src/stm32h7xx_hal_dma.c ****     {
 2394              		.loc 1 734 0 discriminator 20
 2395 019a 1832     		adds	r2, r2, #24
 2396 019c 9342     		cmp	r3, r2
 2397 019e 23D0     		beq	.L148
 734:Drivers/STM32H7xx_HAL_Driver/Src/stm32h7xx_hal_dma.c ****     {
 2398              		.loc 1 734 0 discriminator 22
 2399 01a0 1832     		adds	r2, r2, #24
 2400 01a2 9342     		cmp	r3, r2
 2401 01a4 20D0     		beq	.L148
 734:Drivers/STM32H7xx_HAL_Driver/Src/stm32h7xx_hal_dma.c ****     {
 2402              		.loc 1 734 0 discriminator 24
 2403 01a6 1832     		adds	r2, r2, #24
 2404 01a8 9342     		cmp	r3, r2
 2405 01aa 1DD0     		beq	.L148
 734:Drivers/STM32H7xx_HAL_Driver/Src/stm32h7xx_hal_dma.c ****     {
 2406              		.loc 1 734 0 discriminator 26
 2407 01ac 1832     		adds	r2, r2, #24
 2408 01ae 9342     		cmp	r3, r2
 2409 01b0 1AD0     		beq	.L148
 734:Drivers/STM32H7xx_HAL_Driver/Src/stm32h7xx_hal_dma.c ****     {
 2410              		.loc 1 734 0 discriminator 28
 2411 01b2 1832     		adds	r2, r2, #24
 2412 01b4 9342     		cmp	r3, r2
 2413 01b6 17D0     		beq	.L148
 734:Drivers/STM32H7xx_HAL_Driver/Src/stm32h7xx_hal_dma.c ****     {
 2414              		.loc 1 734 0 discriminator 30
 2415 01b8 364A     		ldr	r2, .L160+8
 2416 01ba 9342     		cmp	r3, r2
 2417 01bc 14D0     		beq	.L148
 734:Drivers/STM32H7xx_HAL_Driver/Src/stm32h7xx_hal_dma.c ****     {
 2418              		.loc 1 734 0 discriminator 32
 2419 01be 1432     		adds	r2, r2, #20
 2420 01c0 9342     		cmp	r3, r2
 2421 01c2 11D0     		beq	.L148
ARM GAS  /tmp/ccBO8Lmd.s 			page 86


 734:Drivers/STM32H7xx_HAL_Driver/Src/stm32h7xx_hal_dma.c ****     {
 2422              		.loc 1 734 0 discriminator 34
 2423 01c4 1432     		adds	r2, r2, #20
 2424 01c6 9342     		cmp	r3, r2
 2425 01c8 0ED0     		beq	.L148
 734:Drivers/STM32H7xx_HAL_Driver/Src/stm32h7xx_hal_dma.c ****     {
 2426              		.loc 1 734 0 discriminator 36
 2427 01ca 1432     		adds	r2, r2, #20
 2428 01cc 9342     		cmp	r3, r2
 2429 01ce 0BD0     		beq	.L148
 734:Drivers/STM32H7xx_HAL_Driver/Src/stm32h7xx_hal_dma.c ****     {
 2430              		.loc 1 734 0 discriminator 38
 2431 01d0 1432     		adds	r2, r2, #20
 2432 01d2 9342     		cmp	r3, r2
 2433 01d4 08D0     		beq	.L148
 734:Drivers/STM32H7xx_HAL_Driver/Src/stm32h7xx_hal_dma.c ****     {
 2434              		.loc 1 734 0 discriminator 40
 2435 01d6 1432     		adds	r2, r2, #20
 2436 01d8 9342     		cmp	r3, r2
 2437 01da 05D0     		beq	.L148
 734:Drivers/STM32H7xx_HAL_Driver/Src/stm32h7xx_hal_dma.c ****     {
 2438              		.loc 1 734 0 discriminator 42
 2439 01dc 1432     		adds	r2, r2, #20
 2440 01de 9342     		cmp	r3, r2
 2441 01e0 02D0     		beq	.L148
 734:Drivers/STM32H7xx_HAL_Driver/Src/stm32h7xx_hal_dma.c ****     {
 2442              		.loc 1 734 0 discriminator 44
 2443 01e2 1432     		adds	r2, r2, #20
 2444 01e4 9342     		cmp	r3, r2
 2445 01e6 0ED1     		bne	.L149
 2446              	.L148:
 737:Drivers/STM32H7xx_HAL_Driver/Src/stm32h7xx_hal_dma.c ****       {
 2447              		.loc 1 737 0 is_stmt 1
 2448 01e8 236E     		ldr	r3, [r4, #96]
 2449 01ea 1A68     		ldr	r2, [r3]
 2450 01ec 12F4803F 		tst	r2, #65536
 2451 01f0 03D0     		beq	.L150
 740:Drivers/STM32H7xx_HAL_Driver/Src/stm32h7xx_hal_dma.c ****       }
 2452              		.loc 1 740 0
 2453 01f2 1A68     		ldr	r2, [r3]
 2454 01f4 42F48072 		orr	r2, r2, #256
 2455 01f8 1A60     		str	r2, [r3]
 2456              	.L150:
 743:Drivers/STM32H7xx_HAL_Driver/Src/stm32h7xx_hal_dma.c ****       {
 2457              		.loc 1 743 0
 2458 01fa E36E     		ldr	r3, [r4, #108]
 2459 01fc 1BB1     		cbz	r3, .L149
 747:Drivers/STM32H7xx_HAL_Driver/Src/stm32h7xx_hal_dma.c ****       }
 2460              		.loc 1 747 0
 2461 01fe 1A68     		ldr	r2, [r3]
 2462 0200 42F48072 		orr	r2, r2, #256
 2463 0204 1A60     		str	r2, [r3]
 2464              	.L149:
 752:Drivers/STM32H7xx_HAL_Driver/Src/stm32h7xx_hal_dma.c ****   }
 2465              		.loc 1 752 0
 2466 0206 2368     		ldr	r3, [r4]
 2467 0208 2049     		ldr	r1, .L160
ARM GAS  /tmp/ccBO8Lmd.s 			page 87


 2468 020a 214A     		ldr	r2, .L160+4
 2469 020c 9342     		cmp	r3, r2
 2470 020e 18BF     		it	ne
 2471 0210 8B42     		cmpne	r3, r1
 2472 0212 30D0     		beq	.L151
 752:Drivers/STM32H7xx_HAL_Driver/Src/stm32h7xx_hal_dma.c ****   }
 2473              		.loc 1 752 0 is_stmt 0 discriminator 2
 2474 0214 1832     		adds	r2, r2, #24
 2475 0216 9342     		cmp	r3, r2
 2476 0218 2DD0     		beq	.L151
 752:Drivers/STM32H7xx_HAL_Driver/Src/stm32h7xx_hal_dma.c ****   }
 2477              		.loc 1 752 0 discriminator 4
 2478 021a 1832     		adds	r2, r2, #24
 2479 021c 9342     		cmp	r3, r2
 2480 021e 2AD0     		beq	.L151
 752:Drivers/STM32H7xx_HAL_Driver/Src/stm32h7xx_hal_dma.c ****   }
 2481              		.loc 1 752 0 discriminator 6
 2482 0220 1832     		adds	r2, r2, #24
 2483 0222 9342     		cmp	r3, r2
 2484 0224 27D0     		beq	.L151
 752:Drivers/STM32H7xx_HAL_Driver/Src/stm32h7xx_hal_dma.c ****   }
 2485              		.loc 1 752 0 discriminator 8
 2486 0226 1832     		adds	r2, r2, #24
 2487 0228 9342     		cmp	r3, r2
 2488 022a 24D0     		beq	.L151
 752:Drivers/STM32H7xx_HAL_Driver/Src/stm32h7xx_hal_dma.c ****   }
 2489              		.loc 1 752 0 discriminator 10
 2490 022c 1832     		adds	r2, r2, #24
 2491 022e 9342     		cmp	r3, r2
 2492 0230 21D0     		beq	.L151
 752:Drivers/STM32H7xx_HAL_Driver/Src/stm32h7xx_hal_dma.c ****   }
 2493              		.loc 1 752 0 discriminator 12
 2494 0232 1832     		adds	r2, r2, #24
 2495 0234 9342     		cmp	r3, r2
 2496 0236 1ED0     		beq	.L151
 752:Drivers/STM32H7xx_HAL_Driver/Src/stm32h7xx_hal_dma.c ****   }
 2497              		.loc 1 752 0 discriminator 14
 2498 0238 02F55672 		add	r2, r2, #856
 2499 023c 9342     		cmp	r3, r2
 2500 023e 1AD0     		beq	.L151
 752:Drivers/STM32H7xx_HAL_Driver/Src/stm32h7xx_hal_dma.c ****   }
 2501              		.loc 1 752 0 discriminator 16
 2502 0240 1832     		adds	r2, r2, #24
 2503 0242 9342     		cmp	r3, r2
 2504 0244 17D0     		beq	.L151
 752:Drivers/STM32H7xx_HAL_Driver/Src/stm32h7xx_hal_dma.c ****   }
 2505              		.loc 1 752 0 discriminator 18
 2506 0246 1832     		adds	r2, r2, #24
 2507 0248 9342     		cmp	r3, r2
 2508 024a 14D0     		beq	.L151
 752:Drivers/STM32H7xx_HAL_Driver/Src/stm32h7xx_hal_dma.c ****   }
 2509              		.loc 1 752 0 discriminator 20
 2510 024c 1832     		adds	r2, r2, #24
 2511 024e 9342     		cmp	r3, r2
 2512 0250 11D0     		beq	.L151
 752:Drivers/STM32H7xx_HAL_Driver/Src/stm32h7xx_hal_dma.c ****   }
 2513              		.loc 1 752 0 discriminator 22
ARM GAS  /tmp/ccBO8Lmd.s 			page 88


 2514 0252 1832     		adds	r2, r2, #24
 2515 0254 9342     		cmp	r3, r2
 2516 0256 0ED0     		beq	.L151
 752:Drivers/STM32H7xx_HAL_Driver/Src/stm32h7xx_hal_dma.c ****   }
 2517              		.loc 1 752 0 discriminator 24
 2518 0258 1832     		adds	r2, r2, #24
 2519 025a 9342     		cmp	r3, r2
 2520 025c 0BD0     		beq	.L151
 752:Drivers/STM32H7xx_HAL_Driver/Src/stm32h7xx_hal_dma.c ****   }
 2521              		.loc 1 752 0 discriminator 26
 2522 025e 1832     		adds	r2, r2, #24
 2523 0260 9342     		cmp	r3, r2
 2524 0262 08D0     		beq	.L151
 752:Drivers/STM32H7xx_HAL_Driver/Src/stm32h7xx_hal_dma.c ****   }
 2525              		.loc 1 752 0 discriminator 28
 2526 0264 1832     		adds	r2, r2, #24
 2527 0266 9342     		cmp	r3, r2
 2528 0268 05D0     		beq	.L151
 752:Drivers/STM32H7xx_HAL_Driver/Src/stm32h7xx_hal_dma.c ****   }
 2529              		.loc 1 752 0 discriminator 30
 2530 026a 1A68     		ldr	r2, [r3]
 2531 026c 42F00102 		orr	r2, r2, #1
 2532 0270 1A60     		str	r2, [r3]
 683:Drivers/STM32H7xx_HAL_Driver/Src/stm32h7xx_hal_dma.c **** 
 2533              		.loc 1 683 0 is_stmt 1 discriminator 30
 2534 0272 0020     		movs	r0, #0
 2535 0274 DDE6     		b	.L140
 2536              	.L151:
 752:Drivers/STM32H7xx_HAL_Driver/Src/stm32h7xx_hal_dma.c ****   }
 2537              		.loc 1 752 0 discriminator 29
 2538 0276 1A68     		ldr	r2, [r3]
 2539 0278 42F00102 		orr	r2, r2, #1
 2540 027c 1A60     		str	r2, [r3]
 683:Drivers/STM32H7xx_HAL_Driver/Src/stm32h7xx_hal_dma.c **** 
 2541              		.loc 1 683 0 discriminator 29
 2542 027e 0020     		movs	r0, #0
 752:Drivers/STM32H7xx_HAL_Driver/Src/stm32h7xx_hal_dma.c ****   }
 2543              		.loc 1 752 0 discriminator 29
 2544 0280 D7E6     		b	.L140
 2545              	.LVL130:
 2546              	.L153:
 2547              	.LCFI15:
 2548              		.cfi_def_cfa_offset 0
 2549              		.cfi_restore 4
 2550              		.cfi_restore 5
 2551              		.cfi_restore 6
 2552              		.cfi_restore 14
 691:Drivers/STM32H7xx_HAL_Driver/Src/stm32h7xx_hal_dma.c ****   }
 2553              		.loc 1 691 0
 2554 0282 0120     		movs	r0, #1
 2555              	.LVL131:
 767:Drivers/STM32H7xx_HAL_Driver/Src/stm32h7xx_hal_dma.c **** 
 2556              		.loc 1 767 0
 2557 0284 7047     		bx	lr
 2558              	.LVL132:
 2559              	.L154:
 2560              	.LCFI16:
ARM GAS  /tmp/ccBO8Lmd.s 			page 89


 2561              		.cfi_def_cfa_offset 16
 2562              		.cfi_offset 4, -16
 2563              		.cfi_offset 5, -12
 2564              		.cfi_offset 6, -8
 2565              		.cfi_offset 14, -4
 695:Drivers/STM32H7xx_HAL_Driver/Src/stm32h7xx_hal_dma.c **** 
 2566              		.loc 1 695 0
 2567 0286 0220     		movs	r0, #2
 2568 0288 D3E6     		b	.L140
 2569              	.L161:
 2570 028a 00BF     		.align	2
 2571              	.L160:
 2572 028c 10000240 		.word	1073872912
 2573 0290 28000240 		.word	1073872936
 2574 0294 08540258 		.word	1476547592
 2575              		.cfi_endproc
 2576              	.LFE147:
 2578              		.section	.text.HAL_DMA_Abort,"ax",%progbits
 2579              		.align	1
 2580              		.global	HAL_DMA_Abort
 2581              		.syntax unified
 2582              		.thumb
 2583              		.thumb_func
 2584              		.fpu fpv5-d16
 2586              	HAL_DMA_Abort:
 2587              	.LFB148:
 782:Drivers/STM32H7xx_HAL_Driver/Src/stm32h7xx_hal_dma.c ****   /* calculate DMA base and stream number */
 2588              		.loc 1 782 0
 2589              		.cfi_startproc
 2590              		@ args = 0, pretend = 0, frame = 0
 2591              		@ frame_needed = 0, uses_anonymous_args = 0
 2592              	.LVL133:
 2593 0000 70B5     		push	{r4, r5, r6, lr}
 2594              	.LCFI17:
 2595              		.cfi_def_cfa_offset 16
 2596              		.cfi_offset 4, -16
 2597              		.cfi_offset 5, -12
 2598              		.cfi_offset 6, -8
 2599              		.cfi_offset 14, -4
 2600 0002 0446     		mov	r4, r0
 788:Drivers/STM32H7xx_HAL_Driver/Src/stm32h7xx_hal_dma.c **** 
 2601              		.loc 1 788 0
 2602 0004 FFF7FEFF 		bl	HAL_GetTick
 2603              	.LVL134:
 791:Drivers/STM32H7xx_HAL_Driver/Src/stm32h7xx_hal_dma.c ****   {
 2604              		.loc 1 791 0
 2605 0008 002C     		cmp	r4, #0
 2606 000a 00F09181 		beq	.L178
 2607 000e 0546     		mov	r5, r0
 797:Drivers/STM32H7xx_HAL_Driver/Src/stm32h7xx_hal_dma.c ****   {
 2608              		.loc 1 797 0
 2609 0010 94F83530 		ldrb	r3, [r4, #53]	@ zero_extendqisi2
 2610 0014 DBB2     		uxtb	r3, r3
 2611 0016 022B     		cmp	r3, #2
 2612 0018 06D0     		beq	.L164
 799:Drivers/STM32H7xx_HAL_Driver/Src/stm32h7xx_hal_dma.c **** 
 2613              		.loc 1 799 0
ARM GAS  /tmp/ccBO8Lmd.s 			page 90


 2614 001a 8023     		movs	r3, #128
 2615 001c 6365     		str	r3, [r4, #84]
 802:Drivers/STM32H7xx_HAL_Driver/Src/stm32h7xx_hal_dma.c **** 
 2616              		.loc 1 802 0
 2617 001e 0023     		movs	r3, #0
 2618 0020 84F83430 		strb	r3, [r4, #52]
 804:Drivers/STM32H7xx_HAL_Driver/Src/stm32h7xx_hal_dma.c ****   }
 2619              		.loc 1 804 0
 2620 0024 0120     		movs	r0, #1
 2621              	.LVL135:
 2622              	.L163:
 889:Drivers/STM32H7xx_HAL_Driver/Src/stm32h7xx_hal_dma.c **** 
 2623              		.loc 1 889 0
 2624 0026 70BD     		pop	{r4, r5, r6, pc}
 2625              	.LVL136:
 2626              	.L164:
 809:Drivers/STM32H7xx_HAL_Driver/Src/stm32h7xx_hal_dma.c ****     {
 2627              		.loc 1 809 0
 2628 0028 2368     		ldr	r3, [r4]
 2629 002a 8C49     		ldr	r1, .L181
 2630 002c 8C4A     		ldr	r2, .L181+4
 2631 002e 9342     		cmp	r3, r2
 2632 0030 18BF     		it	ne
 2633 0032 8B42     		cmpne	r3, r1
 2634 0034 30D0     		beq	.L165
 809:Drivers/STM32H7xx_HAL_Driver/Src/stm32h7xx_hal_dma.c ****     {
 2635              		.loc 1 809 0 is_stmt 0 discriminator 2
 2636 0036 1832     		adds	r2, r2, #24
 2637 0038 9342     		cmp	r3, r2
 2638 003a 2DD0     		beq	.L165
 809:Drivers/STM32H7xx_HAL_Driver/Src/stm32h7xx_hal_dma.c ****     {
 2639              		.loc 1 809 0 discriminator 4
 2640 003c 1832     		adds	r2, r2, #24
 2641 003e 9342     		cmp	r3, r2
 2642 0040 2AD0     		beq	.L165
 809:Drivers/STM32H7xx_HAL_Driver/Src/stm32h7xx_hal_dma.c ****     {
 2643              		.loc 1 809 0 discriminator 6
 2644 0042 1832     		adds	r2, r2, #24
 2645 0044 9342     		cmp	r3, r2
 2646 0046 27D0     		beq	.L165
 809:Drivers/STM32H7xx_HAL_Driver/Src/stm32h7xx_hal_dma.c ****     {
 2647              		.loc 1 809 0 discriminator 8
 2648 0048 1832     		adds	r2, r2, #24
 2649 004a 9342     		cmp	r3, r2
 2650 004c 24D0     		beq	.L165
 809:Drivers/STM32H7xx_HAL_Driver/Src/stm32h7xx_hal_dma.c ****     {
 2651              		.loc 1 809 0 discriminator 10
 2652 004e 1832     		adds	r2, r2, #24
 2653 0050 9342     		cmp	r3, r2
 2654 0052 21D0     		beq	.L165
 809:Drivers/STM32H7xx_HAL_Driver/Src/stm32h7xx_hal_dma.c ****     {
 2655              		.loc 1 809 0 discriminator 12
 2656 0054 1832     		adds	r2, r2, #24
 2657 0056 9342     		cmp	r3, r2
 2658 0058 1ED0     		beq	.L165
 809:Drivers/STM32H7xx_HAL_Driver/Src/stm32h7xx_hal_dma.c ****     {
 2659              		.loc 1 809 0 discriminator 14
ARM GAS  /tmp/ccBO8Lmd.s 			page 91


 2660 005a 02F55672 		add	r2, r2, #856
 2661 005e 9342     		cmp	r3, r2
 2662 0060 1AD0     		beq	.L165
 809:Drivers/STM32H7xx_HAL_Driver/Src/stm32h7xx_hal_dma.c ****     {
 2663              		.loc 1 809 0 discriminator 16
 2664 0062 1832     		adds	r2, r2, #24
 2665 0064 9342     		cmp	r3, r2
 2666 0066 17D0     		beq	.L165
 809:Drivers/STM32H7xx_HAL_Driver/Src/stm32h7xx_hal_dma.c ****     {
 2667              		.loc 1 809 0 discriminator 18
 2668 0068 1832     		adds	r2, r2, #24
 2669 006a 9342     		cmp	r3, r2
 2670 006c 14D0     		beq	.L165
 809:Drivers/STM32H7xx_HAL_Driver/Src/stm32h7xx_hal_dma.c ****     {
 2671              		.loc 1 809 0 discriminator 20
 2672 006e 1832     		adds	r2, r2, #24
 2673 0070 9342     		cmp	r3, r2
 2674 0072 11D0     		beq	.L165
 809:Drivers/STM32H7xx_HAL_Driver/Src/stm32h7xx_hal_dma.c ****     {
 2675              		.loc 1 809 0 discriminator 22
 2676 0074 1832     		adds	r2, r2, #24
 2677 0076 9342     		cmp	r3, r2
 2678 0078 0ED0     		beq	.L165
 809:Drivers/STM32H7xx_HAL_Driver/Src/stm32h7xx_hal_dma.c ****     {
 2679              		.loc 1 809 0 discriminator 24
 2680 007a 1832     		adds	r2, r2, #24
 2681 007c 9342     		cmp	r3, r2
 2682 007e 0BD0     		beq	.L165
 809:Drivers/STM32H7xx_HAL_Driver/Src/stm32h7xx_hal_dma.c ****     {
 2683              		.loc 1 809 0 discriminator 26
 2684 0080 1832     		adds	r2, r2, #24
 2685 0082 9342     		cmp	r3, r2
 2686 0084 08D0     		beq	.L165
 809:Drivers/STM32H7xx_HAL_Driver/Src/stm32h7xx_hal_dma.c ****     {
 2687              		.loc 1 809 0 discriminator 28
 2688 0086 1832     		adds	r2, r2, #24
 2689 0088 9342     		cmp	r3, r2
 2690 008a 05D0     		beq	.L165
 820:Drivers/STM32H7xx_HAL_Driver/Src/stm32h7xx_hal_dma.c **** 
 2691              		.loc 1 820 0 is_stmt 1
 2692 008c 1A68     		ldr	r2, [r3]
 2693 008e 22F00E02 		bic	r2, r2, #14
 2694 0092 1A60     		str	r2, [r3]
 822:Drivers/STM32H7xx_HAL_Driver/Src/stm32h7xx_hal_dma.c ****     }
 2695              		.loc 1 822 0
 2696 0094 2668     		ldr	r6, [r4]
 2697              	.LVL137:
 2698 0096 09E0     		b	.L166
 2699              	.LVL138:
 2700              	.L165:
 812:Drivers/STM32H7xx_HAL_Driver/Src/stm32h7xx_hal_dma.c ****       ((DMA_Stream_TypeDef   *)hdma->Instance)->FCR &= ~(DMA_IT_FE);
 2701              		.loc 1 812 0
 2702 0098 1A68     		ldr	r2, [r3]
 2703 009a 22F01E02 		bic	r2, r2, #30
 2704 009e 1A60     		str	r2, [r3]
 813:Drivers/STM32H7xx_HAL_Driver/Src/stm32h7xx_hal_dma.c **** 
 2705              		.loc 1 813 0
ARM GAS  /tmp/ccBO8Lmd.s 			page 92


 2706 00a0 2268     		ldr	r2, [r4]
 2707 00a2 5369     		ldr	r3, [r2, #20]
 2708 00a4 23F08003 		bic	r3, r3, #128
 2709 00a8 5361     		str	r3, [r2, #20]
 815:Drivers/STM32H7xx_HAL_Driver/Src/stm32h7xx_hal_dma.c ****     }
 2710              		.loc 1 815 0
 2711 00aa 2668     		ldr	r6, [r4]
 2712              	.LVL139:
 2713              	.L166:
 825:Drivers/STM32H7xx_HAL_Driver/Src/stm32h7xx_hal_dma.c ****     {
 2714              		.loc 1 825 0
 2715 00ac 2368     		ldr	r3, [r4]
 2716 00ae 6B49     		ldr	r1, .L181
 2717 00b0 6B4A     		ldr	r2, .L181+4
 2718 00b2 9342     		cmp	r3, r2
 2719 00b4 18BF     		it	ne
 2720 00b6 8B42     		cmpne	r3, r1
 2721 00b8 42D0     		beq	.L167
 825:Drivers/STM32H7xx_HAL_Driver/Src/stm32h7xx_hal_dma.c ****     {
 2722              		.loc 1 825 0 is_stmt 0 discriminator 2
 2723 00ba 1832     		adds	r2, r2, #24
 2724 00bc 9342     		cmp	r3, r2
 2725 00be 3FD0     		beq	.L167
 825:Drivers/STM32H7xx_HAL_Driver/Src/stm32h7xx_hal_dma.c ****     {
 2726              		.loc 1 825 0 discriminator 4
 2727 00c0 1832     		adds	r2, r2, #24
 2728 00c2 9342     		cmp	r3, r2
 2729 00c4 3CD0     		beq	.L167
 825:Drivers/STM32H7xx_HAL_Driver/Src/stm32h7xx_hal_dma.c ****     {
 2730              		.loc 1 825 0 discriminator 6
 2731 00c6 1832     		adds	r2, r2, #24
 2732 00c8 9342     		cmp	r3, r2
 2733 00ca 39D0     		beq	.L167
 825:Drivers/STM32H7xx_HAL_Driver/Src/stm32h7xx_hal_dma.c ****     {
 2734              		.loc 1 825 0 discriminator 8
 2735 00cc 1832     		adds	r2, r2, #24
 2736 00ce 9342     		cmp	r3, r2
 2737 00d0 36D0     		beq	.L167
 825:Drivers/STM32H7xx_HAL_Driver/Src/stm32h7xx_hal_dma.c ****     {
 2738              		.loc 1 825 0 discriminator 10
 2739 00d2 1832     		adds	r2, r2, #24
 2740 00d4 9342     		cmp	r3, r2
 2741 00d6 33D0     		beq	.L167
 825:Drivers/STM32H7xx_HAL_Driver/Src/stm32h7xx_hal_dma.c ****     {
 2742              		.loc 1 825 0 discriminator 12
 2743 00d8 1832     		adds	r2, r2, #24
 2744 00da 9342     		cmp	r3, r2
 2745 00dc 30D0     		beq	.L167
 825:Drivers/STM32H7xx_HAL_Driver/Src/stm32h7xx_hal_dma.c ****     {
 2746              		.loc 1 825 0 discriminator 14
 2747 00de 02F55672 		add	r2, r2, #856
 2748 00e2 9342     		cmp	r3, r2
 2749 00e4 2CD0     		beq	.L167
 825:Drivers/STM32H7xx_HAL_Driver/Src/stm32h7xx_hal_dma.c ****     {
 2750              		.loc 1 825 0 discriminator 16
 2751 00e6 1832     		adds	r2, r2, #24
 2752 00e8 9342     		cmp	r3, r2
ARM GAS  /tmp/ccBO8Lmd.s 			page 93


 2753 00ea 29D0     		beq	.L167
 825:Drivers/STM32H7xx_HAL_Driver/Src/stm32h7xx_hal_dma.c ****     {
 2754              		.loc 1 825 0 discriminator 18
 2755 00ec 1832     		adds	r2, r2, #24
 2756 00ee 9342     		cmp	r3, r2
 2757 00f0 26D0     		beq	.L167
 825:Drivers/STM32H7xx_HAL_Driver/Src/stm32h7xx_hal_dma.c ****     {
 2758              		.loc 1 825 0 discriminator 20
 2759 00f2 1832     		adds	r2, r2, #24
 2760 00f4 9342     		cmp	r3, r2
 2761 00f6 23D0     		beq	.L167
 825:Drivers/STM32H7xx_HAL_Driver/Src/stm32h7xx_hal_dma.c ****     {
 2762              		.loc 1 825 0 discriminator 22
 2763 00f8 1832     		adds	r2, r2, #24
 2764 00fa 9342     		cmp	r3, r2
 2765 00fc 20D0     		beq	.L167
 825:Drivers/STM32H7xx_HAL_Driver/Src/stm32h7xx_hal_dma.c ****     {
 2766              		.loc 1 825 0 discriminator 24
 2767 00fe 1832     		adds	r2, r2, #24
 2768 0100 9342     		cmp	r3, r2
 2769 0102 1DD0     		beq	.L167
 825:Drivers/STM32H7xx_HAL_Driver/Src/stm32h7xx_hal_dma.c ****     {
 2770              		.loc 1 825 0 discriminator 26
 2771 0104 1832     		adds	r2, r2, #24
 2772 0106 9342     		cmp	r3, r2
 2773 0108 1AD0     		beq	.L167
 825:Drivers/STM32H7xx_HAL_Driver/Src/stm32h7xx_hal_dma.c ****     {
 2774              		.loc 1 825 0 discriminator 28
 2775 010a 1832     		adds	r2, r2, #24
 2776 010c 9342     		cmp	r3, r2
 2777 010e 17D0     		beq	.L167
 825:Drivers/STM32H7xx_HAL_Driver/Src/stm32h7xx_hal_dma.c ****     {
 2778              		.loc 1 825 0 discriminator 30
 2779 0110 544A     		ldr	r2, .L181+8
 2780 0112 9342     		cmp	r3, r2
 2781 0114 14D0     		beq	.L167
 825:Drivers/STM32H7xx_HAL_Driver/Src/stm32h7xx_hal_dma.c ****     {
 2782              		.loc 1 825 0 discriminator 32
 2783 0116 1432     		adds	r2, r2, #20
 2784 0118 9342     		cmp	r3, r2
 2785 011a 11D0     		beq	.L167
 825:Drivers/STM32H7xx_HAL_Driver/Src/stm32h7xx_hal_dma.c ****     {
 2786              		.loc 1 825 0 discriminator 34
 2787 011c 1432     		adds	r2, r2, #20
 2788 011e 9342     		cmp	r3, r2
 2789 0120 0ED0     		beq	.L167
 825:Drivers/STM32H7xx_HAL_Driver/Src/stm32h7xx_hal_dma.c ****     {
 2790              		.loc 1 825 0 discriminator 36
 2791 0122 1432     		adds	r2, r2, #20
 2792 0124 9342     		cmp	r3, r2
 2793 0126 0BD0     		beq	.L167
 825:Drivers/STM32H7xx_HAL_Driver/Src/stm32h7xx_hal_dma.c ****     {
 2794              		.loc 1 825 0 discriminator 38
 2795 0128 1432     		adds	r2, r2, #20
 2796 012a 9342     		cmp	r3, r2
 2797 012c 08D0     		beq	.L167
 825:Drivers/STM32H7xx_HAL_Driver/Src/stm32h7xx_hal_dma.c ****     {
ARM GAS  /tmp/ccBO8Lmd.s 			page 94


 2798              		.loc 1 825 0 discriminator 40
 2799 012e 1432     		adds	r2, r2, #20
 2800 0130 9342     		cmp	r3, r2
 2801 0132 05D0     		beq	.L167
 825:Drivers/STM32H7xx_HAL_Driver/Src/stm32h7xx_hal_dma.c ****     {
 2802              		.loc 1 825 0 discriminator 42
 2803 0134 1432     		adds	r2, r2, #20
 2804 0136 9342     		cmp	r3, r2
 2805 0138 02D0     		beq	.L167
 825:Drivers/STM32H7xx_HAL_Driver/Src/stm32h7xx_hal_dma.c ****     {
 2806              		.loc 1 825 0 discriminator 44
 2807 013a 1432     		adds	r2, r2, #20
 2808 013c 9342     		cmp	r3, r2
 2809 013e 04D1     		bne	.L168
 2810              	.L167:
 828:Drivers/STM32H7xx_HAL_Driver/Src/stm32h7xx_hal_dma.c ****     }
 2811              		.loc 1 828 0 is_stmt 1
 2812 0140 226E     		ldr	r2, [r4, #96]
 2813 0142 1368     		ldr	r3, [r2]
 2814 0144 23F48073 		bic	r3, r3, #256
 2815 0148 1360     		str	r3, [r2]
 2816              	.L168:
 832:Drivers/STM32H7xx_HAL_Driver/Src/stm32h7xx_hal_dma.c **** 
 2817              		.loc 1 832 0
 2818 014a 2368     		ldr	r3, [r4]
 2819 014c 4349     		ldr	r1, .L181
 2820 014e 444A     		ldr	r2, .L181+4
 2821 0150 9342     		cmp	r3, r2
 2822 0152 18BF     		it	ne
 2823 0154 8B42     		cmpne	r3, r1
 2824 0156 2FD0     		beq	.L169
 832:Drivers/STM32H7xx_HAL_Driver/Src/stm32h7xx_hal_dma.c **** 
 2825              		.loc 1 832 0 is_stmt 0 discriminator 2
 2826 0158 1832     		adds	r2, r2, #24
 2827 015a 9342     		cmp	r3, r2
 2828 015c 2CD0     		beq	.L169
 832:Drivers/STM32H7xx_HAL_Driver/Src/stm32h7xx_hal_dma.c **** 
 2829              		.loc 1 832 0 discriminator 4
 2830 015e 1832     		adds	r2, r2, #24
 2831 0160 9342     		cmp	r3, r2
 2832 0162 29D0     		beq	.L169
 832:Drivers/STM32H7xx_HAL_Driver/Src/stm32h7xx_hal_dma.c **** 
 2833              		.loc 1 832 0 discriminator 6
 2834 0164 1832     		adds	r2, r2, #24
 2835 0166 9342     		cmp	r3, r2
 2836 0168 26D0     		beq	.L169
 832:Drivers/STM32H7xx_HAL_Driver/Src/stm32h7xx_hal_dma.c **** 
 2837              		.loc 1 832 0 discriminator 8
 2838 016a 1832     		adds	r2, r2, #24
 2839 016c 9342     		cmp	r3, r2
 2840 016e 23D0     		beq	.L169
 832:Drivers/STM32H7xx_HAL_Driver/Src/stm32h7xx_hal_dma.c **** 
 2841              		.loc 1 832 0 discriminator 10
 2842 0170 1832     		adds	r2, r2, #24
 2843 0172 9342     		cmp	r3, r2
 2844 0174 20D0     		beq	.L169
 832:Drivers/STM32H7xx_HAL_Driver/Src/stm32h7xx_hal_dma.c **** 
ARM GAS  /tmp/ccBO8Lmd.s 			page 95


 2845              		.loc 1 832 0 discriminator 12
 2846 0176 1832     		adds	r2, r2, #24
 2847 0178 9342     		cmp	r3, r2
 2848 017a 1DD0     		beq	.L169
 832:Drivers/STM32H7xx_HAL_Driver/Src/stm32h7xx_hal_dma.c **** 
 2849              		.loc 1 832 0 discriminator 14
 2850 017c 02F55672 		add	r2, r2, #856
 2851 0180 9342     		cmp	r3, r2
 2852 0182 19D0     		beq	.L169
 832:Drivers/STM32H7xx_HAL_Driver/Src/stm32h7xx_hal_dma.c **** 
 2853              		.loc 1 832 0 discriminator 16
 2854 0184 1832     		adds	r2, r2, #24
 2855 0186 9342     		cmp	r3, r2
 2856 0188 16D0     		beq	.L169
 832:Drivers/STM32H7xx_HAL_Driver/Src/stm32h7xx_hal_dma.c **** 
 2857              		.loc 1 832 0 discriminator 18
 2858 018a 1832     		adds	r2, r2, #24
 2859 018c 9342     		cmp	r3, r2
 2860 018e 13D0     		beq	.L169
 832:Drivers/STM32H7xx_HAL_Driver/Src/stm32h7xx_hal_dma.c **** 
 2861              		.loc 1 832 0 discriminator 20
 2862 0190 1832     		adds	r2, r2, #24
 2863 0192 9342     		cmp	r3, r2
 2864 0194 10D0     		beq	.L169
 832:Drivers/STM32H7xx_HAL_Driver/Src/stm32h7xx_hal_dma.c **** 
 2865              		.loc 1 832 0 discriminator 22
 2866 0196 1832     		adds	r2, r2, #24
 2867 0198 9342     		cmp	r3, r2
 2868 019a 0DD0     		beq	.L169
 832:Drivers/STM32H7xx_HAL_Driver/Src/stm32h7xx_hal_dma.c **** 
 2869              		.loc 1 832 0 discriminator 24
 2870 019c 1832     		adds	r2, r2, #24
 2871 019e 9342     		cmp	r3, r2
 2872 01a0 0AD0     		beq	.L169
 832:Drivers/STM32H7xx_HAL_Driver/Src/stm32h7xx_hal_dma.c **** 
 2873              		.loc 1 832 0 discriminator 26
 2874 01a2 1832     		adds	r2, r2, #24
 2875 01a4 9342     		cmp	r3, r2
 2876 01a6 07D0     		beq	.L169
 832:Drivers/STM32H7xx_HAL_Driver/Src/stm32h7xx_hal_dma.c **** 
 2877              		.loc 1 832 0 discriminator 28
 2878 01a8 1832     		adds	r2, r2, #24
 2879 01aa 9342     		cmp	r3, r2
 2880 01ac 04D0     		beq	.L169
 832:Drivers/STM32H7xx_HAL_Driver/Src/stm32h7xx_hal_dma.c **** 
 2881              		.loc 1 832 0 discriminator 30
 2882 01ae 1A68     		ldr	r2, [r3]
 2883 01b0 22F00102 		bic	r2, r2, #1
 2884 01b4 1A60     		str	r2, [r3]
 2885 01b6 03E0     		b	.L172
 2886              	.L169:
 832:Drivers/STM32H7xx_HAL_Driver/Src/stm32h7xx_hal_dma.c **** 
 2887              		.loc 1 832 0 discriminator 29
 2888 01b8 1A68     		ldr	r2, [r3]
 2889 01ba 22F00102 		bic	r2, r2, #1
 2890 01be 1A60     		str	r2, [r3]
 2891              	.LVL140:
ARM GAS  /tmp/ccBO8Lmd.s 			page 96


 2892              	.L172:
 835:Drivers/STM32H7xx_HAL_Driver/Src/stm32h7xx_hal_dma.c ****     {
 2893              		.loc 1 835 0 is_stmt 1
 2894 01c0 3368     		ldr	r3, [r6]
 2895 01c2 13F0010F 		tst	r3, #1
 2896 01c6 0ED0     		beq	.L180
 838:Drivers/STM32H7xx_HAL_Driver/Src/stm32h7xx_hal_dma.c ****       {
 2897              		.loc 1 838 0
 2898 01c8 FFF7FEFF 		bl	HAL_GetTick
 2899              	.LVL141:
 2900 01cc 401B     		subs	r0, r0, r5
 2901 01ce 0528     		cmp	r0, #5
 2902 01d0 F6D9     		bls	.L172
 841:Drivers/STM32H7xx_HAL_Driver/Src/stm32h7xx_hal_dma.c **** 
 2903              		.loc 1 841 0
 2904 01d2 2023     		movs	r3, #32
 2905 01d4 6365     		str	r3, [r4, #84]
 844:Drivers/STM32H7xx_HAL_Driver/Src/stm32h7xx_hal_dma.c **** 
 2906              		.loc 1 844 0
 2907 01d6 0323     		movs	r3, #3
 2908 01d8 84F83530 		strb	r3, [r4, #53]
 847:Drivers/STM32H7xx_HAL_Driver/Src/stm32h7xx_hal_dma.c **** 
 2909              		.loc 1 847 0
 2910 01dc 0023     		movs	r3, #0
 2911 01de 84F83430 		strb	r3, [r4, #52]
 849:Drivers/STM32H7xx_HAL_Driver/Src/stm32h7xx_hal_dma.c ****       }
 2912              		.loc 1 849 0
 2913 01e2 0120     		movs	r0, #1
 2914 01e4 1FE7     		b	.L163
 2915              	.L180:
 854:Drivers/STM32H7xx_HAL_Driver/Src/stm32h7xx_hal_dma.c ****     {
 2916              		.loc 1 854 0
 2917 01e6 2368     		ldr	r3, [r4]
 2918 01e8 1C49     		ldr	r1, .L181
 2919 01ea 1D4A     		ldr	r2, .L181+4
 2920 01ec 9342     		cmp	r3, r2
 2921 01ee 18BF     		it	ne
 2922 01f0 8B42     		cmpne	r3, r1
 2923 01f2 39D0     		beq	.L174
 854:Drivers/STM32H7xx_HAL_Driver/Src/stm32h7xx_hal_dma.c ****     {
 2924              		.loc 1 854 0 is_stmt 0 discriminator 2
 2925 01f4 1832     		adds	r2, r2, #24
 2926 01f6 9342     		cmp	r3, r2
 2927 01f8 36D0     		beq	.L174
 854:Drivers/STM32H7xx_HAL_Driver/Src/stm32h7xx_hal_dma.c ****     {
 2928              		.loc 1 854 0 discriminator 4
 2929 01fa 1832     		adds	r2, r2, #24
 2930 01fc 9342     		cmp	r3, r2
 2931 01fe 33D0     		beq	.L174
 854:Drivers/STM32H7xx_HAL_Driver/Src/stm32h7xx_hal_dma.c ****     {
 2932              		.loc 1 854 0 discriminator 6
 2933 0200 1832     		adds	r2, r2, #24
 2934 0202 9342     		cmp	r3, r2
 2935 0204 30D0     		beq	.L174
 854:Drivers/STM32H7xx_HAL_Driver/Src/stm32h7xx_hal_dma.c ****     {
 2936              		.loc 1 854 0 discriminator 8
 2937 0206 1832     		adds	r2, r2, #24
ARM GAS  /tmp/ccBO8Lmd.s 			page 97


 2938 0208 9342     		cmp	r3, r2
 2939 020a 2DD0     		beq	.L174
 854:Drivers/STM32H7xx_HAL_Driver/Src/stm32h7xx_hal_dma.c ****     {
 2940              		.loc 1 854 0 discriminator 10
 2941 020c 1832     		adds	r2, r2, #24
 2942 020e 9342     		cmp	r3, r2
 2943 0210 2AD0     		beq	.L174
 854:Drivers/STM32H7xx_HAL_Driver/Src/stm32h7xx_hal_dma.c ****     {
 2944              		.loc 1 854 0 discriminator 12
 2945 0212 1832     		adds	r2, r2, #24
 2946 0214 9342     		cmp	r3, r2
 2947 0216 27D0     		beq	.L174
 854:Drivers/STM32H7xx_HAL_Driver/Src/stm32h7xx_hal_dma.c ****     {
 2948              		.loc 1 854 0 discriminator 14
 2949 0218 02F55672 		add	r2, r2, #856
 2950 021c 9342     		cmp	r3, r2
 2951 021e 23D0     		beq	.L174
 854:Drivers/STM32H7xx_HAL_Driver/Src/stm32h7xx_hal_dma.c ****     {
 2952              		.loc 1 854 0 discriminator 16
 2953 0220 1832     		adds	r2, r2, #24
 2954 0222 9342     		cmp	r3, r2
 2955 0224 20D0     		beq	.L174
 854:Drivers/STM32H7xx_HAL_Driver/Src/stm32h7xx_hal_dma.c ****     {
 2956              		.loc 1 854 0 discriminator 18
 2957 0226 1832     		adds	r2, r2, #24
 2958 0228 9342     		cmp	r3, r2
 2959 022a 1DD0     		beq	.L174
 854:Drivers/STM32H7xx_HAL_Driver/Src/stm32h7xx_hal_dma.c ****     {
 2960              		.loc 1 854 0 discriminator 20
 2961 022c 1832     		adds	r2, r2, #24
 2962 022e 9342     		cmp	r3, r2
 2963 0230 1AD0     		beq	.L174
 854:Drivers/STM32H7xx_HAL_Driver/Src/stm32h7xx_hal_dma.c ****     {
 2964              		.loc 1 854 0 discriminator 22
 2965 0232 1832     		adds	r2, r2, #24
 2966 0234 9342     		cmp	r3, r2
 2967 0236 17D0     		beq	.L174
 854:Drivers/STM32H7xx_HAL_Driver/Src/stm32h7xx_hal_dma.c ****     {
 2968              		.loc 1 854 0 discriminator 24
 2969 0238 1832     		adds	r2, r2, #24
 2970 023a 9342     		cmp	r3, r2
 2971 023c 14D0     		beq	.L174
 854:Drivers/STM32H7xx_HAL_Driver/Src/stm32h7xx_hal_dma.c ****     {
 2972              		.loc 1 854 0 discriminator 26
 2973 023e 1832     		adds	r2, r2, #24
 2974 0240 9342     		cmp	r3, r2
 2975 0242 11D0     		beq	.L174
 854:Drivers/STM32H7xx_HAL_Driver/Src/stm32h7xx_hal_dma.c ****     {
 2976              		.loc 1 854 0 discriminator 28
 2977 0244 1832     		adds	r2, r2, #24
 2978 0246 9342     		cmp	r3, r2
 2979 0248 0ED0     		beq	.L174
 861:Drivers/STM32H7xx_HAL_Driver/Src/stm32h7xx_hal_dma.c ****       regs_bdma->IFCR = ((BDMA_IFCR_CGIF0) << (hdma->StreamIndex & 0x1FU));
 2980              		.loc 1 861 0 is_stmt 1
 2981 024a A16D     		ldr	r1, [r4, #88]
 2982              	.LVL142:
 862:Drivers/STM32H7xx_HAL_Driver/Src/stm32h7xx_hal_dma.c ****     }
ARM GAS  /tmp/ccBO8Lmd.s 			page 98


 2983              		.loc 1 862 0
 2984 024c E36D     		ldr	r3, [r4, #92]
 2985 024e 03F01F02 		and	r2, r3, #31
 2986 0252 0123     		movs	r3, #1
 2987 0254 9340     		lsls	r3, r3, r2
 2988 0256 4B60     		str	r3, [r1, #4]
 2989 0258 0DE0     		b	.L175
 2990              	.L182:
 2991 025a 00BF     		.align	2
 2992              	.L181:
 2993 025c 10000240 		.word	1073872912
 2994 0260 28000240 		.word	1073872936
 2995 0264 08540258 		.word	1476547592
 2996              	.LVL143:
 2997              	.L174:
 856:Drivers/STM32H7xx_HAL_Driver/Src/stm32h7xx_hal_dma.c ****       regs_dma->IFCR = 0x3FUL << (hdma->StreamIndex & 0x1FU);
 2998              		.loc 1 856 0
 2999 0268 A16D     		ldr	r1, [r4, #88]
 3000              	.LVL144:
 857:Drivers/STM32H7xx_HAL_Driver/Src/stm32h7xx_hal_dma.c ****     }
 3001              		.loc 1 857 0
 3002 026a E36D     		ldr	r3, [r4, #92]
 3003 026c 03F01F02 		and	r2, r3, #31
 3004 0270 3F23     		movs	r3, #63
 3005 0272 9340     		lsls	r3, r3, r2
 3006 0274 8B60     		str	r3, [r1, #8]
 3007              	.LVL145:
 3008              	.L175:
 865:Drivers/STM32H7xx_HAL_Driver/Src/stm32h7xx_hal_dma.c ****     {
 3009              		.loc 1 865 0
 3010 0276 2368     		ldr	r3, [r4]
 3011 0278 2E49     		ldr	r1, .L183
 3012 027a 2F4A     		ldr	r2, .L183+4
 3013 027c 9342     		cmp	r3, r2
 3014 027e 18BF     		it	ne
 3015 0280 8B42     		cmpne	r3, r1
 3016 0282 42D0     		beq	.L176
 865:Drivers/STM32H7xx_HAL_Driver/Src/stm32h7xx_hal_dma.c ****     {
 3017              		.loc 1 865 0 is_stmt 0 discriminator 2
 3018 0284 1832     		adds	r2, r2, #24
 3019 0286 9342     		cmp	r3, r2
 3020 0288 3FD0     		beq	.L176
 865:Drivers/STM32H7xx_HAL_Driver/Src/stm32h7xx_hal_dma.c ****     {
 3021              		.loc 1 865 0 discriminator 4
 3022 028a 1832     		adds	r2, r2, #24
 3023 028c 9342     		cmp	r3, r2
 3024 028e 3CD0     		beq	.L176
 865:Drivers/STM32H7xx_HAL_Driver/Src/stm32h7xx_hal_dma.c ****     {
 3025              		.loc 1 865 0 discriminator 6
 3026 0290 1832     		adds	r2, r2, #24
 3027 0292 9342     		cmp	r3, r2
 3028 0294 39D0     		beq	.L176
 865:Drivers/STM32H7xx_HAL_Driver/Src/stm32h7xx_hal_dma.c ****     {
 3029              		.loc 1 865 0 discriminator 8
 3030 0296 1832     		adds	r2, r2, #24
 3031 0298 9342     		cmp	r3, r2
 3032 029a 36D0     		beq	.L176
ARM GAS  /tmp/ccBO8Lmd.s 			page 99


 865:Drivers/STM32H7xx_HAL_Driver/Src/stm32h7xx_hal_dma.c ****     {
 3033              		.loc 1 865 0 discriminator 10
 3034 029c 1832     		adds	r2, r2, #24
 3035 029e 9342     		cmp	r3, r2
 3036 02a0 33D0     		beq	.L176
 865:Drivers/STM32H7xx_HAL_Driver/Src/stm32h7xx_hal_dma.c ****     {
 3037              		.loc 1 865 0 discriminator 12
 3038 02a2 1832     		adds	r2, r2, #24
 3039 02a4 9342     		cmp	r3, r2
 3040 02a6 30D0     		beq	.L176
 865:Drivers/STM32H7xx_HAL_Driver/Src/stm32h7xx_hal_dma.c ****     {
 3041              		.loc 1 865 0 discriminator 14
 3042 02a8 02F55672 		add	r2, r2, #856
 3043 02ac 9342     		cmp	r3, r2
 3044 02ae 2CD0     		beq	.L176
 865:Drivers/STM32H7xx_HAL_Driver/Src/stm32h7xx_hal_dma.c ****     {
 3045              		.loc 1 865 0 discriminator 16
 3046 02b0 1832     		adds	r2, r2, #24
 3047 02b2 9342     		cmp	r3, r2
 3048 02b4 29D0     		beq	.L176
 865:Drivers/STM32H7xx_HAL_Driver/Src/stm32h7xx_hal_dma.c ****     {
 3049              		.loc 1 865 0 discriminator 18
 3050 02b6 1832     		adds	r2, r2, #24
 3051 02b8 9342     		cmp	r3, r2
 3052 02ba 26D0     		beq	.L176
 865:Drivers/STM32H7xx_HAL_Driver/Src/stm32h7xx_hal_dma.c ****     {
 3053              		.loc 1 865 0 discriminator 20
 3054 02bc 1832     		adds	r2, r2, #24
 3055 02be 9342     		cmp	r3, r2
 3056 02c0 23D0     		beq	.L176
 865:Drivers/STM32H7xx_HAL_Driver/Src/stm32h7xx_hal_dma.c ****     {
 3057              		.loc 1 865 0 discriminator 22
 3058 02c2 1832     		adds	r2, r2, #24
 3059 02c4 9342     		cmp	r3, r2
 3060 02c6 20D0     		beq	.L176
 865:Drivers/STM32H7xx_HAL_Driver/Src/stm32h7xx_hal_dma.c ****     {
 3061              		.loc 1 865 0 discriminator 24
 3062 02c8 1832     		adds	r2, r2, #24
 3063 02ca 9342     		cmp	r3, r2
 3064 02cc 1DD0     		beq	.L176
 865:Drivers/STM32H7xx_HAL_Driver/Src/stm32h7xx_hal_dma.c ****     {
 3065              		.loc 1 865 0 discriminator 26
 3066 02ce 1832     		adds	r2, r2, #24
 3067 02d0 9342     		cmp	r3, r2
 3068 02d2 1AD0     		beq	.L176
 865:Drivers/STM32H7xx_HAL_Driver/Src/stm32h7xx_hal_dma.c ****     {
 3069              		.loc 1 865 0 discriminator 28
 3070 02d4 1832     		adds	r2, r2, #24
 3071 02d6 9342     		cmp	r3, r2
 3072 02d8 17D0     		beq	.L176
 865:Drivers/STM32H7xx_HAL_Driver/Src/stm32h7xx_hal_dma.c ****     {
 3073              		.loc 1 865 0 discriminator 30
 3074 02da 184A     		ldr	r2, .L183+8
 3075 02dc 9342     		cmp	r3, r2
 3076 02de 14D0     		beq	.L176
 865:Drivers/STM32H7xx_HAL_Driver/Src/stm32h7xx_hal_dma.c ****     {
 3077              		.loc 1 865 0 discriminator 32
ARM GAS  /tmp/ccBO8Lmd.s 			page 100


 3078 02e0 1432     		adds	r2, r2, #20
 3079 02e2 9342     		cmp	r3, r2
 3080 02e4 11D0     		beq	.L176
 865:Drivers/STM32H7xx_HAL_Driver/Src/stm32h7xx_hal_dma.c ****     {
 3081              		.loc 1 865 0 discriminator 34
 3082 02e6 1432     		adds	r2, r2, #20
 3083 02e8 9342     		cmp	r3, r2
 3084 02ea 0ED0     		beq	.L176
 865:Drivers/STM32H7xx_HAL_Driver/Src/stm32h7xx_hal_dma.c ****     {
 3085              		.loc 1 865 0 discriminator 36
 3086 02ec 1432     		adds	r2, r2, #20
 3087 02ee 9342     		cmp	r3, r2
 3088 02f0 0BD0     		beq	.L176
 865:Drivers/STM32H7xx_HAL_Driver/Src/stm32h7xx_hal_dma.c ****     {
 3089              		.loc 1 865 0 discriminator 38
 3090 02f2 1432     		adds	r2, r2, #20
 3091 02f4 9342     		cmp	r3, r2
 3092 02f6 08D0     		beq	.L176
 865:Drivers/STM32H7xx_HAL_Driver/Src/stm32h7xx_hal_dma.c ****     {
 3093              		.loc 1 865 0 discriminator 40
 3094 02f8 1432     		adds	r2, r2, #20
 3095 02fa 9342     		cmp	r3, r2
 3096 02fc 05D0     		beq	.L176
 865:Drivers/STM32H7xx_HAL_Driver/Src/stm32h7xx_hal_dma.c ****     {
 3097              		.loc 1 865 0 discriminator 42
 3098 02fe 1432     		adds	r2, r2, #20
 3099 0300 9342     		cmp	r3, r2
 3100 0302 02D0     		beq	.L176
 865:Drivers/STM32H7xx_HAL_Driver/Src/stm32h7xx_hal_dma.c ****     {
 3101              		.loc 1 865 0 discriminator 44
 3102 0304 1432     		adds	r2, r2, #20
 3103 0306 9342     		cmp	r3, r2
 3104 0308 0BD1     		bne	.L177
 3105              	.L176:
 868:Drivers/STM32H7xx_HAL_Driver/Src/stm32h7xx_hal_dma.c **** 
 3106              		.loc 1 868 0 is_stmt 1
 3107 030a 636E     		ldr	r3, [r4, #100]
 3108 030c A26E     		ldr	r2, [r4, #104]
 3109 030e 5A60     		str	r2, [r3, #4]
 870:Drivers/STM32H7xx_HAL_Driver/Src/stm32h7xx_hal_dma.c ****       {
 3110              		.loc 1 870 0
 3111 0310 E36E     		ldr	r3, [r4, #108]
 3112 0312 33B1     		cbz	r3, .L177
 874:Drivers/STM32H7xx_HAL_Driver/Src/stm32h7xx_hal_dma.c **** 
 3113              		.loc 1 874 0
 3114 0314 1A68     		ldr	r2, [r3]
 3115 0316 22F48072 		bic	r2, r2, #256
 3116 031a 1A60     		str	r2, [r3]
 877:Drivers/STM32H7xx_HAL_Driver/Src/stm32h7xx_hal_dma.c ****       }
 3117              		.loc 1 877 0
 3118 031c 236F     		ldr	r3, [r4, #112]
 3119 031e 626F     		ldr	r2, [r4, #116]
 3120 0320 5A60     		str	r2, [r3, #4]
 3121              	.L177:
 882:Drivers/STM32H7xx_HAL_Driver/Src/stm32h7xx_hal_dma.c **** 
 3122              		.loc 1 882 0
 3123 0322 0123     		movs	r3, #1
ARM GAS  /tmp/ccBO8Lmd.s 			page 101


 3124 0324 84F83530 		strb	r3, [r4, #53]
 885:Drivers/STM32H7xx_HAL_Driver/Src/stm32h7xx_hal_dma.c ****   }
 3125              		.loc 1 885 0
 3126 0328 0020     		movs	r0, #0
 3127 032a 84F83400 		strb	r0, [r4, #52]
 888:Drivers/STM32H7xx_HAL_Driver/Src/stm32h7xx_hal_dma.c **** }
 3128              		.loc 1 888 0
 3129 032e 7AE6     		b	.L163
 3130              	.LVL146:
 3131              	.L178:
 793:Drivers/STM32H7xx_HAL_Driver/Src/stm32h7xx_hal_dma.c ****   }
 3132              		.loc 1 793 0
 3133 0330 0120     		movs	r0, #1
 3134              	.LVL147:
 3135 0332 78E6     		b	.L163
 3136              	.L184:
 3137              		.align	2
 3138              	.L183:
 3139 0334 10000240 		.word	1073872912
 3140 0338 28000240 		.word	1073872936
 3141 033c 08540258 		.word	1476547592
 3142              		.cfi_endproc
 3143              	.LFE148:
 3145              		.section	.text.HAL_DMA_Abort_IT,"ax",%progbits
 3146              		.align	1
 3147              		.global	HAL_DMA_Abort_IT
 3148              		.syntax unified
 3149              		.thumb
 3150              		.thumb_func
 3151              		.fpu fpv5-d16
 3153              	HAL_DMA_Abort_IT:
 3154              	.LFB149:
 898:Drivers/STM32H7xx_HAL_Driver/Src/stm32h7xx_hal_dma.c ****   BDMA_Base_Registers *regs_bdma;
 3155              		.loc 1 898 0
 3156              		.cfi_startproc
 3157              		@ args = 0, pretend = 0, frame = 0
 3158              		@ frame_needed = 0, uses_anonymous_args = 0
 3159              	.LVL148:
 902:Drivers/STM32H7xx_HAL_Driver/Src/stm32h7xx_hal_dma.c ****   {
 3160              		.loc 1 902 0
 3161 0000 0028     		cmp	r0, #0
 3162 0002 00F03A81 		beq	.L197
 898:Drivers/STM32H7xx_HAL_Driver/Src/stm32h7xx_hal_dma.c ****   BDMA_Base_Registers *regs_bdma;
 3163              		.loc 1 898 0
 3164 0006 08B5     		push	{r3, lr}
 3165              	.LCFI18:
 3166              		.cfi_def_cfa_offset 8
 3167              		.cfi_offset 3, -8
 3168              		.cfi_offset 14, -4
 3169 0008 0246     		mov	r2, r0
 907:Drivers/STM32H7xx_HAL_Driver/Src/stm32h7xx_hal_dma.c ****   {
 3170              		.loc 1 907 0
 3171 000a 90F83530 		ldrb	r3, [r0, #53]	@ zero_extendqisi2
 3172 000e DBB2     		uxtb	r3, r3
 3173 0010 022B     		cmp	r3, #2
 3174 0012 03D0     		beq	.L187
 909:Drivers/STM32H7xx_HAL_Driver/Src/stm32h7xx_hal_dma.c ****     return HAL_ERROR;
ARM GAS  /tmp/ccBO8Lmd.s 			page 102


 3175              		.loc 1 909 0
 3176 0014 8023     		movs	r3, #128
 3177 0016 4365     		str	r3, [r0, #84]
 910:Drivers/STM32H7xx_HAL_Driver/Src/stm32h7xx_hal_dma.c ****   }
 3178              		.loc 1 910 0
 3179 0018 0120     		movs	r0, #1
 3180              	.LVL149:
 3181              	.L186:
 968:Drivers/STM32H7xx_HAL_Driver/Src/stm32h7xx_hal_dma.c **** 
 3182              		.loc 1 968 0
 3183 001a 08BD     		pop	{r3, pc}
 3184              	.LVL150:
 3185              	.L187:
 914:Drivers/STM32H7xx_HAL_Driver/Src/stm32h7xx_hal_dma.c ****     {
 3186              		.loc 1 914 0
 3187 001c 0368     		ldr	r3, [r0]
 3188 001e 9948     		ldr	r0, .L204
 3189              	.LVL151:
 3190 0020 9949     		ldr	r1, .L204+4
 3191 0022 8B42     		cmp	r3, r1
 3192 0024 18BF     		it	ne
 3193 0026 8342     		cmpne	r3, r0
 3194 0028 0CBF     		ite	eq
 3195 002a 0121     		moveq	r1, #1
 3196 002c 0021     		movne	r1, #0
 3197 002e 00F0E480 		beq	.L188
 914:Drivers/STM32H7xx_HAL_Driver/Src/stm32h7xx_hal_dma.c ****     {
 3198              		.loc 1 914 0 is_stmt 0 discriminator 2
 3199 0032 3030     		adds	r0, r0, #48
 3200 0034 8342     		cmp	r3, r0
 3201 0036 00F0E080 		beq	.L188
 914:Drivers/STM32H7xx_HAL_Driver/Src/stm32h7xx_hal_dma.c ****     {
 3202              		.loc 1 914 0 discriminator 4
 3203 003a 1830     		adds	r0, r0, #24
 3204 003c 8342     		cmp	r3, r0
 3205 003e 00F0DC80 		beq	.L188
 914:Drivers/STM32H7xx_HAL_Driver/Src/stm32h7xx_hal_dma.c ****     {
 3206              		.loc 1 914 0 discriminator 6
 3207 0042 1830     		adds	r0, r0, #24
 3208 0044 8342     		cmp	r3, r0
 3209 0046 00F0D880 		beq	.L188
 914:Drivers/STM32H7xx_HAL_Driver/Src/stm32h7xx_hal_dma.c ****     {
 3210              		.loc 1 914 0 discriminator 8
 3211 004a 1830     		adds	r0, r0, #24
 3212 004c 8342     		cmp	r3, r0
 3213 004e 00F0D480 		beq	.L188
 914:Drivers/STM32H7xx_HAL_Driver/Src/stm32h7xx_hal_dma.c ****     {
 3214              		.loc 1 914 0 discriminator 10
 3215 0052 1830     		adds	r0, r0, #24
 3216 0054 8342     		cmp	r3, r0
 3217 0056 00F0D080 		beq	.L188
 914:Drivers/STM32H7xx_HAL_Driver/Src/stm32h7xx_hal_dma.c ****     {
 3218              		.loc 1 914 0 discriminator 12
 3219 005a 1830     		adds	r0, r0, #24
 3220 005c 8342     		cmp	r3, r0
 3221 005e 00F0CC80 		beq	.L188
 914:Drivers/STM32H7xx_HAL_Driver/Src/stm32h7xx_hal_dma.c ****     {
ARM GAS  /tmp/ccBO8Lmd.s 			page 103


 3222              		.loc 1 914 0 discriminator 14
 3223 0062 00F55670 		add	r0, r0, #856
 3224 0066 8342     		cmp	r3, r0
 3225 0068 00F0C780 		beq	.L188
 914:Drivers/STM32H7xx_HAL_Driver/Src/stm32h7xx_hal_dma.c ****     {
 3226              		.loc 1 914 0 discriminator 16
 3227 006c 1830     		adds	r0, r0, #24
 3228 006e 8342     		cmp	r3, r0
 3229 0070 00F0C380 		beq	.L188
 914:Drivers/STM32H7xx_HAL_Driver/Src/stm32h7xx_hal_dma.c ****     {
 3230              		.loc 1 914 0 discriminator 18
 3231 0074 1830     		adds	r0, r0, #24
 3232 0076 8342     		cmp	r3, r0
 3233 0078 00F0BF80 		beq	.L188
 914:Drivers/STM32H7xx_HAL_Driver/Src/stm32h7xx_hal_dma.c ****     {
 3234              		.loc 1 914 0 discriminator 20
 3235 007c 1830     		adds	r0, r0, #24
 3236 007e 8342     		cmp	r3, r0
 3237 0080 00F0BB80 		beq	.L188
 914:Drivers/STM32H7xx_HAL_Driver/Src/stm32h7xx_hal_dma.c ****     {
 3238              		.loc 1 914 0 discriminator 22
 3239 0084 1830     		adds	r0, r0, #24
 3240 0086 8342     		cmp	r3, r0
 3241 0088 00F0B780 		beq	.L188
 914:Drivers/STM32H7xx_HAL_Driver/Src/stm32h7xx_hal_dma.c ****     {
 3242              		.loc 1 914 0 discriminator 24
 3243 008c 1830     		adds	r0, r0, #24
 3244 008e 8342     		cmp	r3, r0
 3245 0090 00F0B380 		beq	.L188
 914:Drivers/STM32H7xx_HAL_Driver/Src/stm32h7xx_hal_dma.c ****     {
 3246              		.loc 1 914 0 discriminator 26
 3247 0094 1830     		adds	r0, r0, #24
 3248 0096 8342     		cmp	r3, r0
 3249 0098 00F0AF80 		beq	.L188
 914:Drivers/STM32H7xx_HAL_Driver/Src/stm32h7xx_hal_dma.c ****     {
 3250              		.loc 1 914 0 discriminator 28
 3251 009c 1830     		adds	r0, r0, #24
 3252 009e 8342     		cmp	r3, r0
 3253 00a0 00F0AB80 		beq	.L188
 925:Drivers/STM32H7xx_HAL_Driver/Src/stm32h7xx_hal_dma.c **** 
 3254              		.loc 1 925 0 is_stmt 1
 3255 00a4 1968     		ldr	r1, [r3]
 3256 00a6 21F00E01 		bic	r1, r1, #14
 3257 00aa 1960     		str	r1, [r3]
 928:Drivers/STM32H7xx_HAL_Driver/Src/stm32h7xx_hal_dma.c **** 
 3258              		.loc 1 928 0
 3259 00ac 1368     		ldr	r3, [r2]
 3260 00ae A0F59560 		sub	r0, r0, #1192
 3261 00b2 7549     		ldr	r1, .L204+4
 3262 00b4 8B42     		cmp	r3, r1
 3263 00b6 18BF     		it	ne
 3264 00b8 8342     		cmpne	r3, r0
 3265 00ba 2BD0     		beq	.L189
 928:Drivers/STM32H7xx_HAL_Driver/Src/stm32h7xx_hal_dma.c **** 
 3266              		.loc 1 928 0 is_stmt 0 discriminator 2
 3267 00bc 7349     		ldr	r1, .L204+8
 3268 00be 8B42     		cmp	r3, r1
ARM GAS  /tmp/ccBO8Lmd.s 			page 104


 3269 00c0 28D0     		beq	.L189
 928:Drivers/STM32H7xx_HAL_Driver/Src/stm32h7xx_hal_dma.c **** 
 3270              		.loc 1 928 0 discriminator 4
 3271 00c2 1831     		adds	r1, r1, #24
 3272 00c4 8B42     		cmp	r3, r1
 3273 00c6 25D0     		beq	.L189
 928:Drivers/STM32H7xx_HAL_Driver/Src/stm32h7xx_hal_dma.c **** 
 3274              		.loc 1 928 0 discriminator 6
 3275 00c8 1831     		adds	r1, r1, #24
 3276 00ca 8B42     		cmp	r3, r1
 3277 00cc 22D0     		beq	.L189
 928:Drivers/STM32H7xx_HAL_Driver/Src/stm32h7xx_hal_dma.c **** 
 3278              		.loc 1 928 0 discriminator 8
 3279 00ce 1831     		adds	r1, r1, #24
 3280 00d0 8B42     		cmp	r3, r1
 3281 00d2 1FD0     		beq	.L189
 928:Drivers/STM32H7xx_HAL_Driver/Src/stm32h7xx_hal_dma.c **** 
 3282              		.loc 1 928 0 discriminator 10
 3283 00d4 1831     		adds	r1, r1, #24
 3284 00d6 8B42     		cmp	r3, r1
 3285 00d8 1CD0     		beq	.L189
 928:Drivers/STM32H7xx_HAL_Driver/Src/stm32h7xx_hal_dma.c **** 
 3286              		.loc 1 928 0 discriminator 12
 3287 00da 1831     		adds	r1, r1, #24
 3288 00dc 8B42     		cmp	r3, r1
 3289 00de 19D0     		beq	.L189
 928:Drivers/STM32H7xx_HAL_Driver/Src/stm32h7xx_hal_dma.c **** 
 3290              		.loc 1 928 0 discriminator 14
 3291 00e0 01F55671 		add	r1, r1, #856
 3292 00e4 8B42     		cmp	r3, r1
 3293 00e6 15D0     		beq	.L189
 928:Drivers/STM32H7xx_HAL_Driver/Src/stm32h7xx_hal_dma.c **** 
 3294              		.loc 1 928 0 discriminator 16
 3295 00e8 1831     		adds	r1, r1, #24
 3296 00ea 8B42     		cmp	r3, r1
 3297 00ec 12D0     		beq	.L189
 928:Drivers/STM32H7xx_HAL_Driver/Src/stm32h7xx_hal_dma.c **** 
 3298              		.loc 1 928 0 discriminator 18
 3299 00ee 1831     		adds	r1, r1, #24
 3300 00f0 8B42     		cmp	r3, r1
 3301 00f2 0FD0     		beq	.L189
 928:Drivers/STM32H7xx_HAL_Driver/Src/stm32h7xx_hal_dma.c **** 
 3302              		.loc 1 928 0 discriminator 20
 3303 00f4 1831     		adds	r1, r1, #24
 3304 00f6 8B42     		cmp	r3, r1
 3305 00f8 0CD0     		beq	.L189
 928:Drivers/STM32H7xx_HAL_Driver/Src/stm32h7xx_hal_dma.c **** 
 3306              		.loc 1 928 0 discriminator 22
 3307 00fa 1831     		adds	r1, r1, #24
 3308 00fc 8B42     		cmp	r3, r1
 3309 00fe 09D0     		beq	.L189
 928:Drivers/STM32H7xx_HAL_Driver/Src/stm32h7xx_hal_dma.c **** 
 3310              		.loc 1 928 0 discriminator 24
 3311 0100 1831     		adds	r1, r1, #24
 3312 0102 8B42     		cmp	r3, r1
 3313 0104 06D0     		beq	.L189
 928:Drivers/STM32H7xx_HAL_Driver/Src/stm32h7xx_hal_dma.c **** 
ARM GAS  /tmp/ccBO8Lmd.s 			page 105


 3314              		.loc 1 928 0 discriminator 26
 3315 0106 1831     		adds	r1, r1, #24
 3316 0108 8B42     		cmp	r3, r1
 3317 010a 03D0     		beq	.L189
 928:Drivers/STM32H7xx_HAL_Driver/Src/stm32h7xx_hal_dma.c **** 
 3318              		.loc 1 928 0 discriminator 28
 3319 010c 1831     		adds	r1, r1, #24
 3320 010e 8B42     		cmp	r3, r1
 3321 0110 40F0AE80 		bne	.L193
 3322              	.L189:
 928:Drivers/STM32H7xx_HAL_Driver/Src/stm32h7xx_hal_dma.c **** 
 3323              		.loc 1 928 0 discriminator 29
 3324 0114 1968     		ldr	r1, [r3]
 3325 0116 21F00101 		bic	r1, r1, #1
 3326 011a 1960     		str	r1, [r3]
 3327              	.L194:
 930:Drivers/STM32H7xx_HAL_Driver/Src/stm32h7xx_hal_dma.c ****       {
 3328              		.loc 1 930 0 is_stmt 1
 3329 011c 1368     		ldr	r3, [r2]
 3330 011e 5948     		ldr	r0, .L204
 3331 0120 5949     		ldr	r1, .L204+4
 3332 0122 8B42     		cmp	r3, r1
 3333 0124 18BF     		it	ne
 3334 0126 8342     		cmpne	r3, r0
 3335 0128 42D0     		beq	.L195
 930:Drivers/STM32H7xx_HAL_Driver/Src/stm32h7xx_hal_dma.c ****       {
 3336              		.loc 1 930 0 is_stmt 0 discriminator 2
 3337 012a 1831     		adds	r1, r1, #24
 3338 012c 8B42     		cmp	r3, r1
 3339 012e 3FD0     		beq	.L195
 930:Drivers/STM32H7xx_HAL_Driver/Src/stm32h7xx_hal_dma.c ****       {
 3340              		.loc 1 930 0 discriminator 4
 3341 0130 1831     		adds	r1, r1, #24
 3342 0132 8B42     		cmp	r3, r1
 3343 0134 3CD0     		beq	.L195
 930:Drivers/STM32H7xx_HAL_Driver/Src/stm32h7xx_hal_dma.c ****       {
 3344              		.loc 1 930 0 discriminator 6
 3345 0136 1831     		adds	r1, r1, #24
 3346 0138 8B42     		cmp	r3, r1
 3347 013a 39D0     		beq	.L195
 930:Drivers/STM32H7xx_HAL_Driver/Src/stm32h7xx_hal_dma.c ****       {
 3348              		.loc 1 930 0 discriminator 8
 3349 013c 1831     		adds	r1, r1, #24
 3350 013e 8B42     		cmp	r3, r1
 3351 0140 36D0     		beq	.L195
 930:Drivers/STM32H7xx_HAL_Driver/Src/stm32h7xx_hal_dma.c ****       {
 3352              		.loc 1 930 0 discriminator 10
 3353 0142 1831     		adds	r1, r1, #24
 3354 0144 8B42     		cmp	r3, r1
 3355 0146 33D0     		beq	.L195
 930:Drivers/STM32H7xx_HAL_Driver/Src/stm32h7xx_hal_dma.c ****       {
 3356              		.loc 1 930 0 discriminator 12
 3357 0148 1831     		adds	r1, r1, #24
 3358 014a 8B42     		cmp	r3, r1
 3359 014c 30D0     		beq	.L195
 930:Drivers/STM32H7xx_HAL_Driver/Src/stm32h7xx_hal_dma.c ****       {
 3360              		.loc 1 930 0 discriminator 14
ARM GAS  /tmp/ccBO8Lmd.s 			page 106


 3361 014e 01F55671 		add	r1, r1, #856
 3362 0152 8B42     		cmp	r3, r1
 3363 0154 2CD0     		beq	.L195
 930:Drivers/STM32H7xx_HAL_Driver/Src/stm32h7xx_hal_dma.c ****       {
 3364              		.loc 1 930 0 discriminator 16
 3365 0156 1831     		adds	r1, r1, #24
 3366 0158 8B42     		cmp	r3, r1
 3367 015a 29D0     		beq	.L195
 930:Drivers/STM32H7xx_HAL_Driver/Src/stm32h7xx_hal_dma.c ****       {
 3368              		.loc 1 930 0 discriminator 18
 3369 015c 1831     		adds	r1, r1, #24
 3370 015e 8B42     		cmp	r3, r1
 3371 0160 26D0     		beq	.L195
 930:Drivers/STM32H7xx_HAL_Driver/Src/stm32h7xx_hal_dma.c ****       {
 3372              		.loc 1 930 0 discriminator 20
 3373 0162 1831     		adds	r1, r1, #24
 3374 0164 8B42     		cmp	r3, r1
 3375 0166 23D0     		beq	.L195
 930:Drivers/STM32H7xx_HAL_Driver/Src/stm32h7xx_hal_dma.c ****       {
 3376              		.loc 1 930 0 discriminator 22
 3377 0168 1831     		adds	r1, r1, #24
 3378 016a 8B42     		cmp	r3, r1
 3379 016c 20D0     		beq	.L195
 930:Drivers/STM32H7xx_HAL_Driver/Src/stm32h7xx_hal_dma.c ****       {
 3380              		.loc 1 930 0 discriminator 24
 3381 016e 1831     		adds	r1, r1, #24
 3382 0170 8B42     		cmp	r3, r1
 3383 0172 1DD0     		beq	.L195
 930:Drivers/STM32H7xx_HAL_Driver/Src/stm32h7xx_hal_dma.c ****       {
 3384              		.loc 1 930 0 discriminator 26
 3385 0174 1831     		adds	r1, r1, #24
 3386 0176 8B42     		cmp	r3, r1
 3387 0178 1AD0     		beq	.L195
 930:Drivers/STM32H7xx_HAL_Driver/Src/stm32h7xx_hal_dma.c ****       {
 3388              		.loc 1 930 0 discriminator 28
 3389 017a 1831     		adds	r1, r1, #24
 3390 017c 8B42     		cmp	r3, r1
 3391 017e 17D0     		beq	.L195
 930:Drivers/STM32H7xx_HAL_Driver/Src/stm32h7xx_hal_dma.c ****       {
 3392              		.loc 1 930 0 discriminator 30
 3393 0180 4349     		ldr	r1, .L204+12
 3394 0182 8B42     		cmp	r3, r1
 3395 0184 14D0     		beq	.L195
 930:Drivers/STM32H7xx_HAL_Driver/Src/stm32h7xx_hal_dma.c ****       {
 3396              		.loc 1 930 0 discriminator 32
 3397 0186 1431     		adds	r1, r1, #20
 3398 0188 8B42     		cmp	r3, r1
 3399 018a 11D0     		beq	.L195
 930:Drivers/STM32H7xx_HAL_Driver/Src/stm32h7xx_hal_dma.c ****       {
 3400              		.loc 1 930 0 discriminator 34
 3401 018c 1431     		adds	r1, r1, #20
 3402 018e 8B42     		cmp	r3, r1
 3403 0190 0ED0     		beq	.L195
 930:Drivers/STM32H7xx_HAL_Driver/Src/stm32h7xx_hal_dma.c ****       {
 3404              		.loc 1 930 0 discriminator 36
 3405 0192 1431     		adds	r1, r1, #20
 3406 0194 8B42     		cmp	r3, r1
ARM GAS  /tmp/ccBO8Lmd.s 			page 107


 3407 0196 0BD0     		beq	.L195
 930:Drivers/STM32H7xx_HAL_Driver/Src/stm32h7xx_hal_dma.c ****       {
 3408              		.loc 1 930 0 discriminator 38
 3409 0198 1431     		adds	r1, r1, #20
 3410 019a 8B42     		cmp	r3, r1
 3411 019c 08D0     		beq	.L195
 930:Drivers/STM32H7xx_HAL_Driver/Src/stm32h7xx_hal_dma.c ****       {
 3412              		.loc 1 930 0 discriminator 40
 3413 019e 1431     		adds	r1, r1, #20
 3414 01a0 8B42     		cmp	r3, r1
 3415 01a2 05D0     		beq	.L195
 930:Drivers/STM32H7xx_HAL_Driver/Src/stm32h7xx_hal_dma.c ****       {
 3416              		.loc 1 930 0 discriminator 42
 3417 01a4 1431     		adds	r1, r1, #20
 3418 01a6 8B42     		cmp	r3, r1
 3419 01a8 02D0     		beq	.L195
 930:Drivers/STM32H7xx_HAL_Driver/Src/stm32h7xx_hal_dma.c ****       {
 3420              		.loc 1 930 0 discriminator 44
 3421 01aa 1431     		adds	r1, r1, #20
 3422 01ac 8B42     		cmp	r3, r1
 3423 01ae 17D1     		bne	.L196
 3424              	.L195:
 933:Drivers/STM32H7xx_HAL_Driver/Src/stm32h7xx_hal_dma.c **** 
 3425              		.loc 1 933 0 is_stmt 1
 3426 01b0 116E     		ldr	r1, [r2, #96]
 3427 01b2 0B68     		ldr	r3, [r1]
 3428 01b4 23F48073 		bic	r3, r3, #256
 3429 01b8 0B60     		str	r3, [r1]
 936:Drivers/STM32H7xx_HAL_Driver/Src/stm32h7xx_hal_dma.c ****         regs_bdma->IFCR = ((BDMA_IFCR_CGIF0) << (hdma->StreamIndex & 0x1FU));
 3430              		.loc 1 936 0
 3431 01ba 906D     		ldr	r0, [r2, #88]
 3432              	.LVL152:
 937:Drivers/STM32H7xx_HAL_Driver/Src/stm32h7xx_hal_dma.c **** 
 3433              		.loc 1 937 0
 3434 01bc D36D     		ldr	r3, [r2, #92]
 3435 01be 03F01F01 		and	r1, r3, #31
 3436 01c2 0123     		movs	r3, #1
 3437 01c4 8B40     		lsls	r3, r3, r1
 3438 01c6 4360     		str	r3, [r0, #4]
 940:Drivers/STM32H7xx_HAL_Driver/Src/stm32h7xx_hal_dma.c **** 
 3439              		.loc 1 940 0
 3440 01c8 536E     		ldr	r3, [r2, #100]
 3441 01ca 916E     		ldr	r1, [r2, #104]
 3442 01cc 5960     		str	r1, [r3, #4]
 942:Drivers/STM32H7xx_HAL_Driver/Src/stm32h7xx_hal_dma.c ****         {
 3443              		.loc 1 942 0
 3444 01ce D36E     		ldr	r3, [r2, #108]
 3445 01d0 33B1     		cbz	r3, .L196
 946:Drivers/STM32H7xx_HAL_Driver/Src/stm32h7xx_hal_dma.c **** 
 3446              		.loc 1 946 0
 3447 01d2 1968     		ldr	r1, [r3]
 3448 01d4 21F48071 		bic	r1, r1, #256
 3449 01d8 1960     		str	r1, [r3]
 949:Drivers/STM32H7xx_HAL_Driver/Src/stm32h7xx_hal_dma.c ****         }
 3450              		.loc 1 949 0
 3451 01da 136F     		ldr	r3, [r2, #112]
 3452 01dc 516F     		ldr	r1, [r2, #116]
ARM GAS  /tmp/ccBO8Lmd.s 			page 108


 3453 01de 5960     		str	r1, [r3, #4]
 3454              	.LVL153:
 3455              	.L196:
 954:Drivers/STM32H7xx_HAL_Driver/Src/stm32h7xx_hal_dma.c **** 
 3456              		.loc 1 954 0
 3457 01e0 0123     		movs	r3, #1
 3458 01e2 82F83530 		strb	r3, [r2, #53]
 957:Drivers/STM32H7xx_HAL_Driver/Src/stm32h7xx_hal_dma.c **** 
 3459              		.loc 1 957 0
 3460 01e6 0023     		movs	r3, #0
 3461 01e8 82F83430 		strb	r3, [r2, #52]
 960:Drivers/STM32H7xx_HAL_Driver/Src/stm32h7xx_hal_dma.c ****       {
 3462              		.loc 1 960 0
 3463 01ec 136D     		ldr	r3, [r2, #80]
 3464 01ee 002B     		cmp	r3, #0
 3465 01f0 45D0     		beq	.L198
 3466 01f2 1046     		mov	r0, r2
 962:Drivers/STM32H7xx_HAL_Driver/Src/stm32h7xx_hal_dma.c ****       }
 3467              		.loc 1 962 0
 3468 01f4 9847     		blx	r3
 3469              	.LVL154:
 967:Drivers/STM32H7xx_HAL_Driver/Src/stm32h7xx_hal_dma.c **** }
 3470              		.loc 1 967 0
 3471 01f6 0020     		movs	r0, #0
 3472 01f8 0FE7     		b	.L186
 3473              	.LVL155:
 3474              	.L188:
 917:Drivers/STM32H7xx_HAL_Driver/Src/stm32h7xx_hal_dma.c **** 
 3475              		.loc 1 917 0
 3476 01fa 0420     		movs	r0, #4
 3477 01fc 82F83500 		strb	r0, [r2, #53]
 920:Drivers/STM32H7xx_HAL_Driver/Src/stm32h7xx_hal_dma.c ****     }
 3478              		.loc 1 920 0
 3479 0200 81BB     		cbnz	r1, .L191
 920:Drivers/STM32H7xx_HAL_Driver/Src/stm32h7xx_hal_dma.c ****     }
 3480              		.loc 1 920 0 is_stmt 0 discriminator 2
 3481 0202 224A     		ldr	r2, .L204+8
 3482              	.LVL156:
 3483 0204 9342     		cmp	r3, r2
 3484 0206 2DD0     		beq	.L191
 920:Drivers/STM32H7xx_HAL_Driver/Src/stm32h7xx_hal_dma.c ****     }
 3485              		.loc 1 920 0 discriminator 4
 3486 0208 1832     		adds	r2, r2, #24
 3487 020a 9342     		cmp	r3, r2
 3488 020c 2AD0     		beq	.L191
 920:Drivers/STM32H7xx_HAL_Driver/Src/stm32h7xx_hal_dma.c ****     }
 3489              		.loc 1 920 0 discriminator 6
 3490 020e 1832     		adds	r2, r2, #24
 3491 0210 9342     		cmp	r3, r2
 3492 0212 27D0     		beq	.L191
 920:Drivers/STM32H7xx_HAL_Driver/Src/stm32h7xx_hal_dma.c ****     }
 3493              		.loc 1 920 0 discriminator 8
 3494 0214 1832     		adds	r2, r2, #24
 3495 0216 9342     		cmp	r3, r2
 3496 0218 24D0     		beq	.L191
 920:Drivers/STM32H7xx_HAL_Driver/Src/stm32h7xx_hal_dma.c ****     }
 3497              		.loc 1 920 0 discriminator 10
ARM GAS  /tmp/ccBO8Lmd.s 			page 109


 3498 021a 1832     		adds	r2, r2, #24
 3499 021c 9342     		cmp	r3, r2
 3500 021e 21D0     		beq	.L191
 920:Drivers/STM32H7xx_HAL_Driver/Src/stm32h7xx_hal_dma.c ****     }
 3501              		.loc 1 920 0 discriminator 12
 3502 0220 1832     		adds	r2, r2, #24
 3503 0222 9342     		cmp	r3, r2
 3504 0224 1ED0     		beq	.L191
 920:Drivers/STM32H7xx_HAL_Driver/Src/stm32h7xx_hal_dma.c ****     }
 3505              		.loc 1 920 0 discriminator 14
 3506 0226 02F55672 		add	r2, r2, #856
 3507 022a 9342     		cmp	r3, r2
 3508 022c 1AD0     		beq	.L191
 920:Drivers/STM32H7xx_HAL_Driver/Src/stm32h7xx_hal_dma.c ****     }
 3509              		.loc 1 920 0 discriminator 16
 3510 022e 1832     		adds	r2, r2, #24
 3511 0230 9342     		cmp	r3, r2
 3512 0232 17D0     		beq	.L191
 920:Drivers/STM32H7xx_HAL_Driver/Src/stm32h7xx_hal_dma.c ****     }
 3513              		.loc 1 920 0 discriminator 18
 3514 0234 1832     		adds	r2, r2, #24
 3515 0236 9342     		cmp	r3, r2
 3516 0238 14D0     		beq	.L191
 920:Drivers/STM32H7xx_HAL_Driver/Src/stm32h7xx_hal_dma.c ****     }
 3517              		.loc 1 920 0 discriminator 20
 3518 023a 1832     		adds	r2, r2, #24
 3519 023c 9342     		cmp	r3, r2
 3520 023e 11D0     		beq	.L191
 920:Drivers/STM32H7xx_HAL_Driver/Src/stm32h7xx_hal_dma.c ****     }
 3521              		.loc 1 920 0 discriminator 22
 3522 0240 1832     		adds	r2, r2, #24
 3523 0242 9342     		cmp	r3, r2
 3524 0244 0ED0     		beq	.L191
 920:Drivers/STM32H7xx_HAL_Driver/Src/stm32h7xx_hal_dma.c ****     }
 3525              		.loc 1 920 0 discriminator 24
 3526 0246 1832     		adds	r2, r2, #24
 3527 0248 9342     		cmp	r3, r2
 3528 024a 0BD0     		beq	.L191
 920:Drivers/STM32H7xx_HAL_Driver/Src/stm32h7xx_hal_dma.c ****     }
 3529              		.loc 1 920 0 discriminator 26
 3530 024c 1832     		adds	r2, r2, #24
 3531 024e 9342     		cmp	r3, r2
 3532 0250 08D0     		beq	.L191
 920:Drivers/STM32H7xx_HAL_Driver/Src/stm32h7xx_hal_dma.c ****     }
 3533              		.loc 1 920 0 discriminator 28
 3534 0252 1832     		adds	r2, r2, #24
 3535 0254 9342     		cmp	r3, r2
 3536 0256 05D0     		beq	.L191
 920:Drivers/STM32H7xx_HAL_Driver/Src/stm32h7xx_hal_dma.c ****     }
 3537              		.loc 1 920 0 discriminator 30
 3538 0258 1A68     		ldr	r2, [r3]
 3539 025a 22F00102 		bic	r2, r2, #1
 3540 025e 1A60     		str	r2, [r3]
 967:Drivers/STM32H7xx_HAL_Driver/Src/stm32h7xx_hal_dma.c **** }
 3541              		.loc 1 967 0 is_stmt 1 discriminator 30
 3542 0260 0020     		movs	r0, #0
 3543 0262 DAE6     		b	.L186
ARM GAS  /tmp/ccBO8Lmd.s 			page 110


 3544              	.L191:
 920:Drivers/STM32H7xx_HAL_Driver/Src/stm32h7xx_hal_dma.c ****     }
 3545              		.loc 1 920 0 discriminator 29
 3546 0264 1A68     		ldr	r2, [r3]
 3547 0266 22F00102 		bic	r2, r2, #1
 3548 026a 1A60     		str	r2, [r3]
 967:Drivers/STM32H7xx_HAL_Driver/Src/stm32h7xx_hal_dma.c **** }
 3549              		.loc 1 967 0 discriminator 29
 3550 026c 0020     		movs	r0, #0
 920:Drivers/STM32H7xx_HAL_Driver/Src/stm32h7xx_hal_dma.c ****     }
 3551              		.loc 1 920 0 discriminator 29
 3552 026e D4E6     		b	.L186
 3553              	.LVL157:
 3554              	.L193:
 928:Drivers/STM32H7xx_HAL_Driver/Src/stm32h7xx_hal_dma.c **** 
 3555              		.loc 1 928 0 discriminator 30
 3556 0270 1968     		ldr	r1, [r3]
 3557 0272 21F00101 		bic	r1, r1, #1
 3558 0276 1960     		str	r1, [r3]
 3559 0278 50E7     		b	.L194
 3560              	.LVL158:
 3561              	.L197:
 3562              	.LCFI19:
 3563              		.cfi_def_cfa_offset 0
 3564              		.cfi_restore 3
 3565              		.cfi_restore 14
 904:Drivers/STM32H7xx_HAL_Driver/Src/stm32h7xx_hal_dma.c ****   }
 3566              		.loc 1 904 0
 3567 027a 0120     		movs	r0, #1
 3568              	.LVL159:
 968:Drivers/STM32H7xx_HAL_Driver/Src/stm32h7xx_hal_dma.c **** 
 3569              		.loc 1 968 0
 3570 027c 7047     		bx	lr
 3571              	.LVL160:
 3572              	.L198:
 3573              	.LCFI20:
 3574              		.cfi_def_cfa_offset 8
 3575              		.cfi_offset 3, -8
 3576              		.cfi_offset 14, -4
 967:Drivers/STM32H7xx_HAL_Driver/Src/stm32h7xx_hal_dma.c **** }
 3577              		.loc 1 967 0
 3578 027e 0020     		movs	r0, #0
 3579 0280 CBE6     		b	.L186
 3580              	.L205:
 3581 0282 00BF     		.align	2
 3582              	.L204:
 3583 0284 10000240 		.word	1073872912
 3584 0288 28000240 		.word	1073872936
 3585 028c 40000240 		.word	1073872960
 3586 0290 08540258 		.word	1476547592
 3587              		.cfi_endproc
 3588              	.LFE149:
 3590              		.section	.text.HAL_DMA_PollForTransfer,"ax",%progbits
 3591              		.align	1
 3592              		.global	HAL_DMA_PollForTransfer
 3593              		.syntax unified
 3594              		.thumb
ARM GAS  /tmp/ccBO8Lmd.s 			page 111


 3595              		.thumb_func
 3596              		.fpu fpv5-d16
 3598              	HAL_DMA_PollForTransfer:
 3599              	.LFB150:
 982:Drivers/STM32H7xx_HAL_Driver/Src/stm32h7xx_hal_dma.c ****   HAL_StatusTypeDef status = HAL_OK;
 3600              		.loc 1 982 0
 3601              		.cfi_startproc
 3602              		@ args = 0, pretend = 0, frame = 0
 3603              		@ frame_needed = 0, uses_anonymous_args = 0
 3604              	.LVL161:
 3605 0000 2DE9F047 		push	{r4, r5, r6, r7, r8, r9, r10, lr}
 3606              	.LCFI21:
 3607              		.cfi_def_cfa_offset 32
 3608              		.cfi_offset 4, -32
 3609              		.cfi_offset 5, -28
 3610              		.cfi_offset 6, -24
 3611              		.cfi_offset 7, -20
 3612              		.cfi_offset 8, -16
 3613              		.cfi_offset 9, -12
 3614              		.cfi_offset 10, -8
 3615              		.cfi_offset 14, -4
 3616 0004 0446     		mov	r4, r0
 3617 0006 8A46     		mov	r10, r1
 3618 0008 1646     		mov	r6, r2
 3619              	.LVL162:
 985:Drivers/STM32H7xx_HAL_Driver/Src/stm32h7xx_hal_dma.c **** 
 3620              		.loc 1 985 0
 3621 000a FFF7FEFF 		bl	HAL_GetTick
 3622              	.LVL163:
 993:Drivers/STM32H7xx_HAL_Driver/Src/stm32h7xx_hal_dma.c ****   {
 3623              		.loc 1 993 0
 3624 000e 002C     		cmp	r4, #0
 3625 0010 00F00F82 		beq	.L234
 3626 0014 8146     		mov	r9, r0
 998:Drivers/STM32H7xx_HAL_Driver/Src/stm32h7xx_hal_dma.c ****   {
 3627              		.loc 1 998 0
 3628 0016 94F83530 		ldrb	r3, [r4, #53]	@ zero_extendqisi2
 3629 001a DBB2     		uxtb	r3, r3
 3630 001c 022B     		cmp	r3, #2
 3631 001e 07D0     		beq	.L208
1001:Drivers/STM32H7xx_HAL_Driver/Src/stm32h7xx_hal_dma.c ****     __HAL_UNLOCK(hdma);
 3632              		.loc 1 1001 0
 3633 0020 8023     		movs	r3, #128
 3634 0022 6365     		str	r3, [r4, #84]
1002:Drivers/STM32H7xx_HAL_Driver/Src/stm32h7xx_hal_dma.c **** 
 3635              		.loc 1 1002 0
 3636 0024 0023     		movs	r3, #0
 3637 0026 84F83430 		strb	r3, [r4, #52]
1004:Drivers/STM32H7xx_HAL_Driver/Src/stm32h7xx_hal_dma.c ****   }
 3638              		.loc 1 1004 0
 3639 002a 0120     		movs	r0, #1
 3640              	.LVL164:
 3641              	.L207:
1200:Drivers/STM32H7xx_HAL_Driver/Src/stm32h7xx_hal_dma.c **** 
 3642              		.loc 1 1200 0
 3643 002c BDE8F087 		pop	{r4, r5, r6, r7, r8, r9, r10, pc}
 3644              	.LVL165:
ARM GAS  /tmp/ccBO8Lmd.s 			page 112


 3645              	.L208:
1007:Drivers/STM32H7xx_HAL_Driver/Src/stm32h7xx_hal_dma.c ****   {
 3646              		.loc 1 1007 0
 3647 0030 2368     		ldr	r3, [r4]
 3648 0032 B749     		ldr	r1, .L242
 3649 0034 B74A     		ldr	r2, .L242+4
 3650 0036 9342     		cmp	r3, r2
 3651 0038 18BF     		it	ne
 3652 003a 8B42     		cmpne	r3, r1
 3653 003c 3CD0     		beq	.L209
1007:Drivers/STM32H7xx_HAL_Driver/Src/stm32h7xx_hal_dma.c ****   {
 3654              		.loc 1 1007 0 is_stmt 0 discriminator 2
 3655 003e 1832     		adds	r2, r2, #24
 3656 0040 9342     		cmp	r3, r2
 3657 0042 39D0     		beq	.L209
1007:Drivers/STM32H7xx_HAL_Driver/Src/stm32h7xx_hal_dma.c ****   {
 3658              		.loc 1 1007 0 discriminator 4
 3659 0044 1832     		adds	r2, r2, #24
 3660 0046 9342     		cmp	r3, r2
 3661 0048 36D0     		beq	.L209
1007:Drivers/STM32H7xx_HAL_Driver/Src/stm32h7xx_hal_dma.c ****   {
 3662              		.loc 1 1007 0 discriminator 6
 3663 004a 1832     		adds	r2, r2, #24
 3664 004c 9342     		cmp	r3, r2
 3665 004e 33D0     		beq	.L209
1007:Drivers/STM32H7xx_HAL_Driver/Src/stm32h7xx_hal_dma.c ****   {
 3666              		.loc 1 1007 0 discriminator 8
 3667 0050 1832     		adds	r2, r2, #24
 3668 0052 9342     		cmp	r3, r2
 3669 0054 30D0     		beq	.L209
1007:Drivers/STM32H7xx_HAL_Driver/Src/stm32h7xx_hal_dma.c ****   {
 3670              		.loc 1 1007 0 discriminator 10
 3671 0056 1832     		adds	r2, r2, #24
 3672 0058 9342     		cmp	r3, r2
 3673 005a 2DD0     		beq	.L209
1007:Drivers/STM32H7xx_HAL_Driver/Src/stm32h7xx_hal_dma.c ****   {
 3674              		.loc 1 1007 0 discriminator 12
 3675 005c 1832     		adds	r2, r2, #24
 3676 005e 9342     		cmp	r3, r2
 3677 0060 2AD0     		beq	.L209
1007:Drivers/STM32H7xx_HAL_Driver/Src/stm32h7xx_hal_dma.c ****   {
 3678              		.loc 1 1007 0 discriminator 14
 3679 0062 02F55672 		add	r2, r2, #856
 3680 0066 9342     		cmp	r3, r2
 3681 0068 26D0     		beq	.L209
1007:Drivers/STM32H7xx_HAL_Driver/Src/stm32h7xx_hal_dma.c ****   {
 3682              		.loc 1 1007 0 discriminator 16
 3683 006a 1832     		adds	r2, r2, #24
 3684 006c 9342     		cmp	r3, r2
 3685 006e 23D0     		beq	.L209
1007:Drivers/STM32H7xx_HAL_Driver/Src/stm32h7xx_hal_dma.c ****   {
 3686              		.loc 1 1007 0 discriminator 18
 3687 0070 1832     		adds	r2, r2, #24
 3688 0072 9342     		cmp	r3, r2
 3689 0074 20D0     		beq	.L209
1007:Drivers/STM32H7xx_HAL_Driver/Src/stm32h7xx_hal_dma.c ****   {
 3690              		.loc 1 1007 0 discriminator 20
ARM GAS  /tmp/ccBO8Lmd.s 			page 113


 3691 0076 1832     		adds	r2, r2, #24
 3692 0078 9342     		cmp	r3, r2
 3693 007a 1DD0     		beq	.L209
1007:Drivers/STM32H7xx_HAL_Driver/Src/stm32h7xx_hal_dma.c ****   {
 3694              		.loc 1 1007 0 discriminator 22
 3695 007c 1832     		adds	r2, r2, #24
 3696 007e 9342     		cmp	r3, r2
 3697 0080 1AD0     		beq	.L209
1007:Drivers/STM32H7xx_HAL_Driver/Src/stm32h7xx_hal_dma.c ****   {
 3698              		.loc 1 1007 0 discriminator 24
 3699 0082 1832     		adds	r2, r2, #24
 3700 0084 9342     		cmp	r3, r2
 3701 0086 17D0     		beq	.L209
1007:Drivers/STM32H7xx_HAL_Driver/Src/stm32h7xx_hal_dma.c ****   {
 3702              		.loc 1 1007 0 discriminator 26
 3703 0088 1832     		adds	r2, r2, #24
 3704 008a 9342     		cmp	r3, r2
 3705 008c 14D0     		beq	.L209
1007:Drivers/STM32H7xx_HAL_Driver/Src/stm32h7xx_hal_dma.c ****   {
 3706              		.loc 1 1007 0 discriminator 28
 3707 008e 1832     		adds	r2, r2, #24
 3708 0090 9342     		cmp	r3, r2
 3709 0092 11D0     		beq	.L209
1034:Drivers/STM32H7xx_HAL_Driver/Src/stm32h7xx_hal_dma.c ****     {
 3710              		.loc 1 1034 0 is_stmt 1
 3711 0094 1B68     		ldr	r3, [r3]
 3712 0096 13F0200F 		tst	r3, #32
 3713 009a 2CD1     		bne	.L237
1041:Drivers/STM32H7xx_HAL_Driver/Src/stm32h7xx_hal_dma.c ****     {
 3714              		.loc 1 1041 0
 3715 009c BAF1000F 		cmp	r10, #0
 3716 00a0 2ED1     		bne	.L216
1044:Drivers/STM32H7xx_HAL_Driver/Src/stm32h7xx_hal_dma.c ****     }
 3717              		.loc 1 1044 0
 3718 00a2 E36D     		ldr	r3, [r4, #92]
 3719 00a4 03F01F03 		and	r3, r3, #31
 3720 00a8 4FF00208 		mov	r8, #2
 3721 00ac 08FA03F8 		lsl	r8, r8, r3
 3722              	.LVL166:
 3723              	.L217:
1052:Drivers/STM32H7xx_HAL_Driver/Src/stm32h7xx_hal_dma.c ****     ifcr_reg = &(((BDMA_Base_Registers *)hdma->StreamBaseAddress)->IFCR);
 3724              		.loc 1 1052 0
 3725 00b0 A76D     		ldr	r7, [r4, #88]
 3726 00b2 3D46     		mov	r5, r7
 3727              	.LVL167:
1053:Drivers/STM32H7xx_HAL_Driver/Src/stm32h7xx_hal_dma.c ****   }
 3728              		.loc 1 1053 0
 3729 00b4 0437     		adds	r7, r7, #4
 3730              	.LVL168:
 3731 00b6 B5E0     		b	.L228
 3732              	.LVL169:
 3733              	.L209:
1010:Drivers/STM32H7xx_HAL_Driver/Src/stm32h7xx_hal_dma.c ****     {
 3734              		.loc 1 1010 0
 3735 00b8 1B68     		ldr	r3, [r3]
 3736 00ba 13F4807F 		tst	r3, #256
 3737 00be 0DD1     		bne	.L238
ARM GAS  /tmp/ccBO8Lmd.s 			page 114


1017:Drivers/STM32H7xx_HAL_Driver/Src/stm32h7xx_hal_dma.c ****     {
 3738              		.loc 1 1017 0
 3739 00c0 BAF1000F 		cmp	r10, #0
 3740 00c4 0FD1     		bne	.L213
1020:Drivers/STM32H7xx_HAL_Driver/Src/stm32h7xx_hal_dma.c ****     }
 3741              		.loc 1 1020 0
 3742 00c6 E36D     		ldr	r3, [r4, #92]
 3743 00c8 03F01F03 		and	r3, r3, #31
 3744 00cc 4FF02008 		mov	r8, #32
 3745 00d0 08FA03F8 		lsl	r8, r8, r3
 3746              	.LVL170:
 3747              	.L214:
1028:Drivers/STM32H7xx_HAL_Driver/Src/stm32h7xx_hal_dma.c ****     ifcr_reg = &(((DMA_Base_Registers *)hdma->StreamBaseAddress)->IFCR);
 3748              		.loc 1 1028 0
 3749 00d4 A76D     		ldr	r7, [r4, #88]
 3750 00d6 3D46     		mov	r5, r7
 3751              	.LVL171:
1029:Drivers/STM32H7xx_HAL_Driver/Src/stm32h7xx_hal_dma.c ****   }
 3752              		.loc 1 1029 0
 3753 00d8 0837     		adds	r7, r7, #8
 3754              	.LVL172:
 3755 00da A3E0     		b	.L228
 3756              	.LVL173:
 3757              	.L238:
1012:Drivers/STM32H7xx_HAL_Driver/Src/stm32h7xx_hal_dma.c ****       return HAL_ERROR;
 3758              		.loc 1 1012 0
 3759 00dc 4FF48073 		mov	r3, #256
 3760 00e0 6365     		str	r3, [r4, #84]
1013:Drivers/STM32H7xx_HAL_Driver/Src/stm32h7xx_hal_dma.c ****     }
 3761              		.loc 1 1013 0
 3762 00e2 0120     		movs	r0, #1
 3763              	.LVL174:
 3764 00e4 A2E7     		b	.L207
 3765              	.LVL175:
 3766              	.L213:
1025:Drivers/STM32H7xx_HAL_Driver/Src/stm32h7xx_hal_dma.c ****     }
 3767              		.loc 1 1025 0
 3768 00e6 E36D     		ldr	r3, [r4, #92]
 3769 00e8 03F01F03 		and	r3, r3, #31
 3770 00ec 4FF01008 		mov	r8, #16
 3771 00f0 08FA03F8 		lsl	r8, r8, r3
 3772              	.LVL176:
 3773 00f4 EEE7     		b	.L214
 3774              	.LVL177:
 3775              	.L237:
1036:Drivers/STM32H7xx_HAL_Driver/Src/stm32h7xx_hal_dma.c ****       return HAL_ERROR;
 3776              		.loc 1 1036 0
 3777 00f6 4FF48073 		mov	r3, #256
 3778 00fa 6365     		str	r3, [r4, #84]
1037:Drivers/STM32H7xx_HAL_Driver/Src/stm32h7xx_hal_dma.c ****     }
 3779              		.loc 1 1037 0
 3780 00fc 0120     		movs	r0, #1
 3781              	.LVL178:
 3782 00fe 95E7     		b	.L207
 3783              	.LVL179:
 3784              	.L216:
1049:Drivers/STM32H7xx_HAL_Driver/Src/stm32h7xx_hal_dma.c ****     }
ARM GAS  /tmp/ccBO8Lmd.s 			page 115


 3785              		.loc 1 1049 0
 3786 0100 E36D     		ldr	r3, [r4, #92]
 3787 0102 03F01F03 		and	r3, r3, #31
 3788 0106 4FF00408 		mov	r8, #4
 3789 010a 08FA03F8 		lsl	r8, r8, r3
 3790              	.LVL180:
 3791 010e CFE7     		b	.L217
 3792              	.LVL181:
 3793              	.L218:
1060:Drivers/STM32H7xx_HAL_Driver/Src/stm32h7xx_hal_dma.c ****       {
 3794              		.loc 1 1060 0
 3795 0110 2A68     		ldr	r2, [r5]
 3796 0112 E36D     		ldr	r3, [r4, #92]
 3797 0114 03F01F03 		and	r3, r3, #31
 3798 0118 DA40     		lsrs	r2, r2, r3
 3799 011a 12F0010F 		tst	r2, #1
 3800 011e 07D0     		beq	.L221
1063:Drivers/STM32H7xx_HAL_Driver/Src/stm32h7xx_hal_dma.c **** 
 3801              		.loc 1 1063 0
 3802 0120 626D     		ldr	r2, [r4, #84]
 3803 0122 42F00202 		orr	r2, r2, #2
 3804 0126 6265     		str	r2, [r4, #84]
1066:Drivers/STM32H7xx_HAL_Driver/Src/stm32h7xx_hal_dma.c ****       }
 3805              		.loc 1 1066 0
 3806 0128 0122     		movs	r2, #1
 3807 012a 02FA03F3 		lsl	r3, r2, r3
 3808 012e 3B60     		str	r3, [r7]
 3809              	.L221:
1069:Drivers/STM32H7xx_HAL_Driver/Src/stm32h7xx_hal_dma.c ****       {
 3810              		.loc 1 1069 0
 3811 0130 2968     		ldr	r1, [r5]
 3812 0132 E36D     		ldr	r3, [r4, #92]
 3813 0134 03F01F02 		and	r2, r3, #31
 3814 0138 0423     		movs	r3, #4
 3815 013a 9340     		lsls	r3, r3, r2
 3816 013c 1942     		tst	r1, r3
 3817 013e 04D0     		beq	.L222
1072:Drivers/STM32H7xx_HAL_Driver/Src/stm32h7xx_hal_dma.c **** 
 3818              		.loc 1 1072 0
 3819 0140 626D     		ldr	r2, [r4, #84]
 3820 0142 42F00402 		orr	r2, r2, #4
 3821 0146 6265     		str	r2, [r4, #84]
1075:Drivers/STM32H7xx_HAL_Driver/Src/stm32h7xx_hal_dma.c ****       }
 3822              		.loc 1 1075 0
 3823 0148 3B60     		str	r3, [r7]
 3824              	.L222:
1078:Drivers/STM32H7xx_HAL_Driver/Src/stm32h7xx_hal_dma.c ****       {
 3825              		.loc 1 1078 0
 3826 014a 2968     		ldr	r1, [r5]
 3827 014c E36D     		ldr	r3, [r4, #92]
 3828 014e 03F01F02 		and	r2, r3, #31
 3829 0152 0823     		movs	r3, #8
 3830 0154 9340     		lsls	r3, r3, r2
 3831 0156 1942     		tst	r1, r3
 3832 0158 40F0BD80 		bne	.L239
 3833              	.L220:
1118:Drivers/STM32H7xx_HAL_Driver/Src/stm32h7xx_hal_dma.c ****     {
ARM GAS  /tmp/ccBO8Lmd.s 			page 116


 3834              		.loc 1 1118 0
 3835 015c B6F1FF3F 		cmp	r6, #-1
 3836 0160 40F0C580 		bne	.L240
 3837              	.L223:
1139:Drivers/STM32H7xx_HAL_Driver/Src/stm32h7xx_hal_dma.c ****     {
 3838              		.loc 1 1139 0
 3839 0164 2368     		ldr	r3, [r4]
 3840 0166 6A49     		ldr	r1, .L242
 3841 0168 6A4A     		ldr	r2, .L242+4
 3842 016a 9342     		cmp	r3, r2
 3843 016c 18BF     		it	ne
 3844 016e 8B42     		cmpne	r3, r1
 3845 0170 42D0     		beq	.L225
1139:Drivers/STM32H7xx_HAL_Driver/Src/stm32h7xx_hal_dma.c ****     {
 3846              		.loc 1 1139 0 is_stmt 0 discriminator 2
 3847 0172 1832     		adds	r2, r2, #24
 3848 0174 9342     		cmp	r3, r2
 3849 0176 3FD0     		beq	.L225
1139:Drivers/STM32H7xx_HAL_Driver/Src/stm32h7xx_hal_dma.c ****     {
 3850              		.loc 1 1139 0 discriminator 4
 3851 0178 1832     		adds	r2, r2, #24
 3852 017a 9342     		cmp	r3, r2
 3853 017c 3CD0     		beq	.L225
1139:Drivers/STM32H7xx_HAL_Driver/Src/stm32h7xx_hal_dma.c ****     {
 3854              		.loc 1 1139 0 discriminator 6
 3855 017e 1832     		adds	r2, r2, #24
 3856 0180 9342     		cmp	r3, r2
 3857 0182 39D0     		beq	.L225
1139:Drivers/STM32H7xx_HAL_Driver/Src/stm32h7xx_hal_dma.c ****     {
 3858              		.loc 1 1139 0 discriminator 8
 3859 0184 1832     		adds	r2, r2, #24
 3860 0186 9342     		cmp	r3, r2
 3861 0188 36D0     		beq	.L225
1139:Drivers/STM32H7xx_HAL_Driver/Src/stm32h7xx_hal_dma.c ****     {
 3862              		.loc 1 1139 0 discriminator 10
 3863 018a 1832     		adds	r2, r2, #24
 3864 018c 9342     		cmp	r3, r2
 3865 018e 33D0     		beq	.L225
1139:Drivers/STM32H7xx_HAL_Driver/Src/stm32h7xx_hal_dma.c ****     {
 3866              		.loc 1 1139 0 discriminator 12
 3867 0190 1832     		adds	r2, r2, #24
 3868 0192 9342     		cmp	r3, r2
 3869 0194 30D0     		beq	.L225
1139:Drivers/STM32H7xx_HAL_Driver/Src/stm32h7xx_hal_dma.c ****     {
 3870              		.loc 1 1139 0 discriminator 14
 3871 0196 02F55672 		add	r2, r2, #856
 3872 019a 9342     		cmp	r3, r2
 3873 019c 2CD0     		beq	.L225
1139:Drivers/STM32H7xx_HAL_Driver/Src/stm32h7xx_hal_dma.c ****     {
 3874              		.loc 1 1139 0 discriminator 16
 3875 019e 1832     		adds	r2, r2, #24
 3876 01a0 9342     		cmp	r3, r2
 3877 01a2 29D0     		beq	.L225
1139:Drivers/STM32H7xx_HAL_Driver/Src/stm32h7xx_hal_dma.c ****     {
 3878              		.loc 1 1139 0 discriminator 18
 3879 01a4 1832     		adds	r2, r2, #24
 3880 01a6 9342     		cmp	r3, r2
ARM GAS  /tmp/ccBO8Lmd.s 			page 117


 3881 01a8 26D0     		beq	.L225
1139:Drivers/STM32H7xx_HAL_Driver/Src/stm32h7xx_hal_dma.c ****     {
 3882              		.loc 1 1139 0 discriminator 20
 3883 01aa 1832     		adds	r2, r2, #24
 3884 01ac 9342     		cmp	r3, r2
 3885 01ae 23D0     		beq	.L225
1139:Drivers/STM32H7xx_HAL_Driver/Src/stm32h7xx_hal_dma.c ****     {
 3886              		.loc 1 1139 0 discriminator 22
 3887 01b0 1832     		adds	r2, r2, #24
 3888 01b2 9342     		cmp	r3, r2
 3889 01b4 20D0     		beq	.L225
1139:Drivers/STM32H7xx_HAL_Driver/Src/stm32h7xx_hal_dma.c ****     {
 3890              		.loc 1 1139 0 discriminator 24
 3891 01b6 1832     		adds	r2, r2, #24
 3892 01b8 9342     		cmp	r3, r2
 3893 01ba 1DD0     		beq	.L225
1139:Drivers/STM32H7xx_HAL_Driver/Src/stm32h7xx_hal_dma.c ****     {
 3894              		.loc 1 1139 0 discriminator 26
 3895 01bc 1832     		adds	r2, r2, #24
 3896 01be 9342     		cmp	r3, r2
 3897 01c0 1AD0     		beq	.L225
1139:Drivers/STM32H7xx_HAL_Driver/Src/stm32h7xx_hal_dma.c ****     {
 3898              		.loc 1 1139 0 discriminator 28
 3899 01c2 1832     		adds	r2, r2, #24
 3900 01c4 9342     		cmp	r3, r2
 3901 01c6 17D0     		beq	.L225
1139:Drivers/STM32H7xx_HAL_Driver/Src/stm32h7xx_hal_dma.c ****     {
 3902              		.loc 1 1139 0 discriminator 30
 3903 01c8 534A     		ldr	r2, .L242+8
 3904 01ca 9342     		cmp	r3, r2
 3905 01cc 14D0     		beq	.L225
1139:Drivers/STM32H7xx_HAL_Driver/Src/stm32h7xx_hal_dma.c ****     {
 3906              		.loc 1 1139 0 discriminator 32
 3907 01ce 1432     		adds	r2, r2, #20
 3908 01d0 9342     		cmp	r3, r2
 3909 01d2 11D0     		beq	.L225
1139:Drivers/STM32H7xx_HAL_Driver/Src/stm32h7xx_hal_dma.c ****     {
 3910              		.loc 1 1139 0 discriminator 34
 3911 01d4 1432     		adds	r2, r2, #20
 3912 01d6 9342     		cmp	r3, r2
 3913 01d8 0ED0     		beq	.L225
1139:Drivers/STM32H7xx_HAL_Driver/Src/stm32h7xx_hal_dma.c ****     {
 3914              		.loc 1 1139 0 discriminator 36
 3915 01da 1432     		adds	r2, r2, #20
 3916 01dc 9342     		cmp	r3, r2
 3917 01de 0BD0     		beq	.L225
1139:Drivers/STM32H7xx_HAL_Driver/Src/stm32h7xx_hal_dma.c ****     {
 3918              		.loc 1 1139 0 discriminator 38
 3919 01e0 1432     		adds	r2, r2, #20
 3920 01e2 9342     		cmp	r3, r2
 3921 01e4 08D0     		beq	.L225
1139:Drivers/STM32H7xx_HAL_Driver/Src/stm32h7xx_hal_dma.c ****     {
 3922              		.loc 1 1139 0 discriminator 40
 3923 01e6 1432     		adds	r2, r2, #20
 3924 01e8 9342     		cmp	r3, r2
 3925 01ea 05D0     		beq	.L225
1139:Drivers/STM32H7xx_HAL_Driver/Src/stm32h7xx_hal_dma.c ****     {
ARM GAS  /tmp/ccBO8Lmd.s 			page 118


 3926              		.loc 1 1139 0 discriminator 42
 3927 01ec 1432     		adds	r2, r2, #20
 3928 01ee 9342     		cmp	r3, r2
 3929 01f0 02D0     		beq	.L225
1139:Drivers/STM32H7xx_HAL_Driver/Src/stm32h7xx_hal_dma.c ****     {
 3930              		.loc 1 1139 0 discriminator 44
 3931 01f2 1432     		adds	r2, r2, #20
 3932 01f4 9342     		cmp	r3, r2
 3933 01f6 15D1     		bne	.L228
 3934              	.L225:
1142:Drivers/STM32H7xx_HAL_Driver/Src/stm32h7xx_hal_dma.c ****       {
 3935              		.loc 1 1142 0 is_stmt 1
 3936 01f8 E36E     		ldr	r3, [r4, #108]
 3937 01fa 4BB1     		cbz	r3, .L227
1145:Drivers/STM32H7xx_HAL_Driver/Src/stm32h7xx_hal_dma.c ****         {
 3938              		.loc 1 1145 0
 3939 01fc 236F     		ldr	r3, [r4, #112]
 3940 01fe 1968     		ldr	r1, [r3]
 3941 0200 626F     		ldr	r2, [r4, #116]
 3942 0202 1142     		tst	r1, r2
 3943 0204 04D0     		beq	.L227
1148:Drivers/STM32H7xx_HAL_Driver/Src/stm32h7xx_hal_dma.c **** 
 3944              		.loc 1 1148 0
 3945 0206 5A60     		str	r2, [r3, #4]
1151:Drivers/STM32H7xx_HAL_Driver/Src/stm32h7xx_hal_dma.c ****         }
 3946              		.loc 1 1151 0
 3947 0208 636D     		ldr	r3, [r4, #84]
 3948 020a 43F48063 		orr	r3, r3, #1024
 3949 020e 6365     		str	r3, [r4, #84]
 3950              	.L227:
1156:Drivers/STM32H7xx_HAL_Driver/Src/stm32h7xx_hal_dma.c ****       {
 3951              		.loc 1 1156 0
 3952 0210 636E     		ldr	r3, [r4, #100]
 3953 0212 1968     		ldr	r1, [r3]
 3954 0214 A26E     		ldr	r2, [r4, #104]
 3955 0216 1142     		tst	r1, r2
 3956 0218 04D0     		beq	.L228
1159:Drivers/STM32H7xx_HAL_Driver/Src/stm32h7xx_hal_dma.c **** 
 3957              		.loc 1 1159 0
 3958 021a 5A60     		str	r2, [r3, #4]
1162:Drivers/STM32H7xx_HAL_Driver/Src/stm32h7xx_hal_dma.c ****       }
 3959              		.loc 1 1162 0
 3960 021c 636D     		ldr	r3, [r4, #84]
 3961 021e 43F40073 		orr	r3, r3, #512
 3962 0222 6365     		str	r3, [r4, #84]
 3963              	.L228:
1056:Drivers/STM32H7xx_HAL_Driver/Src/stm32h7xx_hal_dma.c ****   {
 3964              		.loc 1 1056 0
 3965 0224 2B68     		ldr	r3, [r5]
 3966 0226 13EA080F 		tst	r3, r8
 3967 022a 77D1     		bne	.L241
1058:Drivers/STM32H7xx_HAL_Driver/Src/stm32h7xx_hal_dma.c ****     {
 3968              		.loc 1 1058 0
 3969 022c 2368     		ldr	r3, [r4]
 3970 022e 3849     		ldr	r1, .L242
 3971 0230 384A     		ldr	r2, .L242+4
 3972 0232 9342     		cmp	r3, r2
ARM GAS  /tmp/ccBO8Lmd.s 			page 119


 3973 0234 18BF     		it	ne
 3974 0236 8B42     		cmpne	r3, r1
 3975 0238 3FF46AAF 		beq	.L218
1058:Drivers/STM32H7xx_HAL_Driver/Src/stm32h7xx_hal_dma.c ****     {
 3976              		.loc 1 1058 0 is_stmt 0 discriminator 2
 3977 023c 1832     		adds	r2, r2, #24
 3978 023e 9342     		cmp	r3, r2
 3979 0240 3FF466AF 		beq	.L218
1058:Drivers/STM32H7xx_HAL_Driver/Src/stm32h7xx_hal_dma.c ****     {
 3980              		.loc 1 1058 0 discriminator 4
 3981 0244 1832     		adds	r2, r2, #24
 3982 0246 9342     		cmp	r3, r2
 3983 0248 3FF462AF 		beq	.L218
1058:Drivers/STM32H7xx_HAL_Driver/Src/stm32h7xx_hal_dma.c ****     {
 3984              		.loc 1 1058 0 discriminator 6
 3985 024c 1832     		adds	r2, r2, #24
 3986 024e 9342     		cmp	r3, r2
 3987 0250 3FF45EAF 		beq	.L218
1058:Drivers/STM32H7xx_HAL_Driver/Src/stm32h7xx_hal_dma.c ****     {
 3988              		.loc 1 1058 0 discriminator 8
 3989 0254 1832     		adds	r2, r2, #24
 3990 0256 9342     		cmp	r3, r2
 3991 0258 3FF45AAF 		beq	.L218
1058:Drivers/STM32H7xx_HAL_Driver/Src/stm32h7xx_hal_dma.c ****     {
 3992              		.loc 1 1058 0 discriminator 10
 3993 025c 1832     		adds	r2, r2, #24
 3994 025e 9342     		cmp	r3, r2
 3995 0260 3FF456AF 		beq	.L218
1058:Drivers/STM32H7xx_HAL_Driver/Src/stm32h7xx_hal_dma.c ****     {
 3996              		.loc 1 1058 0 discriminator 12
 3997 0264 1832     		adds	r2, r2, #24
 3998 0266 9342     		cmp	r3, r2
 3999 0268 3FF452AF 		beq	.L218
1058:Drivers/STM32H7xx_HAL_Driver/Src/stm32h7xx_hal_dma.c ****     {
 4000              		.loc 1 1058 0 discriminator 14
 4001 026c 02F55672 		add	r2, r2, #856
 4002 0270 9342     		cmp	r3, r2
 4003 0272 3FF44DAF 		beq	.L218
1058:Drivers/STM32H7xx_HAL_Driver/Src/stm32h7xx_hal_dma.c ****     {
 4004              		.loc 1 1058 0 discriminator 16
 4005 0276 1832     		adds	r2, r2, #24
 4006 0278 9342     		cmp	r3, r2
 4007 027a 3FF449AF 		beq	.L218
1058:Drivers/STM32H7xx_HAL_Driver/Src/stm32h7xx_hal_dma.c ****     {
 4008              		.loc 1 1058 0 discriminator 18
 4009 027e 1832     		adds	r2, r2, #24
 4010 0280 9342     		cmp	r3, r2
 4011 0282 3FF445AF 		beq	.L218
1058:Drivers/STM32H7xx_HAL_Driver/Src/stm32h7xx_hal_dma.c ****     {
 4012              		.loc 1 1058 0 discriminator 20
 4013 0286 1832     		adds	r2, r2, #24
 4014 0288 9342     		cmp	r3, r2
 4015 028a 3FF441AF 		beq	.L218
1058:Drivers/STM32H7xx_HAL_Driver/Src/stm32h7xx_hal_dma.c ****     {
 4016              		.loc 1 1058 0 discriminator 22
 4017 028e 1832     		adds	r2, r2, #24
 4018 0290 9342     		cmp	r3, r2
ARM GAS  /tmp/ccBO8Lmd.s 			page 120


 4019 0292 3FF43DAF 		beq	.L218
1058:Drivers/STM32H7xx_HAL_Driver/Src/stm32h7xx_hal_dma.c ****     {
 4020              		.loc 1 1058 0 discriminator 24
 4021 0296 1832     		adds	r2, r2, #24
 4022 0298 9342     		cmp	r3, r2
 4023 029a 3FF439AF 		beq	.L218
1058:Drivers/STM32H7xx_HAL_Driver/Src/stm32h7xx_hal_dma.c ****     {
 4024              		.loc 1 1058 0 discriminator 26
 4025 029e 1832     		adds	r2, r2, #24
 4026 02a0 9342     		cmp	r3, r2
 4027 02a2 3FF435AF 		beq	.L218
1058:Drivers/STM32H7xx_HAL_Driver/Src/stm32h7xx_hal_dma.c ****     {
 4028              		.loc 1 1058 0 discriminator 28
 4029 02a6 1832     		adds	r2, r2, #24
 4030 02a8 9342     		cmp	r3, r2
 4031 02aa 3FF431AF 		beq	.L218
1097:Drivers/STM32H7xx_HAL_Driver/Src/stm32h7xx_hal_dma.c ****       {
 4032              		.loc 1 1097 0 is_stmt 1
 4033 02ae 2968     		ldr	r1, [r5]
 4034 02b0 E36D     		ldr	r3, [r4, #92]
 4035 02b2 03F01F03 		and	r3, r3, #31
 4036 02b6 0822     		movs	r2, #8
 4037 02b8 9A40     		lsls	r2, r2, r3
 4038 02ba 1142     		tst	r1, r2
 4039 02bc 3FF44EAF 		beq	.L220
1102:Drivers/STM32H7xx_HAL_Driver/Src/stm32h7xx_hal_dma.c **** 
 4040              		.loc 1 1102 0
 4041 02c0 0120     		movs	r0, #1
 4042 02c2 00FA03F3 		lsl	r3, r0, r3
 4043 02c6 2B60     		str	r3, [r5]
1105:Drivers/STM32H7xx_HAL_Driver/Src/stm32h7xx_hal_dma.c **** 
 4044              		.loc 1 1105 0
 4045 02c8 6065     		str	r0, [r4, #84]
1108:Drivers/STM32H7xx_HAL_Driver/Src/stm32h7xx_hal_dma.c **** 
 4046              		.loc 1 1108 0
 4047 02ca 84F83500 		strb	r0, [r4, #53]
1111:Drivers/STM32H7xx_HAL_Driver/Src/stm32h7xx_hal_dma.c **** 
 4048              		.loc 1 1111 0
 4049 02ce 0023     		movs	r3, #0
 4050 02d0 84F83430 		strb	r3, [r4, #52]
1113:Drivers/STM32H7xx_HAL_Driver/Src/stm32h7xx_hal_dma.c ****       }
 4051              		.loc 1 1113 0
 4052 02d4 AAE6     		b	.L207
 4053              	.L239:
1081:Drivers/STM32H7xx_HAL_Driver/Src/stm32h7xx_hal_dma.c **** 
 4054              		.loc 1 1081 0
 4055 02d6 626D     		ldr	r2, [r4, #84]
 4056 02d8 42F00102 		orr	r2, r2, #1
 4057 02dc 6265     		str	r2, [r4, #84]
1084:Drivers/STM32H7xx_HAL_Driver/Src/stm32h7xx_hal_dma.c **** 
 4058              		.loc 1 1084 0
 4059 02de 3B60     		str	r3, [r7]
1087:Drivers/STM32H7xx_HAL_Driver/Src/stm32h7xx_hal_dma.c **** 
 4060              		.loc 1 1087 0
 4061 02e0 0120     		movs	r0, #1
 4062 02e2 84F83500 		strb	r0, [r4, #53]
1090:Drivers/STM32H7xx_HAL_Driver/Src/stm32h7xx_hal_dma.c **** 
ARM GAS  /tmp/ccBO8Lmd.s 			page 121


 4063              		.loc 1 1090 0
 4064 02e6 0023     		movs	r3, #0
 4065 02e8 84F83430 		strb	r3, [r4, #52]
1092:Drivers/STM32H7xx_HAL_Driver/Src/stm32h7xx_hal_dma.c ****       }
 4066              		.loc 1 1092 0
 4067 02ec 9EE6     		b	.L207
 4068              	.L240:
1120:Drivers/STM32H7xx_HAL_Driver/Src/stm32h7xx_hal_dma.c ****       {
 4069              		.loc 1 1120 0
 4070 02ee FFF7FEFF 		bl	HAL_GetTick
 4071              	.LVL182:
 4072 02f2 A0EB0900 		sub	r0, r0, r9
 4073 02f6 B042     		cmp	r0, r6
 4074 02f8 02D8     		bhi	.L224
1120:Drivers/STM32H7xx_HAL_Driver/Src/stm32h7xx_hal_dma.c ****       {
 4075              		.loc 1 1120 0 is_stmt 0 discriminator 1
 4076 02fa 002E     		cmp	r6, #0
 4077 02fc 7FF432AF 		bne	.L223
 4078              	.L224:
1123:Drivers/STM32H7xx_HAL_Driver/Src/stm32h7xx_hal_dma.c **** 
 4079              		.loc 1 1123 0 is_stmt 1
 4080 0300 2023     		movs	r3, #32
 4081 0302 6365     		str	r3, [r4, #84]
1127:Drivers/STM32H7xx_HAL_Driver/Src/stm32h7xx_hal_dma.c ****           /*
 4082              		.loc 1 1127 0
 4083 0304 2046     		mov	r0, r4
 4084 0306 FFF7FEFF 		bl	HAL_DMA_Abort
 4085              	.LVL183:
1135:Drivers/STM32H7xx_HAL_Driver/Src/stm32h7xx_hal_dma.c ****       }
 4086              		.loc 1 1135 0
 4087 030a 0120     		movs	r0, #1
 4088 030c 8EE6     		b	.L207
 4089              	.L243:
 4090 030e 00BF     		.align	2
 4091              	.L242:
 4092 0310 10000240 		.word	1073872912
 4093 0314 28000240 		.word	1073872936
 4094 0318 08540258 		.word	1476547592
 4095              	.L241:
1169:Drivers/STM32H7xx_HAL_Driver/Src/stm32h7xx_hal_dma.c ****   {
 4096              		.loc 1 1169 0
 4097 031c BAF1000F 		cmp	r10, #0
 4098 0320 45D1     		bne	.L230
1172:Drivers/STM32H7xx_HAL_Driver/Src/stm32h7xx_hal_dma.c ****     {
 4099              		.loc 1 1172 0
 4100 0322 2368     		ldr	r3, [r4]
 4101 0324 4449     		ldr	r1, .L244
 4102 0326 454A     		ldr	r2, .L244+4
 4103 0328 9342     		cmp	r3, r2
 4104 032a 18BF     		it	ne
 4105 032c 8B42     		cmpne	r3, r1
 4106 032e 31D0     		beq	.L231
1172:Drivers/STM32H7xx_HAL_Driver/Src/stm32h7xx_hal_dma.c ****     {
 4107              		.loc 1 1172 0 is_stmt 0 discriminator 2
 4108 0330 1832     		adds	r2, r2, #24
 4109 0332 9342     		cmp	r3, r2
 4110 0334 2ED0     		beq	.L231
ARM GAS  /tmp/ccBO8Lmd.s 			page 122


1172:Drivers/STM32H7xx_HAL_Driver/Src/stm32h7xx_hal_dma.c ****     {
 4111              		.loc 1 1172 0 discriminator 4
 4112 0336 1832     		adds	r2, r2, #24
 4113 0338 9342     		cmp	r3, r2
 4114 033a 2BD0     		beq	.L231
1172:Drivers/STM32H7xx_HAL_Driver/Src/stm32h7xx_hal_dma.c ****     {
 4115              		.loc 1 1172 0 discriminator 6
 4116 033c 1832     		adds	r2, r2, #24
 4117 033e 9342     		cmp	r3, r2
 4118 0340 28D0     		beq	.L231
1172:Drivers/STM32H7xx_HAL_Driver/Src/stm32h7xx_hal_dma.c ****     {
 4119              		.loc 1 1172 0 discriminator 8
 4120 0342 1832     		adds	r2, r2, #24
 4121 0344 9342     		cmp	r3, r2
 4122 0346 25D0     		beq	.L231
1172:Drivers/STM32H7xx_HAL_Driver/Src/stm32h7xx_hal_dma.c ****     {
 4123              		.loc 1 1172 0 discriminator 10
 4124 0348 1832     		adds	r2, r2, #24
 4125 034a 9342     		cmp	r3, r2
 4126 034c 22D0     		beq	.L231
1172:Drivers/STM32H7xx_HAL_Driver/Src/stm32h7xx_hal_dma.c ****     {
 4127              		.loc 1 1172 0 discriminator 12
 4128 034e 1832     		adds	r2, r2, #24
 4129 0350 9342     		cmp	r3, r2
 4130 0352 1FD0     		beq	.L231
1172:Drivers/STM32H7xx_HAL_Driver/Src/stm32h7xx_hal_dma.c ****     {
 4131              		.loc 1 1172 0 discriminator 14
 4132 0354 02F55672 		add	r2, r2, #856
 4133 0358 9342     		cmp	r3, r2
 4134 035a 1BD0     		beq	.L231
1172:Drivers/STM32H7xx_HAL_Driver/Src/stm32h7xx_hal_dma.c ****     {
 4135              		.loc 1 1172 0 discriminator 16
 4136 035c 1832     		adds	r2, r2, #24
 4137 035e 9342     		cmp	r3, r2
 4138 0360 18D0     		beq	.L231
1172:Drivers/STM32H7xx_HAL_Driver/Src/stm32h7xx_hal_dma.c ****     {
 4139              		.loc 1 1172 0 discriminator 18
 4140 0362 1832     		adds	r2, r2, #24
 4141 0364 9342     		cmp	r3, r2
 4142 0366 15D0     		beq	.L231
1172:Drivers/STM32H7xx_HAL_Driver/Src/stm32h7xx_hal_dma.c ****     {
 4143              		.loc 1 1172 0 discriminator 20
 4144 0368 1832     		adds	r2, r2, #24
 4145 036a 9342     		cmp	r3, r2
 4146 036c 12D0     		beq	.L231
1172:Drivers/STM32H7xx_HAL_Driver/Src/stm32h7xx_hal_dma.c ****     {
 4147              		.loc 1 1172 0 discriminator 22
 4148 036e 1832     		adds	r2, r2, #24
 4149 0370 9342     		cmp	r3, r2
 4150 0372 0FD0     		beq	.L231
1172:Drivers/STM32H7xx_HAL_Driver/Src/stm32h7xx_hal_dma.c ****     {
 4151              		.loc 1 1172 0 discriminator 24
 4152 0374 1832     		adds	r2, r2, #24
 4153 0376 9342     		cmp	r3, r2
 4154 0378 0CD0     		beq	.L231
1172:Drivers/STM32H7xx_HAL_Driver/Src/stm32h7xx_hal_dma.c ****     {
 4155              		.loc 1 1172 0 discriminator 26
ARM GAS  /tmp/ccBO8Lmd.s 			page 123


 4156 037a 1832     		adds	r2, r2, #24
 4157 037c 9342     		cmp	r3, r2
 4158 037e 09D0     		beq	.L231
1172:Drivers/STM32H7xx_HAL_Driver/Src/stm32h7xx_hal_dma.c ****     {
 4159              		.loc 1 1172 0 discriminator 28
 4160 0380 1832     		adds	r2, r2, #24
 4161 0382 9342     		cmp	r3, r2
 4162 0384 06D0     		beq	.L231
1178:Drivers/STM32H7xx_HAL_Driver/Src/stm32h7xx_hal_dma.c ****     }
 4163              		.loc 1 1178 0 is_stmt 1
 4164 0386 E36D     		ldr	r3, [r4, #92]
 4165 0388 03F01F02 		and	r2, r3, #31
 4166 038c 0223     		movs	r3, #2
 4167 038e 9340     		lsls	r3, r3, r2
 4168 0390 3B60     		str	r3, [r7]
 4169 0392 05E0     		b	.L232
 4170              	.L231:
1174:Drivers/STM32H7xx_HAL_Driver/Src/stm32h7xx_hal_dma.c ****     }
 4171              		.loc 1 1174 0
 4172 0394 E36D     		ldr	r3, [r4, #92]
 4173 0396 03F01F02 		and	r2, r3, #31
 4174 039a 3023     		movs	r3, #48
 4175 039c 9340     		lsls	r3, r3, r2
 4176 039e 3B60     		str	r3, [r7]
 4177              	.L232:
1181:Drivers/STM32H7xx_HAL_Driver/Src/stm32h7xx_hal_dma.c **** 
 4178              		.loc 1 1181 0
 4179 03a0 0123     		movs	r3, #1
 4180 03a2 84F83530 		strb	r3, [r4, #53]
1184:Drivers/STM32H7xx_HAL_Driver/Src/stm32h7xx_hal_dma.c ****   }
 4181              		.loc 1 1184 0
 4182 03a6 0020     		movs	r0, #0
 4183 03a8 84F83400 		strb	r0, [r4, #52]
 4184 03ac 3EE6     		b	.L207
 4185              	.L230:
1189:Drivers/STM32H7xx_HAL_Driver/Src/stm32h7xx_hal_dma.c ****     {
 4186              		.loc 1 1189 0
 4187 03ae 2368     		ldr	r3, [r4]
 4188 03b0 2149     		ldr	r1, .L244
 4189 03b2 224A     		ldr	r2, .L244+4
 4190 03b4 9342     		cmp	r3, r2
 4191 03b6 18BF     		it	ne
 4192 03b8 8B42     		cmpne	r3, r1
 4193 03ba 32D0     		beq	.L233
1189:Drivers/STM32H7xx_HAL_Driver/Src/stm32h7xx_hal_dma.c ****     {
 4194              		.loc 1 1189 0 is_stmt 0 discriminator 2
 4195 03bc 1832     		adds	r2, r2, #24
 4196 03be 9342     		cmp	r3, r2
 4197 03c0 2FD0     		beq	.L233
1189:Drivers/STM32H7xx_HAL_Driver/Src/stm32h7xx_hal_dma.c ****     {
 4198              		.loc 1 1189 0 discriminator 4
 4199 03c2 1832     		adds	r2, r2, #24
 4200 03c4 9342     		cmp	r3, r2
 4201 03c6 2CD0     		beq	.L233
1189:Drivers/STM32H7xx_HAL_Driver/Src/stm32h7xx_hal_dma.c ****     {
 4202              		.loc 1 1189 0 discriminator 6
 4203 03c8 1832     		adds	r2, r2, #24
ARM GAS  /tmp/ccBO8Lmd.s 			page 124


 4204 03ca 9342     		cmp	r3, r2
 4205 03cc 29D0     		beq	.L233
1189:Drivers/STM32H7xx_HAL_Driver/Src/stm32h7xx_hal_dma.c ****     {
 4206              		.loc 1 1189 0 discriminator 8
 4207 03ce 1832     		adds	r2, r2, #24
 4208 03d0 9342     		cmp	r3, r2
 4209 03d2 26D0     		beq	.L233
1189:Drivers/STM32H7xx_HAL_Driver/Src/stm32h7xx_hal_dma.c ****     {
 4210              		.loc 1 1189 0 discriminator 10
 4211 03d4 1832     		adds	r2, r2, #24
 4212 03d6 9342     		cmp	r3, r2
 4213 03d8 23D0     		beq	.L233
1189:Drivers/STM32H7xx_HAL_Driver/Src/stm32h7xx_hal_dma.c ****     {
 4214              		.loc 1 1189 0 discriminator 12
 4215 03da 1832     		adds	r2, r2, #24
 4216 03dc 9342     		cmp	r3, r2
 4217 03de 20D0     		beq	.L233
1189:Drivers/STM32H7xx_HAL_Driver/Src/stm32h7xx_hal_dma.c ****     {
 4218              		.loc 1 1189 0 discriminator 14
 4219 03e0 02F55672 		add	r2, r2, #856
 4220 03e4 9342     		cmp	r3, r2
 4221 03e6 1CD0     		beq	.L233
1189:Drivers/STM32H7xx_HAL_Driver/Src/stm32h7xx_hal_dma.c ****     {
 4222              		.loc 1 1189 0 discriminator 16
 4223 03e8 1832     		adds	r2, r2, #24
 4224 03ea 9342     		cmp	r3, r2
 4225 03ec 19D0     		beq	.L233
1189:Drivers/STM32H7xx_HAL_Driver/Src/stm32h7xx_hal_dma.c ****     {
 4226              		.loc 1 1189 0 discriminator 18
 4227 03ee 1832     		adds	r2, r2, #24
 4228 03f0 9342     		cmp	r3, r2
 4229 03f2 16D0     		beq	.L233
1189:Drivers/STM32H7xx_HAL_Driver/Src/stm32h7xx_hal_dma.c ****     {
 4230              		.loc 1 1189 0 discriminator 20
 4231 03f4 1832     		adds	r2, r2, #24
 4232 03f6 9342     		cmp	r3, r2
 4233 03f8 13D0     		beq	.L233
1189:Drivers/STM32H7xx_HAL_Driver/Src/stm32h7xx_hal_dma.c ****     {
 4234              		.loc 1 1189 0 discriminator 22
 4235 03fa 1832     		adds	r2, r2, #24
 4236 03fc 9342     		cmp	r3, r2
 4237 03fe 10D0     		beq	.L233
1189:Drivers/STM32H7xx_HAL_Driver/Src/stm32h7xx_hal_dma.c ****     {
 4238              		.loc 1 1189 0 discriminator 24
 4239 0400 1832     		adds	r2, r2, #24
 4240 0402 9342     		cmp	r3, r2
 4241 0404 0DD0     		beq	.L233
1189:Drivers/STM32H7xx_HAL_Driver/Src/stm32h7xx_hal_dma.c ****     {
 4242              		.loc 1 1189 0 discriminator 26
 4243 0406 1832     		adds	r2, r2, #24
 4244 0408 9342     		cmp	r3, r2
 4245 040a 0AD0     		beq	.L233
1189:Drivers/STM32H7xx_HAL_Driver/Src/stm32h7xx_hal_dma.c ****     {
 4246              		.loc 1 1189 0 discriminator 28
 4247 040c 1832     		adds	r2, r2, #24
 4248 040e 9342     		cmp	r3, r2
 4249 0410 07D0     		beq	.L233
ARM GAS  /tmp/ccBO8Lmd.s 			page 125


1195:Drivers/STM32H7xx_HAL_Driver/Src/stm32h7xx_hal_dma.c ****     }
 4250              		.loc 1 1195 0 is_stmt 1
 4251 0412 E26D     		ldr	r2, [r4, #92]
 4252 0414 02F01F02 		and	r2, r2, #31
 4253 0418 0423     		movs	r3, #4
 4254 041a 9340     		lsls	r3, r3, r2
 4255 041c 3B60     		str	r3, [r7]
1199:Drivers/STM32H7xx_HAL_Driver/Src/stm32h7xx_hal_dma.c **** }
 4256              		.loc 1 1199 0
 4257 041e 0020     		movs	r0, #0
 4258 0420 04E6     		b	.L207
 4259              	.L233:
1191:Drivers/STM32H7xx_HAL_Driver/Src/stm32h7xx_hal_dma.c ****     }
 4260              		.loc 1 1191 0
 4261 0422 E26D     		ldr	r2, [r4, #92]
 4262 0424 02F01F02 		and	r2, r2, #31
 4263 0428 1023     		movs	r3, #16
 4264 042a 9340     		lsls	r3, r3, r2
 4265 042c 3B60     		str	r3, [r7]
1199:Drivers/STM32H7xx_HAL_Driver/Src/stm32h7xx_hal_dma.c **** }
 4266              		.loc 1 1199 0
 4267 042e 0020     		movs	r0, #0
 4268 0430 FCE5     		b	.L207
 4269              	.LVL184:
 4270              	.L234:
 995:Drivers/STM32H7xx_HAL_Driver/Src/stm32h7xx_hal_dma.c ****   }
 4271              		.loc 1 995 0
 4272 0432 0120     		movs	r0, #1
 4273              	.LVL185:
 4274 0434 FAE5     		b	.L207
 4275              	.L245:
 4276 0436 00BF     		.align	2
 4277              	.L244:
 4278 0438 10000240 		.word	1073872912
 4279 043c 28000240 		.word	1073872936
 4280              		.cfi_endproc
 4281              	.LFE150:
 4283              		.section	.text.HAL_DMA_IRQHandler,"ax",%progbits
 4284              		.align	1
 4285              		.global	HAL_DMA_IRQHandler
 4286              		.syntax unified
 4287              		.thumb
 4288              		.thumb_func
 4289              		.fpu fpv5-d16
 4291              	HAL_DMA_IRQHandler:
 4292              	.LFB151:
1209:Drivers/STM32H7xx_HAL_Driver/Src/stm32h7xx_hal_dma.c ****   uint32_t tmpisr_dma, tmpisr_bdma;
 4293              		.loc 1 1209 0
 4294              		.cfi_startproc
 4295              		@ args = 0, pretend = 0, frame = 8
 4296              		@ frame_needed = 0, uses_anonymous_args = 0
 4297              	.LVL186:
 4298 0000 F0B5     		push	{r4, r5, r6, r7, lr}
 4299              	.LCFI22:
 4300              		.cfi_def_cfa_offset 20
 4301              		.cfi_offset 4, -20
 4302              		.cfi_offset 5, -16
ARM GAS  /tmp/ccBO8Lmd.s 			page 126


 4303              		.cfi_offset 6, -12
 4304              		.cfi_offset 7, -8
 4305              		.cfi_offset 14, -4
 4306 0002 83B0     		sub	sp, sp, #12
 4307              	.LCFI23:
 4308              		.cfi_def_cfa_offset 32
 4309 0004 0446     		mov	r4, r0
1212:Drivers/STM32H7xx_HAL_Driver/Src/stm32h7xx_hal_dma.c ****   uint32_t timeout = SystemCoreClock / 9600U;
 4310              		.loc 1 1212 0
 4311 0006 0023     		movs	r3, #0
 4312 0008 0193     		str	r3, [sp, #4]
1213:Drivers/STM32H7xx_HAL_Driver/Src/stm32h7xx_hal_dma.c **** 
 4313              		.loc 1 1213 0
 4314 000a A24B     		ldr	r3, .L305
 4315 000c 1D68     		ldr	r5, [r3]
 4316 000e A24B     		ldr	r3, .L305+4
 4317 0010 A3FB0535 		umull	r3, r5, r3, r5
 4318 0014 AD0A     		lsrs	r5, r5, #10
 4319              	.LVL187:
1216:Drivers/STM32H7xx_HAL_Driver/Src/stm32h7xx_hal_dma.c ****   BDMA_Base_Registers *regs_bdma = (BDMA_Base_Registers *)hdma->StreamBaseAddress;
 4320              		.loc 1 1216 0
 4321 0016 876D     		ldr	r7, [r0, #88]
 4322              	.LVL188:
1219:Drivers/STM32H7xx_HAL_Driver/Src/stm32h7xx_hal_dma.c ****   tmpisr_bdma = regs_bdma->ISR;
 4323              		.loc 1 1219 0
 4324 0018 3E68     		ldr	r6, [r7]
 4325              	.LVL189:
1220:Drivers/STM32H7xx_HAL_Driver/Src/stm32h7xx_hal_dma.c **** 
 4326              		.loc 1 1220 0
 4327 001a D7F800C0 		ldr	ip, [r7]
 4328              	.LVL190:
1222:Drivers/STM32H7xx_HAL_Driver/Src/stm32h7xx_hal_dma.c ****   {
 4329              		.loc 1 1222 0
 4330 001e 0368     		ldr	r3, [r0]
 4331 0020 9E49     		ldr	r1, .L305+8
 4332 0022 9F48     		ldr	r0, .L305+12
 4333              	.LVL191:
 4334 0024 8342     		cmp	r3, r0
 4335 0026 18BF     		it	ne
 4336 0028 8B42     		cmpne	r3, r1
 4337 002a 0CBF     		ite	eq
 4338 002c 0120     		moveq	r0, #1
 4339 002e 0020     		movne	r0, #0
 4340 0030 61D0     		beq	.L247
1222:Drivers/STM32H7xx_HAL_Driver/Src/stm32h7xx_hal_dma.c ****   {
 4341              		.loc 1 1222 0 is_stmt 0 discriminator 2
 4342 0032 9C4A     		ldr	r2, .L305+16
 4343 0034 9342     		cmp	r3, r2
 4344 0036 5ED0     		beq	.L247
1222:Drivers/STM32H7xx_HAL_Driver/Src/stm32h7xx_hal_dma.c ****   {
 4345              		.loc 1 1222 0 discriminator 4
 4346 0038 1832     		adds	r2, r2, #24
 4347 003a 9342     		cmp	r3, r2
 4348 003c 5BD0     		beq	.L247
1222:Drivers/STM32H7xx_HAL_Driver/Src/stm32h7xx_hal_dma.c ****   {
 4349              		.loc 1 1222 0 discriminator 6
 4350 003e 1832     		adds	r2, r2, #24
ARM GAS  /tmp/ccBO8Lmd.s 			page 127


 4351 0040 9342     		cmp	r3, r2
 4352 0042 58D0     		beq	.L247
1222:Drivers/STM32H7xx_HAL_Driver/Src/stm32h7xx_hal_dma.c ****   {
 4353              		.loc 1 1222 0 discriminator 8
 4354 0044 1832     		adds	r2, r2, #24
 4355 0046 9342     		cmp	r3, r2
 4356 0048 55D0     		beq	.L247
1222:Drivers/STM32H7xx_HAL_Driver/Src/stm32h7xx_hal_dma.c ****   {
 4357              		.loc 1 1222 0 discriminator 10
 4358 004a 1832     		adds	r2, r2, #24
 4359 004c 9342     		cmp	r3, r2
 4360 004e 52D0     		beq	.L247
1222:Drivers/STM32H7xx_HAL_Driver/Src/stm32h7xx_hal_dma.c ****   {
 4361              		.loc 1 1222 0 discriminator 12
 4362 0050 1832     		adds	r2, r2, #24
 4363 0052 9342     		cmp	r3, r2
 4364 0054 4FD0     		beq	.L247
1222:Drivers/STM32H7xx_HAL_Driver/Src/stm32h7xx_hal_dma.c ****   {
 4365              		.loc 1 1222 0 discriminator 14
 4366 0056 02F55672 		add	r2, r2, #856
 4367 005a 9342     		cmp	r3, r2
 4368 005c 4BD0     		beq	.L247
1222:Drivers/STM32H7xx_HAL_Driver/Src/stm32h7xx_hal_dma.c ****   {
 4369              		.loc 1 1222 0 discriminator 16
 4370 005e 1832     		adds	r2, r2, #24
 4371 0060 9342     		cmp	r3, r2
 4372 0062 48D0     		beq	.L247
1222:Drivers/STM32H7xx_HAL_Driver/Src/stm32h7xx_hal_dma.c ****   {
 4373              		.loc 1 1222 0 discriminator 18
 4374 0064 1832     		adds	r2, r2, #24
 4375 0066 9342     		cmp	r3, r2
 4376 0068 45D0     		beq	.L247
1222:Drivers/STM32H7xx_HAL_Driver/Src/stm32h7xx_hal_dma.c ****   {
 4377              		.loc 1 1222 0 discriminator 20
 4378 006a 1832     		adds	r2, r2, #24
 4379 006c 9342     		cmp	r3, r2
 4380 006e 42D0     		beq	.L247
1222:Drivers/STM32H7xx_HAL_Driver/Src/stm32h7xx_hal_dma.c ****   {
 4381              		.loc 1 1222 0 discriminator 22
 4382 0070 1832     		adds	r2, r2, #24
 4383 0072 9342     		cmp	r3, r2
 4384 0074 3FD0     		beq	.L247
1222:Drivers/STM32H7xx_HAL_Driver/Src/stm32h7xx_hal_dma.c ****   {
 4385              		.loc 1 1222 0 discriminator 24
 4386 0076 1832     		adds	r2, r2, #24
 4387 0078 9342     		cmp	r3, r2
 4388 007a 3CD0     		beq	.L247
1222:Drivers/STM32H7xx_HAL_Driver/Src/stm32h7xx_hal_dma.c ****   {
 4389              		.loc 1 1222 0 discriminator 26
 4390 007c 1832     		adds	r2, r2, #24
 4391 007e 9342     		cmp	r3, r2
 4392 0080 39D0     		beq	.L247
1222:Drivers/STM32H7xx_HAL_Driver/Src/stm32h7xx_hal_dma.c ****   {
 4393              		.loc 1 1222 0 discriminator 28
 4394 0082 1832     		adds	r2, r2, #24
 4395 0084 9342     		cmp	r3, r2
 4396 0086 36D0     		beq	.L247
ARM GAS  /tmp/ccBO8Lmd.s 			page 128


1431:Drivers/STM32H7xx_HAL_Driver/Src/stm32h7xx_hal_dma.c ****   {
 4397              		.loc 1 1431 0 is_stmt 1
 4398 0088 8749     		ldr	r1, .L305+20
 4399 008a 884A     		ldr	r2, .L305+24
 4400 008c 9342     		cmp	r3, r2
 4401 008e 18BF     		it	ne
 4402 0090 8B42     		cmpne	r3, r1
 4403 0092 12D0     		beq	.L248
1431:Drivers/STM32H7xx_HAL_Driver/Src/stm32h7xx_hal_dma.c ****   {
 4404              		.loc 1 1431 0 is_stmt 0 discriminator 2
 4405 0094 864A     		ldr	r2, .L305+28
 4406 0096 9342     		cmp	r3, r2
 4407 0098 0FD0     		beq	.L248
1431:Drivers/STM32H7xx_HAL_Driver/Src/stm32h7xx_hal_dma.c ****   {
 4408              		.loc 1 1431 0 discriminator 4
 4409 009a 1432     		adds	r2, r2, #20
 4410 009c 9342     		cmp	r3, r2
 4411 009e 0CD0     		beq	.L248
1431:Drivers/STM32H7xx_HAL_Driver/Src/stm32h7xx_hal_dma.c ****   {
 4412              		.loc 1 1431 0 discriminator 6
 4413 00a0 1432     		adds	r2, r2, #20
 4414 00a2 9342     		cmp	r3, r2
 4415 00a4 09D0     		beq	.L248
1431:Drivers/STM32H7xx_HAL_Driver/Src/stm32h7xx_hal_dma.c ****   {
 4416              		.loc 1 1431 0 discriminator 8
 4417 00a6 1432     		adds	r2, r2, #20
 4418 00a8 9342     		cmp	r3, r2
 4419 00aa 06D0     		beq	.L248
1431:Drivers/STM32H7xx_HAL_Driver/Src/stm32h7xx_hal_dma.c ****   {
 4420              		.loc 1 1431 0 discriminator 10
 4421 00ac 1432     		adds	r2, r2, #20
 4422 00ae 9342     		cmp	r3, r2
 4423 00b0 03D0     		beq	.L248
1431:Drivers/STM32H7xx_HAL_Driver/Src/stm32h7xx_hal_dma.c ****   {
 4424              		.loc 1 1431 0 discriminator 12
 4425 00b2 1432     		adds	r2, r2, #20
 4426 00b4 9342     		cmp	r3, r2
 4427 00b6 40F06282 		bne	.L246
 4428              	.L248:
1433:Drivers/STM32H7xx_HAL_Driver/Src/stm32h7xx_hal_dma.c **** 
 4429              		.loc 1 1433 0 is_stmt 1
 4430 00ba 1A68     		ldr	r2, [r3]
 4431              	.LVL192:
1436:Drivers/STM32H7xx_HAL_Driver/Src/stm32h7xx_hal_dma.c ****     {
 4432              		.loc 1 1436 0
 4433 00bc E16D     		ldr	r1, [r4, #92]
 4434 00be 01F01F01 		and	r1, r1, #31
 4435 00c2 0420     		movs	r0, #4
 4436 00c4 8840     		lsls	r0, r0, r1
 4437 00c6 10EA0C0F 		tst	r0, ip
 4438 00ca 00F0A882 		beq	.L288
1436:Drivers/STM32H7xx_HAL_Driver/Src/stm32h7xx_hal_dma.c ****     {
 4439              		.loc 1 1436 0 is_stmt 0 discriminator 1
 4440 00ce 12F0040F 		tst	r2, #4
 4441 00d2 00F0A482 		beq	.L288
1439:Drivers/STM32H7xx_HAL_Driver/Src/stm32h7xx_hal_dma.c **** 
 4442              		.loc 1 1439 0 is_stmt 1
ARM GAS  /tmp/ccBO8Lmd.s 			page 129


 4443 00d6 7860     		str	r0, [r7, #4]
1442:Drivers/STM32H7xx_HAL_Driver/Src/stm32h7xx_hal_dma.c ****       {
 4444              		.loc 1 1442 0
 4445 00d8 12F4004F 		tst	r2, #32768
 4446 00dc 00F05B82 		beq	.L289
1445:Drivers/STM32H7xx_HAL_Driver/Src/stm32h7xx_hal_dma.c ****         {
 4447              		.loc 1 1445 0
 4448 00e0 12F4803F 		tst	r2, #65536
 4449 00e4 40F05182 		bne	.L290
1447:Drivers/STM32H7xx_HAL_Driver/Src/stm32h7xx_hal_dma.c ****           {
 4450              		.loc 1 1447 0
 4451 00e8 A36C     		ldr	r3, [r4, #72]
 4452 00ea 002B     		cmp	r3, #0
 4453 00ec 00F04782 		beq	.L246
1450:Drivers/STM32H7xx_HAL_Driver/Src/stm32h7xx_hal_dma.c ****           }
 4454              		.loc 1 1450 0
 4455 00f0 2046     		mov	r0, r4
 4456 00f2 9847     		blx	r3
 4457              	.LVL193:
 4458 00f4 43E2     		b	.L246
 4459              	.LVL194:
 4460              	.L247:
1225:Drivers/STM32H7xx_HAL_Driver/Src/stm32h7xx_hal_dma.c ****     {
 4461              		.loc 1 1225 0
 4462 00f6 E26D     		ldr	r2, [r4, #92]
 4463 00f8 02F01F01 		and	r1, r2, #31
 4464 00fc 0822     		movs	r2, #8
 4465 00fe 8A40     		lsls	r2, r2, r1
 4466 0100 3242     		tst	r2, r6
 4467 0102 41D0     		beq	.L250
1227:Drivers/STM32H7xx_HAL_Driver/Src/stm32h7xx_hal_dma.c ****       {
 4468              		.loc 1 1227 0
 4469 0104 70BB     		cbnz	r0, .L251
1227:Drivers/STM32H7xx_HAL_Driver/Src/stm32h7xx_hal_dma.c ****       {
 4470              		.loc 1 1227 0 is_stmt 0 discriminator 2
 4471 0106 674A     		ldr	r2, .L305+16
 4472 0108 9342     		cmp	r3, r2
 4473 010a 2BD0     		beq	.L251
1227:Drivers/STM32H7xx_HAL_Driver/Src/stm32h7xx_hal_dma.c ****       {
 4474              		.loc 1 1227 0 discriminator 4
 4475 010c 1832     		adds	r2, r2, #24
 4476 010e 9342     		cmp	r3, r2
 4477 0110 28D0     		beq	.L251
1227:Drivers/STM32H7xx_HAL_Driver/Src/stm32h7xx_hal_dma.c ****       {
 4478              		.loc 1 1227 0 discriminator 6
 4479 0112 1832     		adds	r2, r2, #24
 4480 0114 9342     		cmp	r3, r2
 4481 0116 25D0     		beq	.L251
1227:Drivers/STM32H7xx_HAL_Driver/Src/stm32h7xx_hal_dma.c ****       {
 4482              		.loc 1 1227 0 discriminator 8
 4483 0118 1832     		adds	r2, r2, #24
 4484 011a 9342     		cmp	r3, r2
 4485 011c 22D0     		beq	.L251
1227:Drivers/STM32H7xx_HAL_Driver/Src/stm32h7xx_hal_dma.c ****       {
 4486              		.loc 1 1227 0 discriminator 10
 4487 011e 1832     		adds	r2, r2, #24
 4488 0120 9342     		cmp	r3, r2
ARM GAS  /tmp/ccBO8Lmd.s 			page 130


 4489 0122 1FD0     		beq	.L251
1227:Drivers/STM32H7xx_HAL_Driver/Src/stm32h7xx_hal_dma.c ****       {
 4490              		.loc 1 1227 0 discriminator 12
 4491 0124 1832     		adds	r2, r2, #24
 4492 0126 9342     		cmp	r3, r2
 4493 0128 1CD0     		beq	.L251
1227:Drivers/STM32H7xx_HAL_Driver/Src/stm32h7xx_hal_dma.c ****       {
 4494              		.loc 1 1227 0 discriminator 14
 4495 012a 02F55672 		add	r2, r2, #856
 4496 012e 9342     		cmp	r3, r2
 4497 0130 18D0     		beq	.L251
1227:Drivers/STM32H7xx_HAL_Driver/Src/stm32h7xx_hal_dma.c ****       {
 4498              		.loc 1 1227 0 discriminator 16
 4499 0132 1832     		adds	r2, r2, #24
 4500 0134 9342     		cmp	r3, r2
 4501 0136 15D0     		beq	.L251
1227:Drivers/STM32H7xx_HAL_Driver/Src/stm32h7xx_hal_dma.c ****       {
 4502              		.loc 1 1227 0 discriminator 18
 4503 0138 1832     		adds	r2, r2, #24
 4504 013a 9342     		cmp	r3, r2
 4505 013c 12D0     		beq	.L251
1227:Drivers/STM32H7xx_HAL_Driver/Src/stm32h7xx_hal_dma.c ****       {
 4506              		.loc 1 1227 0 discriminator 20
 4507 013e 1832     		adds	r2, r2, #24
 4508 0140 9342     		cmp	r3, r2
 4509 0142 0FD0     		beq	.L251
1227:Drivers/STM32H7xx_HAL_Driver/Src/stm32h7xx_hal_dma.c ****       {
 4510              		.loc 1 1227 0 discriminator 22
 4511 0144 1832     		adds	r2, r2, #24
 4512 0146 9342     		cmp	r3, r2
 4513 0148 0CD0     		beq	.L251
1227:Drivers/STM32H7xx_HAL_Driver/Src/stm32h7xx_hal_dma.c ****       {
 4514              		.loc 1 1227 0 discriminator 24
 4515 014a 1832     		adds	r2, r2, #24
 4516 014c 9342     		cmp	r3, r2
 4517 014e 09D0     		beq	.L251
1227:Drivers/STM32H7xx_HAL_Driver/Src/stm32h7xx_hal_dma.c ****       {
 4518              		.loc 1 1227 0 discriminator 26
 4519 0150 1832     		adds	r2, r2, #24
 4520 0152 9342     		cmp	r3, r2
 4521 0154 06D0     		beq	.L251
1227:Drivers/STM32H7xx_HAL_Driver/Src/stm32h7xx_hal_dma.c ****       {
 4522              		.loc 1 1227 0 discriminator 28
 4523 0156 1832     		adds	r2, r2, #24
 4524 0158 9342     		cmp	r3, r2
 4525 015a 03D0     		beq	.L251
1227:Drivers/STM32H7xx_HAL_Driver/Src/stm32h7xx_hal_dma.c ****       {
 4526              		.loc 1 1227 0 discriminator 30
 4527 015c 1A68     		ldr	r2, [r3]
 4528 015e C2F3C002 		ubfx	r2, r2, #3, #1
 4529 0162 02E0     		b	.L253
 4530              	.L251:
1227:Drivers/STM32H7xx_HAL_Driver/Src/stm32h7xx_hal_dma.c ****       {
 4531              		.loc 1 1227 0 discriminator 29
 4532 0164 1A68     		ldr	r2, [r3]
 4533 0166 C2F38002 		ubfx	r2, r2, #2, #1
 4534              	.L253:
ARM GAS  /tmp/ccBO8Lmd.s 			page 131


1227:Drivers/STM32H7xx_HAL_Driver/Src/stm32h7xx_hal_dma.c ****       {
 4535              		.loc 1 1227 0 discriminator 32
 4536 016a 6AB1     		cbz	r2, .L250
1230:Drivers/STM32H7xx_HAL_Driver/Src/stm32h7xx_hal_dma.c **** 
 4537              		.loc 1 1230 0 is_stmt 1
 4538 016c 1A68     		ldr	r2, [r3]
 4539 016e 22F00402 		bic	r2, r2, #4
 4540 0172 1A60     		str	r2, [r3]
1233:Drivers/STM32H7xx_HAL_Driver/Src/stm32h7xx_hal_dma.c **** 
 4541              		.loc 1 1233 0
 4542 0174 E36D     		ldr	r3, [r4, #92]
 4543 0176 03F01F02 		and	r2, r3, #31
 4544 017a 0823     		movs	r3, #8
 4545 017c 9340     		lsls	r3, r3, r2
 4546 017e BB60     		str	r3, [r7, #8]
1236:Drivers/STM32H7xx_HAL_Driver/Src/stm32h7xx_hal_dma.c ****       }
 4547              		.loc 1 1236 0
 4548 0180 636D     		ldr	r3, [r4, #84]
 4549 0182 43F00103 		orr	r3, r3, #1
 4550 0186 6365     		str	r3, [r4, #84]
 4551              	.L250:
1240:Drivers/STM32H7xx_HAL_Driver/Src/stm32h7xx_hal_dma.c ****     {
 4552              		.loc 1 1240 0
 4553 0188 E26D     		ldr	r2, [r4, #92]
 4554 018a 02F01F02 		and	r2, r2, #31
 4555 018e 26FA02F3 		lsr	r3, r6, r2
 4556 0192 13F0010F 		tst	r3, #1
 4557 0196 37D0     		beq	.L254
1242:Drivers/STM32H7xx_HAL_Driver/Src/stm32h7xx_hal_dma.c ****       {
 4558              		.loc 1 1242 0
 4559 0198 2368     		ldr	r3, [r4]
 4560 019a 4048     		ldr	r0, .L305+8
 4561 019c 4049     		ldr	r1, .L305+12
 4562 019e 8B42     		cmp	r3, r1
 4563 01a0 18BF     		it	ne
 4564 01a2 8342     		cmpne	r3, r0
 4565 01a4 2CD0     		beq	.L255
1242:Drivers/STM32H7xx_HAL_Driver/Src/stm32h7xx_hal_dma.c ****       {
 4566              		.loc 1 1242 0 is_stmt 0 discriminator 2
 4567 01a6 1831     		adds	r1, r1, #24
 4568 01a8 8B42     		cmp	r3, r1
 4569 01aa 29D0     		beq	.L255
1242:Drivers/STM32H7xx_HAL_Driver/Src/stm32h7xx_hal_dma.c ****       {
 4570              		.loc 1 1242 0 discriminator 4
 4571 01ac 1831     		adds	r1, r1, #24
 4572 01ae 8B42     		cmp	r3, r1
 4573 01b0 26D0     		beq	.L255
1242:Drivers/STM32H7xx_HAL_Driver/Src/stm32h7xx_hal_dma.c ****       {
 4574              		.loc 1 1242 0 discriminator 6
 4575 01b2 1831     		adds	r1, r1, #24
 4576 01b4 8B42     		cmp	r3, r1
 4577 01b6 23D0     		beq	.L255
1242:Drivers/STM32H7xx_HAL_Driver/Src/stm32h7xx_hal_dma.c ****       {
 4578              		.loc 1 1242 0 discriminator 8
 4579 01b8 1831     		adds	r1, r1, #24
 4580 01ba 8B42     		cmp	r3, r1
 4581 01bc 20D0     		beq	.L255
ARM GAS  /tmp/ccBO8Lmd.s 			page 132


1242:Drivers/STM32H7xx_HAL_Driver/Src/stm32h7xx_hal_dma.c ****       {
 4582              		.loc 1 1242 0 discriminator 10
 4583 01be 1831     		adds	r1, r1, #24
 4584 01c0 8B42     		cmp	r3, r1
 4585 01c2 1DD0     		beq	.L255
1242:Drivers/STM32H7xx_HAL_Driver/Src/stm32h7xx_hal_dma.c ****       {
 4586              		.loc 1 1242 0 discriminator 12
 4587 01c4 1831     		adds	r1, r1, #24
 4588 01c6 8B42     		cmp	r3, r1
 4589 01c8 1AD0     		beq	.L255
1242:Drivers/STM32H7xx_HAL_Driver/Src/stm32h7xx_hal_dma.c ****       {
 4590              		.loc 1 1242 0 discriminator 14
 4591 01ca 01F55671 		add	r1, r1, #856
 4592 01ce 8B42     		cmp	r3, r1
 4593 01d0 16D0     		beq	.L255
1242:Drivers/STM32H7xx_HAL_Driver/Src/stm32h7xx_hal_dma.c ****       {
 4594              		.loc 1 1242 0 discriminator 16
 4595 01d2 1831     		adds	r1, r1, #24
 4596 01d4 8B42     		cmp	r3, r1
 4597 01d6 13D0     		beq	.L255
1242:Drivers/STM32H7xx_HAL_Driver/Src/stm32h7xx_hal_dma.c ****       {
 4598              		.loc 1 1242 0 discriminator 18
 4599 01d8 1831     		adds	r1, r1, #24
 4600 01da 8B42     		cmp	r3, r1
 4601 01dc 10D0     		beq	.L255
1242:Drivers/STM32H7xx_HAL_Driver/Src/stm32h7xx_hal_dma.c ****       {
 4602              		.loc 1 1242 0 discriminator 20
 4603 01de 1831     		adds	r1, r1, #24
 4604 01e0 8B42     		cmp	r3, r1
 4605 01e2 0DD0     		beq	.L255
1242:Drivers/STM32H7xx_HAL_Driver/Src/stm32h7xx_hal_dma.c ****       {
 4606              		.loc 1 1242 0 discriminator 22
 4607 01e4 1831     		adds	r1, r1, #24
 4608 01e6 8B42     		cmp	r3, r1
 4609 01e8 0AD0     		beq	.L255
1242:Drivers/STM32H7xx_HAL_Driver/Src/stm32h7xx_hal_dma.c ****       {
 4610              		.loc 1 1242 0 discriminator 24
 4611 01ea 1831     		adds	r1, r1, #24
 4612 01ec 8B42     		cmp	r3, r1
 4613 01ee 07D0     		beq	.L255
1242:Drivers/STM32H7xx_HAL_Driver/Src/stm32h7xx_hal_dma.c ****       {
 4614              		.loc 1 1242 0 discriminator 26
 4615 01f0 1831     		adds	r1, r1, #24
 4616 01f2 8B42     		cmp	r3, r1
 4617 01f4 04D0     		beq	.L255
1242:Drivers/STM32H7xx_HAL_Driver/Src/stm32h7xx_hal_dma.c ****       {
 4618              		.loc 1 1242 0 discriminator 28
 4619 01f6 1831     		adds	r1, r1, #24
 4620 01f8 8B42     		cmp	r3, r1
 4621 01fa 01D0     		beq	.L255
1242:Drivers/STM32H7xx_HAL_Driver/Src/stm32h7xx_hal_dma.c ****       {
 4622              		.loc 1 1242 0 discriminator 30
 4623 01fc 1B68     		ldr	r3, [r3]
 4624 01fe 03E0     		b	.L254
 4625              	.L255:
1242:Drivers/STM32H7xx_HAL_Driver/Src/stm32h7xx_hal_dma.c ****       {
 4626              		.loc 1 1242 0 discriminator 29
ARM GAS  /tmp/ccBO8Lmd.s 			page 133


 4627 0200 5B69     		ldr	r3, [r3, #20]
 4628 0202 13F0800F 		tst	r3, #128
 4629 0206 3BD1     		bne	.L257
 4630              	.L254:
1252:Drivers/STM32H7xx_HAL_Driver/Src/stm32h7xx_hal_dma.c ****     {
 4631              		.loc 1 1252 0 is_stmt 1
 4632 0208 E36D     		ldr	r3, [r4, #92]
 4633 020a 03F01F03 		and	r3, r3, #31
 4634 020e 0422     		movs	r2, #4
 4635 0210 02FA03F3 		lsl	r3, r2, r3
 4636 0214 3342     		tst	r3, r6
 4637 0216 51D0     		beq	.L258
1254:Drivers/STM32H7xx_HAL_Driver/Src/stm32h7xx_hal_dma.c ****       {
 4638              		.loc 1 1254 0
 4639 0218 2268     		ldr	r2, [r4]
 4640 021a 2048     		ldr	r0, .L305+8
 4641 021c 2049     		ldr	r1, .L305+12
 4642 021e 8A42     		cmp	r2, r1
 4643 0220 18BF     		it	ne
 4644 0222 8242     		cmpne	r2, r0
 4645 0224 46D0     		beq	.L259
1254:Drivers/STM32H7xx_HAL_Driver/Src/stm32h7xx_hal_dma.c ****       {
 4646              		.loc 1 1254 0 is_stmt 0 discriminator 2
 4647 0226 1831     		adds	r1, r1, #24
 4648 0228 8A42     		cmp	r2, r1
 4649 022a 43D0     		beq	.L259
1254:Drivers/STM32H7xx_HAL_Driver/Src/stm32h7xx_hal_dma.c ****       {
 4650              		.loc 1 1254 0 discriminator 4
 4651 022c 1831     		adds	r1, r1, #24
 4652 022e 8A42     		cmp	r2, r1
 4653 0230 40D0     		beq	.L259
1254:Drivers/STM32H7xx_HAL_Driver/Src/stm32h7xx_hal_dma.c ****       {
 4654              		.loc 1 1254 0 discriminator 6
 4655 0232 1831     		adds	r1, r1, #24
 4656 0234 8A42     		cmp	r2, r1
 4657 0236 3DD0     		beq	.L259
1254:Drivers/STM32H7xx_HAL_Driver/Src/stm32h7xx_hal_dma.c ****       {
 4658              		.loc 1 1254 0 discriminator 8
 4659 0238 1831     		adds	r1, r1, #24
 4660 023a 8A42     		cmp	r2, r1
 4661 023c 3AD0     		beq	.L259
1254:Drivers/STM32H7xx_HAL_Driver/Src/stm32h7xx_hal_dma.c ****       {
 4662              		.loc 1 1254 0 discriminator 10
 4663 023e 1831     		adds	r1, r1, #24
 4664 0240 8A42     		cmp	r2, r1
 4665 0242 37D0     		beq	.L259
1254:Drivers/STM32H7xx_HAL_Driver/Src/stm32h7xx_hal_dma.c ****       {
 4666              		.loc 1 1254 0 discriminator 12
 4667 0244 1831     		adds	r1, r1, #24
 4668 0246 8A42     		cmp	r2, r1
 4669 0248 34D0     		beq	.L259
1254:Drivers/STM32H7xx_HAL_Driver/Src/stm32h7xx_hal_dma.c ****       {
 4670              		.loc 1 1254 0 discriminator 14
 4671 024a 01F55671 		add	r1, r1, #856
 4672 024e 8A42     		cmp	r2, r1
 4673 0250 30D0     		beq	.L259
1254:Drivers/STM32H7xx_HAL_Driver/Src/stm32h7xx_hal_dma.c ****       {
ARM GAS  /tmp/ccBO8Lmd.s 			page 134


 4674              		.loc 1 1254 0 discriminator 16
 4675 0252 1831     		adds	r1, r1, #24
 4676 0254 8A42     		cmp	r2, r1
 4677 0256 2DD0     		beq	.L259
1254:Drivers/STM32H7xx_HAL_Driver/Src/stm32h7xx_hal_dma.c ****       {
 4678              		.loc 1 1254 0 discriminator 18
 4679 0258 1831     		adds	r1, r1, #24
 4680 025a 8A42     		cmp	r2, r1
 4681 025c 2AD0     		beq	.L259
1254:Drivers/STM32H7xx_HAL_Driver/Src/stm32h7xx_hal_dma.c ****       {
 4682              		.loc 1 1254 0 discriminator 20
 4683 025e 1831     		adds	r1, r1, #24
 4684 0260 8A42     		cmp	r2, r1
 4685 0262 27D0     		beq	.L259
1254:Drivers/STM32H7xx_HAL_Driver/Src/stm32h7xx_hal_dma.c ****       {
 4686              		.loc 1 1254 0 discriminator 22
 4687 0264 1831     		adds	r1, r1, #24
 4688 0266 8A42     		cmp	r2, r1
 4689 0268 24D0     		beq	.L259
1254:Drivers/STM32H7xx_HAL_Driver/Src/stm32h7xx_hal_dma.c ****       {
 4690              		.loc 1 1254 0 discriminator 24
 4691 026a 1831     		adds	r1, r1, #24
 4692 026c 8A42     		cmp	r2, r1
 4693 026e 21D0     		beq	.L259
1254:Drivers/STM32H7xx_HAL_Driver/Src/stm32h7xx_hal_dma.c ****       {
 4694              		.loc 1 1254 0 discriminator 26
 4695 0270 1831     		adds	r1, r1, #24
 4696 0272 8A42     		cmp	r2, r1
 4697 0274 1ED0     		beq	.L259
1254:Drivers/STM32H7xx_HAL_Driver/Src/stm32h7xx_hal_dma.c ****       {
 4698              		.loc 1 1254 0 discriminator 28
 4699 0276 1831     		adds	r1, r1, #24
 4700 0278 8A42     		cmp	r2, r1
 4701 027a 1BD0     		beq	.L259
1254:Drivers/STM32H7xx_HAL_Driver/Src/stm32h7xx_hal_dma.c ****       {
 4702              		.loc 1 1254 0 discriminator 30
 4703 027c 1368     		ldr	r3, [r2]
 4704 027e 1DE0     		b	.L258
 4705              	.L257:
1245:Drivers/STM32H7xx_HAL_Driver/Src/stm32h7xx_hal_dma.c **** 
 4706              		.loc 1 1245 0 is_stmt 1
 4707 0280 0123     		movs	r3, #1
 4708 0282 03FA02F2 		lsl	r2, r3, r2
 4709 0286 BA60     		str	r2, [r7, #8]
1248:Drivers/STM32H7xx_HAL_Driver/Src/stm32h7xx_hal_dma.c ****       }
 4710              		.loc 1 1248 0
 4711 0288 636D     		ldr	r3, [r4, #84]
 4712 028a 43F00203 		orr	r3, r3, #2
 4713 028e 6365     		str	r3, [r4, #84]
 4714 0290 BAE7     		b	.L254
 4715              	.L306:
 4716 0292 00BF     		.align	2
 4717              	.L305:
 4718 0294 00000000 		.word	SystemCoreClock
 4719 0298 B5814E1B 		.word	458129845
 4720 029c 10000240 		.word	1073872912
 4721 02a0 28000240 		.word	1073872936
ARM GAS  /tmp/ccBO8Lmd.s 			page 135


 4722 02a4 40000240 		.word	1073872960
 4723 02a8 08540258 		.word	1476547592
 4724 02ac 1C540258 		.word	1476547612
 4725 02b0 30540258 		.word	1476547632
 4726              	.L259:
1254:Drivers/STM32H7xx_HAL_Driver/Src/stm32h7xx_hal_dma.c ****       {
 4727              		.loc 1 1254 0 discriminator 29
 4728 02b4 1268     		ldr	r2, [r2]
 4729 02b6 12F0020F 		tst	r2, #2
 4730 02ba 3DD1     		bne	.L261
 4731              	.L258:
1264:Drivers/STM32H7xx_HAL_Driver/Src/stm32h7xx_hal_dma.c ****     {
 4732              		.loc 1 1264 0
 4733 02bc E36D     		ldr	r3, [r4, #92]
 4734 02be 03F01F03 		and	r3, r3, #31
 4735 02c2 1022     		movs	r2, #16
 4736 02c4 02FA03F3 		lsl	r3, r2, r3
 4737 02c8 3342     		tst	r3, r6
 4738 02ca 5FD0     		beq	.L262
1266:Drivers/STM32H7xx_HAL_Driver/Src/stm32h7xx_hal_dma.c ****       {
 4739              		.loc 1 1266 0
 4740 02cc 2268     		ldr	r2, [r4]
 4741 02ce 9B48     		ldr	r0, .L307
 4742 02d0 9B49     		ldr	r1, .L307+4
 4743 02d2 8A42     		cmp	r2, r1
 4744 02d4 18BF     		it	ne
 4745 02d6 8242     		cmpne	r2, r0
 4746 02d8 34D0     		beq	.L263
1266:Drivers/STM32H7xx_HAL_Driver/Src/stm32h7xx_hal_dma.c ****       {
 4747              		.loc 1 1266 0 is_stmt 0 discriminator 2
 4748 02da 1831     		adds	r1, r1, #24
 4749 02dc 8A42     		cmp	r2, r1
 4750 02de 31D0     		beq	.L263
1266:Drivers/STM32H7xx_HAL_Driver/Src/stm32h7xx_hal_dma.c ****       {
 4751              		.loc 1 1266 0 discriminator 4
 4752 02e0 1831     		adds	r1, r1, #24
 4753 02e2 8A42     		cmp	r2, r1
 4754 02e4 2ED0     		beq	.L263
1266:Drivers/STM32H7xx_HAL_Driver/Src/stm32h7xx_hal_dma.c ****       {
 4755              		.loc 1 1266 0 discriminator 6
 4756 02e6 1831     		adds	r1, r1, #24
 4757 02e8 8A42     		cmp	r2, r1
 4758 02ea 2BD0     		beq	.L263
1266:Drivers/STM32H7xx_HAL_Driver/Src/stm32h7xx_hal_dma.c ****       {
 4759              		.loc 1 1266 0 discriminator 8
 4760 02ec 1831     		adds	r1, r1, #24
 4761 02ee 8A42     		cmp	r2, r1
 4762 02f0 28D0     		beq	.L263
1266:Drivers/STM32H7xx_HAL_Driver/Src/stm32h7xx_hal_dma.c ****       {
 4763              		.loc 1 1266 0 discriminator 10
 4764 02f2 1831     		adds	r1, r1, #24
 4765 02f4 8A42     		cmp	r2, r1
 4766 02f6 25D0     		beq	.L263
1266:Drivers/STM32H7xx_HAL_Driver/Src/stm32h7xx_hal_dma.c ****       {
 4767              		.loc 1 1266 0 discriminator 12
 4768 02f8 1831     		adds	r1, r1, #24
 4769 02fa 8A42     		cmp	r2, r1
ARM GAS  /tmp/ccBO8Lmd.s 			page 136


 4770 02fc 22D0     		beq	.L263
1266:Drivers/STM32H7xx_HAL_Driver/Src/stm32h7xx_hal_dma.c ****       {
 4771              		.loc 1 1266 0 discriminator 14
 4772 02fe 01F55671 		add	r1, r1, #856
 4773 0302 8A42     		cmp	r2, r1
 4774 0304 1ED0     		beq	.L263
1266:Drivers/STM32H7xx_HAL_Driver/Src/stm32h7xx_hal_dma.c ****       {
 4775              		.loc 1 1266 0 discriminator 16
 4776 0306 1831     		adds	r1, r1, #24
 4777 0308 8A42     		cmp	r2, r1
 4778 030a 1BD0     		beq	.L263
1266:Drivers/STM32H7xx_HAL_Driver/Src/stm32h7xx_hal_dma.c ****       {
 4779              		.loc 1 1266 0 discriminator 18
 4780 030c 1831     		adds	r1, r1, #24
 4781 030e 8A42     		cmp	r2, r1
 4782 0310 18D0     		beq	.L263
1266:Drivers/STM32H7xx_HAL_Driver/Src/stm32h7xx_hal_dma.c ****       {
 4783              		.loc 1 1266 0 discriminator 20
 4784 0312 1831     		adds	r1, r1, #24
 4785 0314 8A42     		cmp	r2, r1
 4786 0316 15D0     		beq	.L263
1266:Drivers/STM32H7xx_HAL_Driver/Src/stm32h7xx_hal_dma.c ****       {
 4787              		.loc 1 1266 0 discriminator 22
 4788 0318 1831     		adds	r1, r1, #24
 4789 031a 8A42     		cmp	r2, r1
 4790 031c 12D0     		beq	.L263
1266:Drivers/STM32H7xx_HAL_Driver/Src/stm32h7xx_hal_dma.c ****       {
 4791              		.loc 1 1266 0 discriminator 24
 4792 031e 1831     		adds	r1, r1, #24
 4793 0320 8A42     		cmp	r2, r1
 4794 0322 0FD0     		beq	.L263
1266:Drivers/STM32H7xx_HAL_Driver/Src/stm32h7xx_hal_dma.c ****       {
 4795              		.loc 1 1266 0 discriminator 26
 4796 0324 1831     		adds	r1, r1, #24
 4797 0326 8A42     		cmp	r2, r1
 4798 0328 0CD0     		beq	.L263
1266:Drivers/STM32H7xx_HAL_Driver/Src/stm32h7xx_hal_dma.c ****       {
 4799              		.loc 1 1266 0 discriminator 28
 4800 032a 1831     		adds	r1, r1, #24
 4801 032c 8A42     		cmp	r2, r1
 4802 032e 09D0     		beq	.L263
1266:Drivers/STM32H7xx_HAL_Driver/Src/stm32h7xx_hal_dma.c ****       {
 4803              		.loc 1 1266 0 discriminator 30
 4804 0330 1268     		ldr	r2, [r2]
 4805 0332 C2F38002 		ubfx	r2, r2, #2, #1
 4806 0336 08E0     		b	.L265
 4807              	.L261:
1257:Drivers/STM32H7xx_HAL_Driver/Src/stm32h7xx_hal_dma.c **** 
 4808              		.loc 1 1257 0 is_stmt 1
 4809 0338 BB60     		str	r3, [r7, #8]
1260:Drivers/STM32H7xx_HAL_Driver/Src/stm32h7xx_hal_dma.c ****       }
 4810              		.loc 1 1260 0
 4811 033a 636D     		ldr	r3, [r4, #84]
 4812 033c 43F00403 		orr	r3, r3, #4
 4813 0340 6365     		str	r3, [r4, #84]
 4814 0342 BBE7     		b	.L258
 4815              	.L263:
ARM GAS  /tmp/ccBO8Lmd.s 			page 137


1266:Drivers/STM32H7xx_HAL_Driver/Src/stm32h7xx_hal_dma.c ****       {
 4816              		.loc 1 1266 0 discriminator 29
 4817 0344 1268     		ldr	r2, [r2]
 4818 0346 C2F3C002 		ubfx	r2, r2, #3, #1
 4819              	.L265:
1266:Drivers/STM32H7xx_HAL_Driver/Src/stm32h7xx_hal_dma.c ****       {
 4820              		.loc 1 1266 0 is_stmt 0 discriminator 32
 4821 034a FAB1     		cbz	r2, .L262
1269:Drivers/STM32H7xx_HAL_Driver/Src/stm32h7xx_hal_dma.c **** 
 4822              		.loc 1 1269 0 is_stmt 1
 4823 034c BB60     		str	r3, [r7, #8]
1272:Drivers/STM32H7xx_HAL_Driver/Src/stm32h7xx_hal_dma.c ****         {
 4824              		.loc 1 1272 0
 4825 034e 2368     		ldr	r3, [r4]
 4826 0350 1A68     		ldr	r2, [r3]
 4827 0352 12F4802F 		tst	r2, #262144
 4828 0356 0DD0     		beq	.L266
1275:Drivers/STM32H7xx_HAL_Driver/Src/stm32h7xx_hal_dma.c ****           {
 4829              		.loc 1 1275 0
 4830 0358 1B68     		ldr	r3, [r3]
 4831 035a 13F4002F 		tst	r3, #524288
 4832 035e 04D1     		bne	.L267
1277:Drivers/STM32H7xx_HAL_Driver/Src/stm32h7xx_hal_dma.c ****             {
 4833              		.loc 1 1277 0
 4834 0360 236C     		ldr	r3, [r4, #64]
 4835 0362 9BB1     		cbz	r3, .L262
1280:Drivers/STM32H7xx_HAL_Driver/Src/stm32h7xx_hal_dma.c ****             }
 4836              		.loc 1 1280 0
 4837 0364 2046     		mov	r0, r4
 4838 0366 9847     		blx	r3
 4839              	.LVL195:
 4840 0368 10E0     		b	.L262
 4841              	.LVL196:
 4842              	.L267:
1286:Drivers/STM32H7xx_HAL_Driver/Src/stm32h7xx_hal_dma.c ****             {
 4843              		.loc 1 1286 0
 4844 036a A36C     		ldr	r3, [r4, #72]
 4845 036c 73B1     		cbz	r3, .L262
1289:Drivers/STM32H7xx_HAL_Driver/Src/stm32h7xx_hal_dma.c ****             }
 4846              		.loc 1 1289 0
 4847 036e 2046     		mov	r0, r4
 4848 0370 9847     		blx	r3
 4849              	.LVL197:
 4850 0372 0BE0     		b	.L262
 4851              	.LVL198:
 4852              	.L266:
1296:Drivers/STM32H7xx_HAL_Driver/Src/stm32h7xx_hal_dma.c ****           {
 4853              		.loc 1 1296 0
 4854 0374 1A68     		ldr	r2, [r3]
 4855 0376 12F4807F 		tst	r2, #256
 4856 037a 03D1     		bne	.L268
1299:Drivers/STM32H7xx_HAL_Driver/Src/stm32h7xx_hal_dma.c ****           }
 4857              		.loc 1 1299 0
 4858 037c 1A68     		ldr	r2, [r3]
 4859 037e 22F00802 		bic	r2, r2, #8
 4860 0382 1A60     		str	r2, [r3]
 4861              	.L268:
ARM GAS  /tmp/ccBO8Lmd.s 			page 138


1302:Drivers/STM32H7xx_HAL_Driver/Src/stm32h7xx_hal_dma.c ****           {
 4862              		.loc 1 1302 0
 4863 0384 236C     		ldr	r3, [r4, #64]
 4864 0386 0BB1     		cbz	r3, .L262
1305:Drivers/STM32H7xx_HAL_Driver/Src/stm32h7xx_hal_dma.c ****           }
 4865              		.loc 1 1305 0
 4866 0388 2046     		mov	r0, r4
 4867 038a 9847     		blx	r3
 4868              	.LVL199:
 4869              	.L262:
1311:Drivers/STM32H7xx_HAL_Driver/Src/stm32h7xx_hal_dma.c ****     {
 4870              		.loc 1 1311 0
 4871 038c E36D     		ldr	r3, [r4, #92]
 4872 038e 03F01F03 		and	r3, r3, #31
 4873 0392 2022     		movs	r2, #32
 4874 0394 02FA03F3 		lsl	r3, r2, r3
 4875 0398 3342     		tst	r3, r6
 4876 039a 00F08E80 		beq	.L269
1313:Drivers/STM32H7xx_HAL_Driver/Src/stm32h7xx_hal_dma.c ****       {
 4877              		.loc 1 1313 0
 4878 039e 2268     		ldr	r2, [r4]
 4879 03a0 6648     		ldr	r0, .L307
 4880 03a2 6749     		ldr	r1, .L307+4
 4881 03a4 8A42     		cmp	r2, r1
 4882 03a6 18BF     		it	ne
 4883 03a8 8242     		cmpne	r2, r0
 4884 03aa 2ED0     		beq	.L270
1313:Drivers/STM32H7xx_HAL_Driver/Src/stm32h7xx_hal_dma.c ****       {
 4885              		.loc 1 1313 0 is_stmt 0 discriminator 2
 4886 03ac 1831     		adds	r1, r1, #24
 4887 03ae 8A42     		cmp	r2, r1
 4888 03b0 2BD0     		beq	.L270
1313:Drivers/STM32H7xx_HAL_Driver/Src/stm32h7xx_hal_dma.c ****       {
 4889              		.loc 1 1313 0 discriminator 4
 4890 03b2 1831     		adds	r1, r1, #24
 4891 03b4 8A42     		cmp	r2, r1
 4892 03b6 28D0     		beq	.L270
1313:Drivers/STM32H7xx_HAL_Driver/Src/stm32h7xx_hal_dma.c ****       {
 4893              		.loc 1 1313 0 discriminator 6
 4894 03b8 1831     		adds	r1, r1, #24
 4895 03ba 8A42     		cmp	r2, r1
 4896 03bc 25D0     		beq	.L270
1313:Drivers/STM32H7xx_HAL_Driver/Src/stm32h7xx_hal_dma.c ****       {
 4897              		.loc 1 1313 0 discriminator 8
 4898 03be 1831     		adds	r1, r1, #24
 4899 03c0 8A42     		cmp	r2, r1
 4900 03c2 22D0     		beq	.L270
1313:Drivers/STM32H7xx_HAL_Driver/Src/stm32h7xx_hal_dma.c ****       {
 4901              		.loc 1 1313 0 discriminator 10
 4902 03c4 1831     		adds	r1, r1, #24
 4903 03c6 8A42     		cmp	r2, r1
 4904 03c8 1FD0     		beq	.L270
1313:Drivers/STM32H7xx_HAL_Driver/Src/stm32h7xx_hal_dma.c ****       {
 4905              		.loc 1 1313 0 discriminator 12
 4906 03ca 1831     		adds	r1, r1, #24
 4907 03cc 8A42     		cmp	r2, r1
 4908 03ce 1CD0     		beq	.L270
ARM GAS  /tmp/ccBO8Lmd.s 			page 139


1313:Drivers/STM32H7xx_HAL_Driver/Src/stm32h7xx_hal_dma.c ****       {
 4909              		.loc 1 1313 0 discriminator 14
 4910 03d0 01F55671 		add	r1, r1, #856
 4911 03d4 8A42     		cmp	r2, r1
 4912 03d6 18D0     		beq	.L270
1313:Drivers/STM32H7xx_HAL_Driver/Src/stm32h7xx_hal_dma.c ****       {
 4913              		.loc 1 1313 0 discriminator 16
 4914 03d8 1831     		adds	r1, r1, #24
 4915 03da 8A42     		cmp	r2, r1
 4916 03dc 15D0     		beq	.L270
1313:Drivers/STM32H7xx_HAL_Driver/Src/stm32h7xx_hal_dma.c ****       {
 4917              		.loc 1 1313 0 discriminator 18
 4918 03de 1831     		adds	r1, r1, #24
 4919 03e0 8A42     		cmp	r2, r1
 4920 03e2 12D0     		beq	.L270
1313:Drivers/STM32H7xx_HAL_Driver/Src/stm32h7xx_hal_dma.c ****       {
 4921              		.loc 1 1313 0 discriminator 20
 4922 03e4 1831     		adds	r1, r1, #24
 4923 03e6 8A42     		cmp	r2, r1
 4924 03e8 0FD0     		beq	.L270
1313:Drivers/STM32H7xx_HAL_Driver/Src/stm32h7xx_hal_dma.c ****       {
 4925              		.loc 1 1313 0 discriminator 22
 4926 03ea 1831     		adds	r1, r1, #24
 4927 03ec 8A42     		cmp	r2, r1
 4928 03ee 0CD0     		beq	.L270
1313:Drivers/STM32H7xx_HAL_Driver/Src/stm32h7xx_hal_dma.c ****       {
 4929              		.loc 1 1313 0 discriminator 24
 4930 03f0 1831     		adds	r1, r1, #24
 4931 03f2 8A42     		cmp	r2, r1
 4932 03f4 09D0     		beq	.L270
1313:Drivers/STM32H7xx_HAL_Driver/Src/stm32h7xx_hal_dma.c ****       {
 4933              		.loc 1 1313 0 discriminator 26
 4934 03f6 1831     		adds	r1, r1, #24
 4935 03f8 8A42     		cmp	r2, r1
 4936 03fa 06D0     		beq	.L270
1313:Drivers/STM32H7xx_HAL_Driver/Src/stm32h7xx_hal_dma.c ****       {
 4937              		.loc 1 1313 0 discriminator 28
 4938 03fc 1831     		adds	r1, r1, #24
 4939 03fe 8A42     		cmp	r2, r1
 4940 0400 03D0     		beq	.L270
1313:Drivers/STM32H7xx_HAL_Driver/Src/stm32h7xx_hal_dma.c ****       {
 4941              		.loc 1 1313 0 discriminator 30
 4942 0402 1268     		ldr	r2, [r2]
 4943 0404 C2F34002 		ubfx	r2, r2, #1, #1
 4944 0408 02E0     		b	.L272
 4945              	.L270:
1313:Drivers/STM32H7xx_HAL_Driver/Src/stm32h7xx_hal_dma.c ****       {
 4946              		.loc 1 1313 0 discriminator 29
 4947 040a 1268     		ldr	r2, [r2]
 4948 040c C2F30012 		ubfx	r2, r2, #4, #1
 4949              	.L272:
1313:Drivers/STM32H7xx_HAL_Driver/Src/stm32h7xx_hal_dma.c ****       {
 4950              		.loc 1 1313 0 discriminator 32
 4951 0410 002A     		cmp	r2, #0
 4952 0412 52D0     		beq	.L269
1316:Drivers/STM32H7xx_HAL_Driver/Src/stm32h7xx_hal_dma.c **** 
 4953              		.loc 1 1316 0 is_stmt 1
ARM GAS  /tmp/ccBO8Lmd.s 			page 140


 4954 0414 BB60     		str	r3, [r7, #8]
1318:Drivers/STM32H7xx_HAL_Driver/Src/stm32h7xx_hal_dma.c ****         {
 4955              		.loc 1 1318 0
 4956 0416 94F83530 		ldrb	r3, [r4, #53]	@ zero_extendqisi2
 4957 041a DBB2     		uxtb	r3, r3
 4958 041c 042B     		cmp	r3, #4
 4959 041e 0ED0     		beq	.L303
1345:Drivers/STM32H7xx_HAL_Driver/Src/stm32h7xx_hal_dma.c ****         {
 4960              		.loc 1 1345 0
 4961 0420 2368     		ldr	r3, [r4]
 4962 0422 1A68     		ldr	r2, [r3]
 4963 0424 12F4802F 		tst	r2, #262144
 4964 0428 35D0     		beq	.L277
1348:Drivers/STM32H7xx_HAL_Driver/Src/stm32h7xx_hal_dma.c ****           {
 4965              		.loc 1 1348 0
 4966 042a 1B68     		ldr	r3, [r3]
 4967 042c 13F4002F 		tst	r3, #524288
 4968 0430 2CD1     		bne	.L278
1350:Drivers/STM32H7xx_HAL_Driver/Src/stm32h7xx_hal_dma.c ****             {
 4969              		.loc 1 1350 0
 4970 0432 636C     		ldr	r3, [r4, #68]
 4971 0434 002B     		cmp	r3, #0
 4972 0436 40D0     		beq	.L269
1353:Drivers/STM32H7xx_HAL_Driver/Src/stm32h7xx_hal_dma.c ****             }
 4973              		.loc 1 1353 0
 4974 0438 2046     		mov	r0, r4
 4975 043a 9847     		blx	r3
 4976              	.LVL200:
 4977 043c 3DE0     		b	.L269
 4978              	.L303:
1321:Drivers/STM32H7xx_HAL_Driver/Src/stm32h7xx_hal_dma.c ****           ((DMA_Stream_TypeDef   *)hdma->Instance)->FCR &= ~(DMA_IT_FE);
 4979              		.loc 1 1321 0
 4980 043e 2268     		ldr	r2, [r4]
 4981 0440 1368     		ldr	r3, [r2]
 4982 0442 23F01603 		bic	r3, r3, #22
 4983 0446 1360     		str	r3, [r2]
1322:Drivers/STM32H7xx_HAL_Driver/Src/stm32h7xx_hal_dma.c **** 
 4984              		.loc 1 1322 0
 4985 0448 2268     		ldr	r2, [r4]
 4986 044a 5369     		ldr	r3, [r2, #20]
 4987 044c 23F08003 		bic	r3, r3, #128
 4988 0450 5361     		str	r3, [r2, #20]
1324:Drivers/STM32H7xx_HAL_Driver/Src/stm32h7xx_hal_dma.c ****           {
 4989              		.loc 1 1324 0
 4990 0452 236C     		ldr	r3, [r4, #64]
 4991 0454 B3B1     		cbz	r3, .L304
 4992              	.L274:
1326:Drivers/STM32H7xx_HAL_Driver/Src/stm32h7xx_hal_dma.c ****           }
 4993              		.loc 1 1326 0
 4994 0456 2268     		ldr	r2, [r4]
 4995 0458 1368     		ldr	r3, [r2]
 4996 045a 23F00803 		bic	r3, r3, #8
 4997 045e 1360     		str	r3, [r2]
 4998              	.L275:
1330:Drivers/STM32H7xx_HAL_Driver/Src/stm32h7xx_hal_dma.c **** 
 4999              		.loc 1 1330 0
 5000 0460 E36D     		ldr	r3, [r4, #92]
ARM GAS  /tmp/ccBO8Lmd.s 			page 141


 5001 0462 03F01F02 		and	r2, r3, #31
 5002 0466 3F23     		movs	r3, #63
 5003 0468 9340     		lsls	r3, r3, r2
 5004 046a BB60     		str	r3, [r7, #8]
1333:Drivers/STM32H7xx_HAL_Driver/Src/stm32h7xx_hal_dma.c **** 
 5005              		.loc 1 1333 0
 5006 046c 0123     		movs	r3, #1
 5007 046e 84F83530 		strb	r3, [r4, #53]
1336:Drivers/STM32H7xx_HAL_Driver/Src/stm32h7xx_hal_dma.c **** 
 5008              		.loc 1 1336 0
 5009 0472 0023     		movs	r3, #0
 5010 0474 84F83430 		strb	r3, [r4, #52]
1338:Drivers/STM32H7xx_HAL_Driver/Src/stm32h7xx_hal_dma.c ****           {
 5011              		.loc 1 1338 0
 5012 0478 236D     		ldr	r3, [r4, #80]
 5013 047a 002B     		cmp	r3, #0
 5014 047c 7FD0     		beq	.L246
1340:Drivers/STM32H7xx_HAL_Driver/Src/stm32h7xx_hal_dma.c ****           }
 5015              		.loc 1 1340 0
 5016 047e 2046     		mov	r0, r4
 5017 0480 9847     		blx	r3
 5018              	.LVL201:
 5019 0482 7CE0     		b	.L246
 5020              	.L304:
1324:Drivers/STM32H7xx_HAL_Driver/Src/stm32h7xx_hal_dma.c ****           {
 5021              		.loc 1 1324 0 discriminator 1
 5022 0484 A36C     		ldr	r3, [r4, #72]
 5023 0486 002B     		cmp	r3, #0
 5024 0488 E5D1     		bne	.L274
 5025 048a E9E7     		b	.L275
 5026              	.L278:
1359:Drivers/STM32H7xx_HAL_Driver/Src/stm32h7xx_hal_dma.c ****             {
 5027              		.loc 1 1359 0
 5028 048c E36B     		ldr	r3, [r4, #60]
 5029 048e A3B1     		cbz	r3, .L269
1362:Drivers/STM32H7xx_HAL_Driver/Src/stm32h7xx_hal_dma.c ****             }
 5030              		.loc 1 1362 0
 5031 0490 2046     		mov	r0, r4
 5032 0492 9847     		blx	r3
 5033              	.LVL202:
 5034 0494 11E0     		b	.L269
 5035              	.L277:
1369:Drivers/STM32H7xx_HAL_Driver/Src/stm32h7xx_hal_dma.c ****           {
 5036              		.loc 1 1369 0
 5037 0496 1A68     		ldr	r2, [r3]
 5038 0498 12F4807F 		tst	r2, #256
 5039 049c 09D1     		bne	.L279
1372:Drivers/STM32H7xx_HAL_Driver/Src/stm32h7xx_hal_dma.c **** 
 5040              		.loc 1 1372 0
 5041 049e 1A68     		ldr	r2, [r3]
 5042 04a0 22F01002 		bic	r2, r2, #16
 5043 04a4 1A60     		str	r2, [r3]
1375:Drivers/STM32H7xx_HAL_Driver/Src/stm32h7xx_hal_dma.c **** 
 5044              		.loc 1 1375 0
 5045 04a6 0123     		movs	r3, #1
 5046 04a8 84F83530 		strb	r3, [r4, #53]
1378:Drivers/STM32H7xx_HAL_Driver/Src/stm32h7xx_hal_dma.c ****           }
ARM GAS  /tmp/ccBO8Lmd.s 			page 142


 5047              		.loc 1 1378 0
 5048 04ac 0023     		movs	r3, #0
 5049 04ae 84F83430 		strb	r3, [r4, #52]
 5050              	.L279:
1381:Drivers/STM32H7xx_HAL_Driver/Src/stm32h7xx_hal_dma.c ****           {
 5051              		.loc 1 1381 0
 5052 04b2 E36B     		ldr	r3, [r4, #60]
 5053 04b4 0BB1     		cbz	r3, .L269
1384:Drivers/STM32H7xx_HAL_Driver/Src/stm32h7xx_hal_dma.c ****           }
 5054              		.loc 1 1384 0
 5055 04b6 2046     		mov	r0, r4
 5056 04b8 9847     		blx	r3
 5057              	.LVL203:
 5058              	.L269:
1391:Drivers/STM32H7xx_HAL_Driver/Src/stm32h7xx_hal_dma.c ****     {
 5059              		.loc 1 1391 0
 5060 04ba 636D     		ldr	r3, [r4, #84]
 5061 04bc 002B     		cmp	r3, #0
 5062 04be 5ED0     		beq	.L246
1393:Drivers/STM32H7xx_HAL_Driver/Src/stm32h7xx_hal_dma.c ****       {
 5063              		.loc 1 1393 0
 5064 04c0 636D     		ldr	r3, [r4, #84]
 5065 04c2 13F0010F 		tst	r3, #1
 5066 04c6 56D0     		beq	.L280
1395:Drivers/STM32H7xx_HAL_Driver/Src/stm32h7xx_hal_dma.c **** 
 5067              		.loc 1 1395 0
 5068 04c8 0423     		movs	r3, #4
 5069 04ca 84F83530 		strb	r3, [r4, #53]
1398:Drivers/STM32H7xx_HAL_Driver/Src/stm32h7xx_hal_dma.c **** 
 5070              		.loc 1 1398 0
 5071 04ce 2368     		ldr	r3, [r4]
 5072 04d0 1A49     		ldr	r1, .L307
 5073 04d2 1B4A     		ldr	r2, .L307+4
 5074 04d4 9342     		cmp	r3, r2
 5075 04d6 18BF     		it	ne
 5076 04d8 8B42     		cmpne	r3, r1
 5077 04da 33D0     		beq	.L281
1398:Drivers/STM32H7xx_HAL_Driver/Src/stm32h7xx_hal_dma.c **** 
 5078              		.loc 1 1398 0 is_stmt 0 discriminator 2
 5079 04dc 1832     		adds	r2, r2, #24
 5080 04de 9342     		cmp	r3, r2
 5081 04e0 30D0     		beq	.L281
1398:Drivers/STM32H7xx_HAL_Driver/Src/stm32h7xx_hal_dma.c **** 
 5082              		.loc 1 1398 0 discriminator 4
 5083 04e2 1832     		adds	r2, r2, #24
 5084 04e4 9342     		cmp	r3, r2
 5085 04e6 2DD0     		beq	.L281
1398:Drivers/STM32H7xx_HAL_Driver/Src/stm32h7xx_hal_dma.c **** 
 5086              		.loc 1 1398 0 discriminator 6
 5087 04e8 1832     		adds	r2, r2, #24
 5088 04ea 9342     		cmp	r3, r2
 5089 04ec 2AD0     		beq	.L281
1398:Drivers/STM32H7xx_HAL_Driver/Src/stm32h7xx_hal_dma.c **** 
 5090              		.loc 1 1398 0 discriminator 8
 5091 04ee 1832     		adds	r2, r2, #24
 5092 04f0 9342     		cmp	r3, r2
 5093 04f2 27D0     		beq	.L281
ARM GAS  /tmp/ccBO8Lmd.s 			page 143


1398:Drivers/STM32H7xx_HAL_Driver/Src/stm32h7xx_hal_dma.c **** 
 5094              		.loc 1 1398 0 discriminator 10
 5095 04f4 1832     		adds	r2, r2, #24
 5096 04f6 9342     		cmp	r3, r2
 5097 04f8 24D0     		beq	.L281
1398:Drivers/STM32H7xx_HAL_Driver/Src/stm32h7xx_hal_dma.c **** 
 5098              		.loc 1 1398 0 discriminator 12
 5099 04fa 1832     		adds	r2, r2, #24
 5100 04fc 9342     		cmp	r3, r2
 5101 04fe 21D0     		beq	.L281
1398:Drivers/STM32H7xx_HAL_Driver/Src/stm32h7xx_hal_dma.c **** 
 5102              		.loc 1 1398 0 discriminator 14
 5103 0500 02F55672 		add	r2, r2, #856
 5104 0504 9342     		cmp	r3, r2
 5105 0506 1DD0     		beq	.L281
1398:Drivers/STM32H7xx_HAL_Driver/Src/stm32h7xx_hal_dma.c **** 
 5106              		.loc 1 1398 0 discriminator 16
 5107 0508 1832     		adds	r2, r2, #24
 5108 050a 9342     		cmp	r3, r2
 5109 050c 1AD0     		beq	.L281
1398:Drivers/STM32H7xx_HAL_Driver/Src/stm32h7xx_hal_dma.c **** 
 5110              		.loc 1 1398 0 discriminator 18
 5111 050e 1832     		adds	r2, r2, #24
 5112 0510 9342     		cmp	r3, r2
 5113 0512 17D0     		beq	.L281
1398:Drivers/STM32H7xx_HAL_Driver/Src/stm32h7xx_hal_dma.c **** 
 5114              		.loc 1 1398 0 discriminator 20
 5115 0514 1832     		adds	r2, r2, #24
 5116 0516 9342     		cmp	r3, r2
 5117 0518 14D0     		beq	.L281
1398:Drivers/STM32H7xx_HAL_Driver/Src/stm32h7xx_hal_dma.c **** 
 5118              		.loc 1 1398 0 discriminator 22
 5119 051a 1832     		adds	r2, r2, #24
 5120 051c 9342     		cmp	r3, r2
 5121 051e 11D0     		beq	.L281
1398:Drivers/STM32H7xx_HAL_Driver/Src/stm32h7xx_hal_dma.c **** 
 5122              		.loc 1 1398 0 discriminator 24
 5123 0520 1832     		adds	r2, r2, #24
 5124 0522 9342     		cmp	r3, r2
 5125 0524 0ED0     		beq	.L281
1398:Drivers/STM32H7xx_HAL_Driver/Src/stm32h7xx_hal_dma.c **** 
 5126              		.loc 1 1398 0 discriminator 26
 5127 0526 1832     		adds	r2, r2, #24
 5128 0528 9342     		cmp	r3, r2
 5129 052a 0BD0     		beq	.L281
1398:Drivers/STM32H7xx_HAL_Driver/Src/stm32h7xx_hal_dma.c **** 
 5130              		.loc 1 1398 0 discriminator 28
 5131 052c 1832     		adds	r2, r2, #24
 5132 052e 9342     		cmp	r3, r2
 5133 0530 08D0     		beq	.L281
1398:Drivers/STM32H7xx_HAL_Driver/Src/stm32h7xx_hal_dma.c **** 
 5134              		.loc 1 1398 0 discriminator 30
 5135 0532 1A68     		ldr	r2, [r3]
 5136 0534 22F00102 		bic	r2, r2, #1
 5137 0538 1A60     		str	r2, [r3]
 5138 053a 07E0     		b	.L285
 5139              	.L308:
ARM GAS  /tmp/ccBO8Lmd.s 			page 144


 5140              		.align	2
 5141              	.L307:
 5142 053c 10000240 		.word	1073872912
 5143 0540 28000240 		.word	1073872936
 5144              	.L281:
1398:Drivers/STM32H7xx_HAL_Driver/Src/stm32h7xx_hal_dma.c **** 
 5145              		.loc 1 1398 0 discriminator 29
 5146 0544 1A68     		ldr	r2, [r3]
 5147 0546 22F00102 		bic	r2, r2, #1
 5148 054a 1A60     		str	r2, [r3]
 5149              	.L285:
1402:Drivers/STM32H7xx_HAL_Driver/Src/stm32h7xx_hal_dma.c ****           {
 5150              		.loc 1 1402 0 is_stmt 1
 5151 054c 019B     		ldr	r3, [sp, #4]
 5152 054e 0133     		adds	r3, r3, #1
 5153 0550 0193     		str	r3, [sp, #4]
 5154 0552 AB42     		cmp	r3, r5
 5155 0554 04D8     		bhi	.L284
1407:Drivers/STM32H7xx_HAL_Driver/Src/stm32h7xx_hal_dma.c **** 
 5156              		.loc 1 1407 0
 5157 0556 2368     		ldr	r3, [r4]
 5158 0558 1B68     		ldr	r3, [r3]
 5159 055a 13F0010F 		tst	r3, #1
 5160 055e F5D1     		bne	.L285
 5161              	.L284:
1409:Drivers/STM32H7xx_HAL_Driver/Src/stm32h7xx_hal_dma.c ****         {
 5162              		.loc 1 1409 0
 5163 0560 2368     		ldr	r3, [r4]
 5164 0562 1B68     		ldr	r3, [r3]
 5165 0564 13F0010F 		tst	r3, #1
 5166 0568 0BD0     		beq	.L286
1412:Drivers/STM32H7xx_HAL_Driver/Src/stm32h7xx_hal_dma.c ****         }
 5167              		.loc 1 1412 0
 5168 056a 0323     		movs	r3, #3
 5169 056c 84F83530 		strb	r3, [r4, #53]
 5170              	.L287:
1421:Drivers/STM32H7xx_HAL_Driver/Src/stm32h7xx_hal_dma.c ****       }
 5171              		.loc 1 1421 0
 5172 0570 0023     		movs	r3, #0
 5173 0572 84F83430 		strb	r3, [r4, #52]
 5174              	.L280:
1424:Drivers/STM32H7xx_HAL_Driver/Src/stm32h7xx_hal_dma.c ****       {
 5175              		.loc 1 1424 0
 5176 0576 E36C     		ldr	r3, [r4, #76]
 5177 0578 0BB1     		cbz	r3, .L246
1427:Drivers/STM32H7xx_HAL_Driver/Src/stm32h7xx_hal_dma.c ****       }
 5178              		.loc 1 1427 0
 5179 057a 2046     		mov	r0, r4
 5180 057c 9847     		blx	r3
 5181              	.LVL204:
 5182              	.L246:
1566:Drivers/STM32H7xx_HAL_Driver/Src/stm32h7xx_hal_dma.c **** 
 5183              		.loc 1 1566 0
 5184 057e 03B0     		add	sp, sp, #12
 5185              	.LCFI24:
 5186              		.cfi_remember_state
 5187              		.cfi_def_cfa_offset 20
ARM GAS  /tmp/ccBO8Lmd.s 			page 145


 5188              		@ sp needed
 5189 0580 F0BD     		pop	{r4, r5, r6, r7, pc}
 5190              	.LVL205:
 5191              	.L286:
 5192              	.LCFI25:
 5193              		.cfi_restore_state
1417:Drivers/STM32H7xx_HAL_Driver/Src/stm32h7xx_hal_dma.c ****         }
 5194              		.loc 1 1417 0
 5195 0582 0123     		movs	r3, #1
 5196 0584 84F83530 		strb	r3, [r4, #53]
 5197 0588 F2E7     		b	.L287
 5198              	.LVL206:
 5199              	.L290:
1456:Drivers/STM32H7xx_HAL_Driver/Src/stm32h7xx_hal_dma.c ****           {
 5200              		.loc 1 1456 0
 5201 058a 236C     		ldr	r3, [r4, #64]
 5202 058c 002B     		cmp	r3, #0
 5203 058e F6D0     		beq	.L246
1459:Drivers/STM32H7xx_HAL_Driver/Src/stm32h7xx_hal_dma.c ****           }
 5204              		.loc 1 1459 0
 5205 0590 2046     		mov	r0, r4
 5206 0592 9847     		blx	r3
 5207              	.LVL207:
 5208 0594 F3E7     		b	.L246
 5209              	.LVL208:
 5210              	.L289:
1465:Drivers/STM32H7xx_HAL_Driver/Src/stm32h7xx_hal_dma.c ****         {
 5211              		.loc 1 1465 0
 5212 0596 12F0200F 		tst	r2, #32
 5213 059a 35D1     		bne	.L291
1468:Drivers/STM32H7xx_HAL_Driver/Src/stm32h7xx_hal_dma.c ****         }
 5214              		.loc 1 1468 0
 5215 059c 2368     		ldr	r3, [r4]
 5216 059e 6449     		ldr	r1, .L309
 5217 05a0 644A     		ldr	r2, .L309+4
 5218              	.LVL209:
 5219 05a2 9342     		cmp	r3, r2
 5220 05a4 18BF     		it	ne
 5221 05a6 8B42     		cmpne	r3, r1
 5222 05a8 2AD0     		beq	.L292
1468:Drivers/STM32H7xx_HAL_Driver/Src/stm32h7xx_hal_dma.c ****         }
 5223              		.loc 1 1468 0 is_stmt 0 discriminator 2
 5224 05aa 1832     		adds	r2, r2, #24
 5225 05ac 9342     		cmp	r3, r2
 5226 05ae 27D0     		beq	.L292
1468:Drivers/STM32H7xx_HAL_Driver/Src/stm32h7xx_hal_dma.c ****         }
 5227              		.loc 1 1468 0 discriminator 4
 5228 05b0 1832     		adds	r2, r2, #24
 5229 05b2 9342     		cmp	r3, r2
 5230 05b4 24D0     		beq	.L292
1468:Drivers/STM32H7xx_HAL_Driver/Src/stm32h7xx_hal_dma.c ****         }
 5231              		.loc 1 1468 0 discriminator 6
 5232 05b6 1832     		adds	r2, r2, #24
 5233 05b8 9342     		cmp	r3, r2
 5234 05ba 21D0     		beq	.L292
1468:Drivers/STM32H7xx_HAL_Driver/Src/stm32h7xx_hal_dma.c ****         }
 5235              		.loc 1 1468 0 discriminator 8
ARM GAS  /tmp/ccBO8Lmd.s 			page 146


 5236 05bc 1832     		adds	r2, r2, #24
 5237 05be 9342     		cmp	r3, r2
 5238 05c0 1ED0     		beq	.L292
1468:Drivers/STM32H7xx_HAL_Driver/Src/stm32h7xx_hal_dma.c ****         }
 5239              		.loc 1 1468 0 discriminator 10
 5240 05c2 1832     		adds	r2, r2, #24
 5241 05c4 9342     		cmp	r3, r2
 5242 05c6 1BD0     		beq	.L292
1468:Drivers/STM32H7xx_HAL_Driver/Src/stm32h7xx_hal_dma.c ****         }
 5243              		.loc 1 1468 0 discriminator 12
 5244 05c8 1832     		adds	r2, r2, #24
 5245 05ca 9342     		cmp	r3, r2
 5246 05cc 18D0     		beq	.L292
1468:Drivers/STM32H7xx_HAL_Driver/Src/stm32h7xx_hal_dma.c ****         }
 5247              		.loc 1 1468 0 discriminator 14
 5248 05ce 02F55672 		add	r2, r2, #856
 5249 05d2 9342     		cmp	r3, r2
 5250 05d4 14D0     		beq	.L292
1468:Drivers/STM32H7xx_HAL_Driver/Src/stm32h7xx_hal_dma.c ****         }
 5251              		.loc 1 1468 0 discriminator 16
 5252 05d6 1832     		adds	r2, r2, #24
 5253 05d8 9342     		cmp	r3, r2
 5254 05da 11D0     		beq	.L292
1468:Drivers/STM32H7xx_HAL_Driver/Src/stm32h7xx_hal_dma.c ****         }
 5255              		.loc 1 1468 0 discriminator 18
 5256 05dc 1832     		adds	r2, r2, #24
 5257 05de 9342     		cmp	r3, r2
 5258 05e0 0ED0     		beq	.L292
1468:Drivers/STM32H7xx_HAL_Driver/Src/stm32h7xx_hal_dma.c ****         }
 5259              		.loc 1 1468 0 discriminator 20
 5260 05e2 1832     		adds	r2, r2, #24
 5261 05e4 9342     		cmp	r3, r2
 5262 05e6 0BD0     		beq	.L292
1468:Drivers/STM32H7xx_HAL_Driver/Src/stm32h7xx_hal_dma.c ****         }
 5263              		.loc 1 1468 0 discriminator 22
 5264 05e8 1832     		adds	r2, r2, #24
 5265 05ea 9342     		cmp	r3, r2
 5266 05ec 08D0     		beq	.L292
1468:Drivers/STM32H7xx_HAL_Driver/Src/stm32h7xx_hal_dma.c ****         }
 5267              		.loc 1 1468 0 discriminator 24
 5268 05ee 1832     		adds	r2, r2, #24
 5269 05f0 9342     		cmp	r3, r2
 5270 05f2 05D0     		beq	.L292
1468:Drivers/STM32H7xx_HAL_Driver/Src/stm32h7xx_hal_dma.c ****         }
 5271              		.loc 1 1468 0 discriminator 26
 5272 05f4 1832     		adds	r2, r2, #24
 5273 05f6 9342     		cmp	r3, r2
 5274 05f8 02D0     		beq	.L292
1468:Drivers/STM32H7xx_HAL_Driver/Src/stm32h7xx_hal_dma.c ****         }
 5275              		.loc 1 1468 0 discriminator 28
 5276 05fa 1832     		adds	r2, r2, #24
 5277 05fc 9342     		cmp	r3, r2
 5278 05fe 09D1     		bne	.L293
 5279              	.L292:
1468:Drivers/STM32H7xx_HAL_Driver/Src/stm32h7xx_hal_dma.c ****         }
 5280              		.loc 1 1468 0 discriminator 29
 5281 0600 1A68     		ldr	r2, [r3]
ARM GAS  /tmp/ccBO8Lmd.s 			page 147


 5282 0602 22F00802 		bic	r2, r2, #8
 5283 0606 1A60     		str	r2, [r3]
 5284              	.L291:
1474:Drivers/STM32H7xx_HAL_Driver/Src/stm32h7xx_hal_dma.c ****         {
 5285              		.loc 1 1474 0 is_stmt 1
 5286 0608 236C     		ldr	r3, [r4, #64]
 5287 060a 002B     		cmp	r3, #0
 5288 060c B7D0     		beq	.L246
1477:Drivers/STM32H7xx_HAL_Driver/Src/stm32h7xx_hal_dma.c ****         }
 5289              		.loc 1 1477 0
 5290 060e 2046     		mov	r0, r4
 5291 0610 9847     		blx	r3
 5292              	.LVL210:
 5293 0612 B4E7     		b	.L246
 5294              	.LVL211:
 5295              	.L293:
1468:Drivers/STM32H7xx_HAL_Driver/Src/stm32h7xx_hal_dma.c ****         }
 5296              		.loc 1 1468 0 discriminator 30
 5297 0614 1A68     		ldr	r2, [r3]
 5298 0616 22F00402 		bic	r2, r2, #4
 5299 061a 1A60     		str	r2, [r3]
 5300 061c F4E7     		b	.L291
 5301              	.LVL212:
 5302              	.L288:
1483:Drivers/STM32H7xx_HAL_Driver/Src/stm32h7xx_hal_dma.c ****     {
 5303              		.loc 1 1483 0
 5304 061e 0220     		movs	r0, #2
 5305 0620 8840     		lsls	r0, r0, r1
 5306 0622 10EA0C0F 		tst	r0, ip
 5307 0626 60D0     		beq	.L294
1483:Drivers/STM32H7xx_HAL_Driver/Src/stm32h7xx_hal_dma.c ****     {
 5308              		.loc 1 1483 0 is_stmt 0 discriminator 1
 5309 0628 12F0020F 		tst	r2, #2
 5310 062c 5DD0     		beq	.L294
1486:Drivers/STM32H7xx_HAL_Driver/Src/stm32h7xx_hal_dma.c **** 
 5311              		.loc 1 1486 0 is_stmt 1
 5312 062e 7860     		str	r0, [r7, #4]
1489:Drivers/STM32H7xx_HAL_Driver/Src/stm32h7xx_hal_dma.c ****       {
 5313              		.loc 1 1489 0
 5314 0630 12F4004F 		tst	r2, #32768
 5315 0634 0ED0     		beq	.L295
1492:Drivers/STM32H7xx_HAL_Driver/Src/stm32h7xx_hal_dma.c ****         {
 5316              		.loc 1 1492 0
 5317 0636 12F4803F 		tst	r2, #65536
 5318 063a 05D1     		bne	.L296
1494:Drivers/STM32H7xx_HAL_Driver/Src/stm32h7xx_hal_dma.c ****           {
 5319              		.loc 1 1494 0
 5320 063c 636C     		ldr	r3, [r4, #68]
 5321 063e 002B     		cmp	r3, #0
 5322 0640 9DD0     		beq	.L246
1497:Drivers/STM32H7xx_HAL_Driver/Src/stm32h7xx_hal_dma.c ****           }
 5323              		.loc 1 1497 0
 5324 0642 2046     		mov	r0, r4
 5325 0644 9847     		blx	r3
 5326              	.LVL213:
 5327 0646 9AE7     		b	.L246
 5328              	.LVL214:
ARM GAS  /tmp/ccBO8Lmd.s 			page 148


 5329              	.L296:
1503:Drivers/STM32H7xx_HAL_Driver/Src/stm32h7xx_hal_dma.c ****           {
 5330              		.loc 1 1503 0
 5331 0648 E36B     		ldr	r3, [r4, #60]
 5332 064a 002B     		cmp	r3, #0
 5333 064c 97D0     		beq	.L246
1506:Drivers/STM32H7xx_HAL_Driver/Src/stm32h7xx_hal_dma.c ****           }
 5334              		.loc 1 1506 0
 5335 064e 2046     		mov	r0, r4
 5336 0650 9847     		blx	r3
 5337              	.LVL215:
 5338 0652 94E7     		b	.L246
 5339              	.LVL216:
 5340              	.L295:
1512:Drivers/STM32H7xx_HAL_Driver/Src/stm32h7xx_hal_dma.c ****         {
 5341              		.loc 1 1512 0
 5342 0654 12F0200F 		tst	r2, #32
 5343 0658 3BD1     		bne	.L297
1515:Drivers/STM32H7xx_HAL_Driver/Src/stm32h7xx_hal_dma.c **** 
 5344              		.loc 1 1515 0
 5345 065a 2368     		ldr	r3, [r4]
 5346 065c 3449     		ldr	r1, .L309
 5347 065e 354A     		ldr	r2, .L309+4
 5348              	.LVL217:
 5349 0660 9342     		cmp	r3, r2
 5350 0662 18BF     		it	ne
 5351 0664 8B42     		cmpne	r3, r1
 5352 0666 2AD0     		beq	.L298
1515:Drivers/STM32H7xx_HAL_Driver/Src/stm32h7xx_hal_dma.c **** 
 5353              		.loc 1 1515 0 is_stmt 0 discriminator 2
 5354 0668 1832     		adds	r2, r2, #24
 5355 066a 9342     		cmp	r3, r2
 5356 066c 27D0     		beq	.L298
1515:Drivers/STM32H7xx_HAL_Driver/Src/stm32h7xx_hal_dma.c **** 
 5357              		.loc 1 1515 0 discriminator 4
 5358 066e 1832     		adds	r2, r2, #24
 5359 0670 9342     		cmp	r3, r2
 5360 0672 24D0     		beq	.L298
1515:Drivers/STM32H7xx_HAL_Driver/Src/stm32h7xx_hal_dma.c **** 
 5361              		.loc 1 1515 0 discriminator 6
 5362 0674 1832     		adds	r2, r2, #24
 5363 0676 9342     		cmp	r3, r2
 5364 0678 21D0     		beq	.L298
1515:Drivers/STM32H7xx_HAL_Driver/Src/stm32h7xx_hal_dma.c **** 
 5365              		.loc 1 1515 0 discriminator 8
 5366 067a 1832     		adds	r2, r2, #24
 5367 067c 9342     		cmp	r3, r2
 5368 067e 1ED0     		beq	.L298
1515:Drivers/STM32H7xx_HAL_Driver/Src/stm32h7xx_hal_dma.c **** 
 5369              		.loc 1 1515 0 discriminator 10
 5370 0680 1832     		adds	r2, r2, #24
 5371 0682 9342     		cmp	r3, r2
 5372 0684 1BD0     		beq	.L298
1515:Drivers/STM32H7xx_HAL_Driver/Src/stm32h7xx_hal_dma.c **** 
 5373              		.loc 1 1515 0 discriminator 12
 5374 0686 1832     		adds	r2, r2, #24
 5375 0688 9342     		cmp	r3, r2
ARM GAS  /tmp/ccBO8Lmd.s 			page 149


 5376 068a 18D0     		beq	.L298
1515:Drivers/STM32H7xx_HAL_Driver/Src/stm32h7xx_hal_dma.c **** 
 5377              		.loc 1 1515 0 discriminator 14
 5378 068c 02F55672 		add	r2, r2, #856
 5379 0690 9342     		cmp	r3, r2
 5380 0692 14D0     		beq	.L298
1515:Drivers/STM32H7xx_HAL_Driver/Src/stm32h7xx_hal_dma.c **** 
 5381              		.loc 1 1515 0 discriminator 16
 5382 0694 1832     		adds	r2, r2, #24
 5383 0696 9342     		cmp	r3, r2
 5384 0698 11D0     		beq	.L298
1515:Drivers/STM32H7xx_HAL_Driver/Src/stm32h7xx_hal_dma.c **** 
 5385              		.loc 1 1515 0 discriminator 18
 5386 069a 1832     		adds	r2, r2, #24
 5387 069c 9342     		cmp	r3, r2
 5388 069e 0ED0     		beq	.L298
1515:Drivers/STM32H7xx_HAL_Driver/Src/stm32h7xx_hal_dma.c **** 
 5389              		.loc 1 1515 0 discriminator 20
 5390 06a0 1832     		adds	r2, r2, #24
 5391 06a2 9342     		cmp	r3, r2
 5392 06a4 0BD0     		beq	.L298
1515:Drivers/STM32H7xx_HAL_Driver/Src/stm32h7xx_hal_dma.c **** 
 5393              		.loc 1 1515 0 discriminator 22
 5394 06a6 1832     		adds	r2, r2, #24
 5395 06a8 9342     		cmp	r3, r2
 5396 06aa 08D0     		beq	.L298
1515:Drivers/STM32H7xx_HAL_Driver/Src/stm32h7xx_hal_dma.c **** 
 5397              		.loc 1 1515 0 discriminator 24
 5398 06ac 1832     		adds	r2, r2, #24
 5399 06ae 9342     		cmp	r3, r2
 5400 06b0 05D0     		beq	.L298
1515:Drivers/STM32H7xx_HAL_Driver/Src/stm32h7xx_hal_dma.c **** 
 5401              		.loc 1 1515 0 discriminator 26
 5402 06b2 1832     		adds	r2, r2, #24
 5403 06b4 9342     		cmp	r3, r2
 5404 06b6 02D0     		beq	.L298
1515:Drivers/STM32H7xx_HAL_Driver/Src/stm32h7xx_hal_dma.c **** 
 5405              		.loc 1 1515 0 discriminator 28
 5406 06b8 1832     		adds	r2, r2, #24
 5407 06ba 9342     		cmp	r3, r2
 5408 06bc 10D1     		bne	.L299
 5409              	.L298:
1515:Drivers/STM32H7xx_HAL_Driver/Src/stm32h7xx_hal_dma.c **** 
 5410              		.loc 1 1515 0 discriminator 29
 5411 06be 1A68     		ldr	r2, [r3]
 5412 06c0 22F01402 		bic	r2, r2, #20
 5413 06c4 1A60     		str	r2, [r3]
 5414              	.L300:
1518:Drivers/STM32H7xx_HAL_Driver/Src/stm32h7xx_hal_dma.c **** 
 5415              		.loc 1 1518 0 is_stmt 1
 5416 06c6 0123     		movs	r3, #1
 5417 06c8 84F83530 		strb	r3, [r4, #53]
1521:Drivers/STM32H7xx_HAL_Driver/Src/stm32h7xx_hal_dma.c ****         }
 5418              		.loc 1 1521 0
 5419 06cc 0023     		movs	r3, #0
 5420 06ce 84F83430 		strb	r3, [r4, #52]
 5421              	.L297:
ARM GAS  /tmp/ccBO8Lmd.s 			page 150


1524:Drivers/STM32H7xx_HAL_Driver/Src/stm32h7xx_hal_dma.c ****         {
 5422              		.loc 1 1524 0
 5423 06d2 E36B     		ldr	r3, [r4, #60]
 5424 06d4 002B     		cmp	r3, #0
 5425 06d6 3FF452AF 		beq	.L246
1527:Drivers/STM32H7xx_HAL_Driver/Src/stm32h7xx_hal_dma.c ****         }
 5426              		.loc 1 1527 0
 5427 06da 2046     		mov	r0, r4
 5428 06dc 9847     		blx	r3
 5429              	.LVL218:
 5430 06de 4EE7     		b	.L246
 5431              	.LVL219:
 5432              	.L299:
1515:Drivers/STM32H7xx_HAL_Driver/Src/stm32h7xx_hal_dma.c **** 
 5433              		.loc 1 1515 0 discriminator 30
 5434 06e0 1A68     		ldr	r2, [r3]
 5435 06e2 22F00A02 		bic	r2, r2, #10
 5436 06e6 1A60     		str	r2, [r3]
 5437 06e8 EDE7     		b	.L300
 5438              	.LVL220:
 5439              	.L294:
1532:Drivers/STM32H7xx_HAL_Driver/Src/stm32h7xx_hal_dma.c ****     {
 5440              		.loc 1 1532 0
 5441 06ea 0820     		movs	r0, #8
 5442 06ec 00FA01F1 		lsl	r1, r0, r1
 5443 06f0 11EA0C0F 		tst	r1, ip
 5444 06f4 3FF443AF 		beq	.L246
1532:Drivers/STM32H7xx_HAL_Driver/Src/stm32h7xx_hal_dma.c ****     {
 5445              		.loc 1 1532 0 is_stmt 0 discriminator 1
 5446 06f8 12F0080F 		tst	r2, #8
 5447 06fc 3FF43FAF 		beq	.L246
1537:Drivers/STM32H7xx_HAL_Driver/Src/stm32h7xx_hal_dma.c **** 
 5448              		.loc 1 1537 0 is_stmt 1 discriminator 30
 5449 0700 1A68     		ldr	r2, [r3]
 5450              	.LVL221:
 5451 0702 22F00E02 		bic	r2, r2, #14
 5452 0706 1A60     		str	r2, [r3]
1540:Drivers/STM32H7xx_HAL_Driver/Src/stm32h7xx_hal_dma.c **** 
 5453              		.loc 1 1540 0 discriminator 30
 5454 0708 E36D     		ldr	r3, [r4, #92]
 5455 070a 03F01F03 		and	r3, r3, #31
 5456 070e 0122     		movs	r2, #1
 5457 0710 02FA03F3 		lsl	r3, r2, r3
 5458 0714 7B60     		str	r3, [r7, #4]
1543:Drivers/STM32H7xx_HAL_Driver/Src/stm32h7xx_hal_dma.c **** 
 5459              		.loc 1 1543 0 discriminator 30
 5460 0716 6265     		str	r2, [r4, #84]
1546:Drivers/STM32H7xx_HAL_Driver/Src/stm32h7xx_hal_dma.c **** 
 5461              		.loc 1 1546 0 discriminator 30
 5462 0718 84F83520 		strb	r2, [r4, #53]
1549:Drivers/STM32H7xx_HAL_Driver/Src/stm32h7xx_hal_dma.c **** 
 5463              		.loc 1 1549 0 discriminator 30
 5464 071c 0023     		movs	r3, #0
 5465 071e 84F83430 		strb	r3, [r4, #52]
1551:Drivers/STM32H7xx_HAL_Driver/Src/stm32h7xx_hal_dma.c ****       {
 5466              		.loc 1 1551 0 discriminator 30
 5467 0722 E36C     		ldr	r3, [r4, #76]
ARM GAS  /tmp/ccBO8Lmd.s 			page 151


 5468 0724 002B     		cmp	r3, #0
 5469 0726 3FF42AAF 		beq	.L246
1554:Drivers/STM32H7xx_HAL_Driver/Src/stm32h7xx_hal_dma.c ****       }
 5470              		.loc 1 1554 0
 5471 072a 2046     		mov	r0, r4
 5472 072c 9847     		blx	r3
 5473              	.LVL222:
 5474 072e 26E7     		b	.L246
 5475              	.L310:
 5476              		.align	2
 5477              	.L309:
 5478 0730 10000240 		.word	1073872912
 5479 0734 28000240 		.word	1073872936
 5480              		.cfi_endproc
 5481              	.LFE151:
 5483              		.section	.text.HAL_DMA_RegisterCallback,"ax",%progbits
 5484              		.align	1
 5485              		.global	HAL_DMA_RegisterCallback
 5486              		.syntax unified
 5487              		.thumb
 5488              		.thumb_func
 5489              		.fpu fpv5-d16
 5491              	HAL_DMA_RegisterCallback:
 5492              	.LFB152:
1579:Drivers/STM32H7xx_HAL_Driver/Src/stm32h7xx_hal_dma.c **** 
 5493              		.loc 1 1579 0
 5494              		.cfi_startproc
 5495              		@ args = 0, pretend = 0, frame = 0
 5496              		@ frame_needed = 0, uses_anonymous_args = 0
 5497              		@ link register save eliminated.
 5498              	.LVL223:
1584:Drivers/STM32H7xx_HAL_Driver/Src/stm32h7xx_hal_dma.c ****   {
 5499              		.loc 1 1584 0
 5500 0000 0346     		mov	r3, r0
 5501 0002 58B3     		cbz	r0, .L321
1590:Drivers/STM32H7xx_HAL_Driver/Src/stm32h7xx_hal_dma.c **** 
 5502              		.loc 1 1590 0
 5503 0004 90F83400 		ldrb	r0, [r0, #52]	@ zero_extendqisi2
 5504              	.LVL224:
 5505 0008 0128     		cmp	r0, #1
 5506 000a 29D0     		beq	.L322
1590:Drivers/STM32H7xx_HAL_Driver/Src/stm32h7xx_hal_dma.c **** 
 5507              		.loc 1 1590 0 is_stmt 0 discriminator 2
 5508 000c 0120     		movs	r0, #1
 5509 000e 83F83400 		strb	r0, [r3, #52]
1592:Drivers/STM32H7xx_HAL_Driver/Src/stm32h7xx_hal_dma.c ****   {
 5510              		.loc 1 1592 0 is_stmt 1 discriminator 2
 5511 0012 93F83500 		ldrb	r0, [r3, #53]	@ zero_extendqisi2
 5512 0016 C0B2     		uxtb	r0, r0
 5513 0018 0128     		cmp	r0, #1
 5514 001a 04D0     		beq	.L325
1628:Drivers/STM32H7xx_HAL_Driver/Src/stm32h7xx_hal_dma.c ****   }
 5515              		.loc 1 1628 0
 5516 001c 0120     		movs	r0, #1
 5517              	.L313:
 5518              	.LVL225:
1632:Drivers/STM32H7xx_HAL_Driver/Src/stm32h7xx_hal_dma.c **** 
ARM GAS  /tmp/ccBO8Lmd.s 			page 152


 5519              		.loc 1 1632 0
 5520 001e 0022     		movs	r2, #0
 5521              	.LVL226:
 5522 0020 83F83420 		strb	r2, [r3, #52]
1634:Drivers/STM32H7xx_HAL_Driver/Src/stm32h7xx_hal_dma.c **** }
 5523              		.loc 1 1634 0
 5524 0024 7047     		bx	lr
 5525              	.LVL227:
 5526              	.L325:
1594:Drivers/STM32H7xx_HAL_Driver/Src/stm32h7xx_hal_dma.c ****     {
 5527              		.loc 1 1594 0
 5528 0026 0529     		cmp	r1, #5
 5529 0028 16D8     		bhi	.L324
 5530 002a DFE801F0 		tbb	[pc, r1]
 5531              	.L315:
 5532 002e 03       		.byte	(.L314-.L315)/2
 5533 002f 06       		.byte	(.L316-.L315)/2
 5534 0030 09       		.byte	(.L317-.L315)/2
 5535 0031 0C       		.byte	(.L318-.L315)/2
 5536 0032 0F       		.byte	(.L319-.L315)/2
 5537 0033 12       		.byte	(.L320-.L315)/2
 5538              		.p2align 1
 5539              	.L314:
1597:Drivers/STM32H7xx_HAL_Driver/Src/stm32h7xx_hal_dma.c ****       break;
 5540              		.loc 1 1597 0
 5541 0034 DA63     		str	r2, [r3, #60]
1581:Drivers/STM32H7xx_HAL_Driver/Src/stm32h7xx_hal_dma.c **** 
 5542              		.loc 1 1581 0
 5543 0036 0020     		movs	r0, #0
1598:Drivers/STM32H7xx_HAL_Driver/Src/stm32h7xx_hal_dma.c **** 
 5544              		.loc 1 1598 0
 5545 0038 F1E7     		b	.L313
 5546              	.L316:
1601:Drivers/STM32H7xx_HAL_Driver/Src/stm32h7xx_hal_dma.c ****       break;
 5547              		.loc 1 1601 0
 5548 003a 1A64     		str	r2, [r3, #64]
1581:Drivers/STM32H7xx_HAL_Driver/Src/stm32h7xx_hal_dma.c **** 
 5549              		.loc 1 1581 0
 5550 003c 0020     		movs	r0, #0
1602:Drivers/STM32H7xx_HAL_Driver/Src/stm32h7xx_hal_dma.c **** 
 5551              		.loc 1 1602 0
 5552 003e EEE7     		b	.L313
 5553              	.L317:
1605:Drivers/STM32H7xx_HAL_Driver/Src/stm32h7xx_hal_dma.c ****       break;
 5554              		.loc 1 1605 0
 5555 0040 5A64     		str	r2, [r3, #68]
1581:Drivers/STM32H7xx_HAL_Driver/Src/stm32h7xx_hal_dma.c **** 
 5556              		.loc 1 1581 0
 5557 0042 0020     		movs	r0, #0
1606:Drivers/STM32H7xx_HAL_Driver/Src/stm32h7xx_hal_dma.c **** 
 5558              		.loc 1 1606 0
 5559 0044 EBE7     		b	.L313
 5560              	.L318:
1609:Drivers/STM32H7xx_HAL_Driver/Src/stm32h7xx_hal_dma.c ****       break;
 5561              		.loc 1 1609 0
 5562 0046 9A64     		str	r2, [r3, #72]
1581:Drivers/STM32H7xx_HAL_Driver/Src/stm32h7xx_hal_dma.c **** 
ARM GAS  /tmp/ccBO8Lmd.s 			page 153


 5563              		.loc 1 1581 0
 5564 0048 0020     		movs	r0, #0
1610:Drivers/STM32H7xx_HAL_Driver/Src/stm32h7xx_hal_dma.c **** 
 5565              		.loc 1 1610 0
 5566 004a E8E7     		b	.L313
 5567              	.L319:
1613:Drivers/STM32H7xx_HAL_Driver/Src/stm32h7xx_hal_dma.c ****       break;
 5568              		.loc 1 1613 0
 5569 004c DA64     		str	r2, [r3, #76]
1581:Drivers/STM32H7xx_HAL_Driver/Src/stm32h7xx_hal_dma.c **** 
 5570              		.loc 1 1581 0
 5571 004e 0020     		movs	r0, #0
1614:Drivers/STM32H7xx_HAL_Driver/Src/stm32h7xx_hal_dma.c **** 
 5572              		.loc 1 1614 0
 5573 0050 E5E7     		b	.L313
 5574              	.L320:
1617:Drivers/STM32H7xx_HAL_Driver/Src/stm32h7xx_hal_dma.c ****       break;
 5575              		.loc 1 1617 0
 5576 0052 1A65     		str	r2, [r3, #80]
1581:Drivers/STM32H7xx_HAL_Driver/Src/stm32h7xx_hal_dma.c **** 
 5577              		.loc 1 1581 0
 5578 0054 0020     		movs	r0, #0
1618:Drivers/STM32H7xx_HAL_Driver/Src/stm32h7xx_hal_dma.c **** 
 5579              		.loc 1 1618 0
 5580 0056 E2E7     		b	.L313
 5581              	.L324:
1621:Drivers/STM32H7xx_HAL_Driver/Src/stm32h7xx_hal_dma.c ****       break;
 5582              		.loc 1 1621 0
 5583 0058 0120     		movs	r0, #1
 5584 005a E0E7     		b	.L313
 5585              	.LVL228:
 5586              	.L321:
1586:Drivers/STM32H7xx_HAL_Driver/Src/stm32h7xx_hal_dma.c ****   }
 5587              		.loc 1 1586 0
 5588 005c 0120     		movs	r0, #1
 5589              	.LVL229:
 5590 005e 7047     		bx	lr
 5591              	.L322:
1590:Drivers/STM32H7xx_HAL_Driver/Src/stm32h7xx_hal_dma.c **** 
 5592              		.loc 1 1590 0
 5593 0060 0220     		movs	r0, #2
1635:Drivers/STM32H7xx_HAL_Driver/Src/stm32h7xx_hal_dma.c **** 
 5594              		.loc 1 1635 0
 5595 0062 7047     		bx	lr
 5596              		.cfi_endproc
 5597              	.LFE152:
 5599              		.section	.text.HAL_DMA_UnRegisterCallback,"ax",%progbits
 5600              		.align	1
 5601              		.global	HAL_DMA_UnRegisterCallback
 5602              		.syntax unified
 5603              		.thumb
 5604              		.thumb_func
 5605              		.fpu fpv5-d16
 5607              	HAL_DMA_UnRegisterCallback:
 5608              	.LFB153:
1646:Drivers/STM32H7xx_HAL_Driver/Src/stm32h7xx_hal_dma.c ****   HAL_StatusTypeDef status = HAL_OK;
 5609              		.loc 1 1646 0
ARM GAS  /tmp/ccBO8Lmd.s 			page 154


 5610              		.cfi_startproc
 5611              		@ args = 0, pretend = 0, frame = 0
 5612              		@ frame_needed = 0, uses_anonymous_args = 0
 5613              		@ link register save eliminated.
 5614              	.LVL230:
1650:Drivers/STM32H7xx_HAL_Driver/Src/stm32h7xx_hal_dma.c ****   {
 5615              		.loc 1 1650 0
 5616 0000 0346     		mov	r3, r0
 5617 0002 0028     		cmp	r0, #0
 5618 0004 34D0     		beq	.L337
1656:Drivers/STM32H7xx_HAL_Driver/Src/stm32h7xx_hal_dma.c **** 
 5619              		.loc 1 1656 0
 5620 0006 90F83420 		ldrb	r2, [r0, #52]	@ zero_extendqisi2
 5621 000a 012A     		cmp	r2, #1
 5622 000c 32D0     		beq	.L338
1656:Drivers/STM32H7xx_HAL_Driver/Src/stm32h7xx_hal_dma.c **** 
 5623              		.loc 1 1656 0 is_stmt 0 discriminator 2
 5624 000e 0122     		movs	r2, #1
 5625 0010 80F83420 		strb	r2, [r0, #52]
1658:Drivers/STM32H7xx_HAL_Driver/Src/stm32h7xx_hal_dma.c ****   {
 5626              		.loc 1 1658 0 is_stmt 1 discriminator 2
 5627 0014 90F83520 		ldrb	r2, [r0, #53]	@ zero_extendqisi2
 5628 0018 D2B2     		uxtb	r2, r2
 5629 001a 012A     		cmp	r2, #1
 5630 001c 04D0     		beq	.L341
1702:Drivers/STM32H7xx_HAL_Driver/Src/stm32h7xx_hal_dma.c ****   }
 5631              		.loc 1 1702 0
 5632 001e 0120     		movs	r0, #1
 5633              	.LVL231:
 5634              	.L328:
1706:Drivers/STM32H7xx_HAL_Driver/Src/stm32h7xx_hal_dma.c **** 
 5635              		.loc 1 1706 0
 5636 0020 0022     		movs	r2, #0
 5637 0022 83F83420 		strb	r2, [r3, #52]
1708:Drivers/STM32H7xx_HAL_Driver/Src/stm32h7xx_hal_dma.c **** }
 5638              		.loc 1 1708 0
 5639 0026 7047     		bx	lr
 5640              	.LVL232:
 5641              	.L341:
1660:Drivers/STM32H7xx_HAL_Driver/Src/stm32h7xx_hal_dma.c ****     {
 5642              		.loc 1 1660 0
 5643 0028 0629     		cmp	r1, #6
 5644 002a 1FD8     		bhi	.L340
 5645 002c DFE801F0 		tbb	[pc, r1]
 5646              	.L330:
 5647 0030 04       		.byte	(.L329-.L330)/2
 5648 0031 07       		.byte	(.L331-.L330)/2
 5649 0032 0A       		.byte	(.L332-.L330)/2
 5650 0033 0D       		.byte	(.L333-.L330)/2
 5651 0034 10       		.byte	(.L334-.L330)/2
 5652 0035 13       		.byte	(.L335-.L330)/2
 5653 0036 16       		.byte	(.L336-.L330)/2
 5654 0037 00       		.p2align 1
 5655              	.L329:
1663:Drivers/STM32H7xx_HAL_Driver/Src/stm32h7xx_hal_dma.c ****       break;
 5656              		.loc 1 1663 0
 5657 0038 0020     		movs	r0, #0
ARM GAS  /tmp/ccBO8Lmd.s 			page 155


 5658              	.LVL233:
 5659 003a D863     		str	r0, [r3, #60]
1664:Drivers/STM32H7xx_HAL_Driver/Src/stm32h7xx_hal_dma.c **** 
 5660              		.loc 1 1664 0
 5661 003c F0E7     		b	.L328
 5662              	.LVL234:
 5663              	.L331:
1667:Drivers/STM32H7xx_HAL_Driver/Src/stm32h7xx_hal_dma.c ****       break;
 5664              		.loc 1 1667 0
 5665 003e 0020     		movs	r0, #0
 5666              	.LVL235:
 5667 0040 1864     		str	r0, [r3, #64]
1668:Drivers/STM32H7xx_HAL_Driver/Src/stm32h7xx_hal_dma.c **** 
 5668              		.loc 1 1668 0
 5669 0042 EDE7     		b	.L328
 5670              	.LVL236:
 5671              	.L332:
1671:Drivers/STM32H7xx_HAL_Driver/Src/stm32h7xx_hal_dma.c ****       break;
 5672              		.loc 1 1671 0
 5673 0044 0020     		movs	r0, #0
 5674              	.LVL237:
 5675 0046 5864     		str	r0, [r3, #68]
1672:Drivers/STM32H7xx_HAL_Driver/Src/stm32h7xx_hal_dma.c **** 
 5676              		.loc 1 1672 0
 5677 0048 EAE7     		b	.L328
 5678              	.LVL238:
 5679              	.L333:
1675:Drivers/STM32H7xx_HAL_Driver/Src/stm32h7xx_hal_dma.c ****       break;
 5680              		.loc 1 1675 0
 5681 004a 0020     		movs	r0, #0
 5682              	.LVL239:
 5683 004c 9864     		str	r0, [r3, #72]
1676:Drivers/STM32H7xx_HAL_Driver/Src/stm32h7xx_hal_dma.c **** 
 5684              		.loc 1 1676 0
 5685 004e E7E7     		b	.L328
 5686              	.LVL240:
 5687              	.L334:
1679:Drivers/STM32H7xx_HAL_Driver/Src/stm32h7xx_hal_dma.c ****       break;
 5688              		.loc 1 1679 0
 5689 0050 0020     		movs	r0, #0
 5690              	.LVL241:
 5691 0052 D864     		str	r0, [r3, #76]
1680:Drivers/STM32H7xx_HAL_Driver/Src/stm32h7xx_hal_dma.c **** 
 5692              		.loc 1 1680 0
 5693 0054 E4E7     		b	.L328
 5694              	.LVL242:
 5695              	.L335:
1683:Drivers/STM32H7xx_HAL_Driver/Src/stm32h7xx_hal_dma.c ****       break;
 5696              		.loc 1 1683 0
 5697 0056 0020     		movs	r0, #0
 5698              	.LVL243:
 5699 0058 1865     		str	r0, [r3, #80]
1684:Drivers/STM32H7xx_HAL_Driver/Src/stm32h7xx_hal_dma.c **** 
 5700              		.loc 1 1684 0
 5701 005a E1E7     		b	.L328
 5702              	.LVL244:
 5703              	.L336:
ARM GAS  /tmp/ccBO8Lmd.s 			page 156


1687:Drivers/STM32H7xx_HAL_Driver/Src/stm32h7xx_hal_dma.c ****       hdma->XferHalfCpltCallback = NULL;
 5704              		.loc 1 1687 0
 5705 005c 0020     		movs	r0, #0
 5706              	.LVL245:
 5707 005e D863     		str	r0, [r3, #60]
1688:Drivers/STM32H7xx_HAL_Driver/Src/stm32h7xx_hal_dma.c ****       hdma->XferM1CpltCallback = NULL;
 5708              		.loc 1 1688 0
 5709 0060 1864     		str	r0, [r3, #64]
1689:Drivers/STM32H7xx_HAL_Driver/Src/stm32h7xx_hal_dma.c ****       hdma->XferM1HalfCpltCallback = NULL;
 5710              		.loc 1 1689 0
 5711 0062 5864     		str	r0, [r3, #68]
1690:Drivers/STM32H7xx_HAL_Driver/Src/stm32h7xx_hal_dma.c ****       hdma->XferErrorCallback = NULL;
 5712              		.loc 1 1690 0
 5713 0064 9864     		str	r0, [r3, #72]
1691:Drivers/STM32H7xx_HAL_Driver/Src/stm32h7xx_hal_dma.c ****       hdma->XferAbortCallback = NULL;
 5714              		.loc 1 1691 0
 5715 0066 D864     		str	r0, [r3, #76]
1692:Drivers/STM32H7xx_HAL_Driver/Src/stm32h7xx_hal_dma.c ****       break;
 5716              		.loc 1 1692 0
 5717 0068 1865     		str	r0, [r3, #80]
1693:Drivers/STM32H7xx_HAL_Driver/Src/stm32h7xx_hal_dma.c **** 
 5718              		.loc 1 1693 0
 5719 006a D9E7     		b	.L328
 5720              	.LVL246:
 5721              	.L340:
1696:Drivers/STM32H7xx_HAL_Driver/Src/stm32h7xx_hal_dma.c ****       break;
 5722              		.loc 1 1696 0
 5723 006c 0120     		movs	r0, #1
 5724              	.LVL247:
 5725 006e D7E7     		b	.L328
 5726              	.LVL248:
 5727              	.L337:
1652:Drivers/STM32H7xx_HAL_Driver/Src/stm32h7xx_hal_dma.c ****   }
 5728              		.loc 1 1652 0
 5729 0070 0120     		movs	r0, #1
 5730              	.LVL249:
 5731 0072 7047     		bx	lr
 5732              	.LVL250:
 5733              	.L338:
1656:Drivers/STM32H7xx_HAL_Driver/Src/stm32h7xx_hal_dma.c **** 
 5734              		.loc 1 1656 0
 5735 0074 0220     		movs	r0, #2
 5736              	.LVL251:
1709:Drivers/STM32H7xx_HAL_Driver/Src/stm32h7xx_hal_dma.c **** 
 5737              		.loc 1 1709 0
 5738 0076 7047     		bx	lr
 5739              		.cfi_endproc
 5740              	.LFE153:
 5742              		.section	.text.HAL_DMA_GetState,"ax",%progbits
 5743              		.align	1
 5744              		.global	HAL_DMA_GetState
 5745              		.syntax unified
 5746              		.thumb
 5747              		.thumb_func
 5748              		.fpu fpv5-d16
 5750              	HAL_DMA_GetState:
 5751              	.LFB154:
ARM GAS  /tmp/ccBO8Lmd.s 			page 157


1737:Drivers/STM32H7xx_HAL_Driver/Src/stm32h7xx_hal_dma.c ****   return hdma->State;
 5752              		.loc 1 1737 0
 5753              		.cfi_startproc
 5754              		@ args = 0, pretend = 0, frame = 0
 5755              		@ frame_needed = 0, uses_anonymous_args = 0
 5756              		@ link register save eliminated.
 5757              	.LVL252:
1738:Drivers/STM32H7xx_HAL_Driver/Src/stm32h7xx_hal_dma.c **** }
 5758              		.loc 1 1738 0
 5759 0000 90F83500 		ldrb	r0, [r0, #53]	@ zero_extendqisi2
 5760              	.LVL253:
1739:Drivers/STM32H7xx_HAL_Driver/Src/stm32h7xx_hal_dma.c **** 
 5761              		.loc 1 1739 0
 5762 0004 7047     		bx	lr
 5763              		.cfi_endproc
 5764              	.LFE154:
 5766              		.section	.text.HAL_DMA_GetError,"ax",%progbits
 5767              		.align	1
 5768              		.global	HAL_DMA_GetError
 5769              		.syntax unified
 5770              		.thumb
 5771              		.thumb_func
 5772              		.fpu fpv5-d16
 5774              	HAL_DMA_GetError:
 5775              	.LFB155:
1748:Drivers/STM32H7xx_HAL_Driver/Src/stm32h7xx_hal_dma.c ****   return hdma->ErrorCode;
 5776              		.loc 1 1748 0
 5777              		.cfi_startproc
 5778              		@ args = 0, pretend = 0, frame = 0
 5779              		@ frame_needed = 0, uses_anonymous_args = 0
 5780              		@ link register save eliminated.
 5781              	.LVL254:
1749:Drivers/STM32H7xx_HAL_Driver/Src/stm32h7xx_hal_dma.c **** }
 5782              		.loc 1 1749 0
 5783 0000 406D     		ldr	r0, [r0, #84]
 5784              	.LVL255:
1750:Drivers/STM32H7xx_HAL_Driver/Src/stm32h7xx_hal_dma.c **** 
 5785              		.loc 1 1750 0
 5786 0002 7047     		bx	lr
 5787              		.cfi_endproc
 5788              	.LFE155:
 5790              		.section	.rodata.flagBitshiftOffset.10790,"a",%progbits
 5791              		.align	2
 5792              		.set	.LANCHOR0,. + 0
 5795              	flagBitshiftOffset.10790:
 5796 0000 00       		.byte	0
 5797 0001 06       		.byte	6
 5798 0002 10       		.byte	16
 5799 0003 16       		.byte	22
 5800 0004 00       		.byte	0
 5801 0005 06       		.byte	6
 5802 0006 10       		.byte	16
 5803 0007 16       		.byte	22
 5804              		.text
 5805              	.Letext0:
 5806              		.file 2 "/opt/gcc-arm-none-eabi-7-2017-q4-major/arm-none-eabi/include/machine/_default_types.h"
 5807              		.file 3 "/opt/gcc-arm-none-eabi-7-2017-q4-major/arm-none-eabi/include/sys/_stdint.h"
ARM GAS  /tmp/ccBO8Lmd.s 			page 158


 5808              		.file 4 "Drivers/CMSIS/Include/core_cm7.h"
 5809              		.file 5 "Drivers/CMSIS/Device/ST/STM32H7xx/Include/system_stm32h7xx.h"
 5810              		.file 6 "Drivers/CMSIS/Device/ST/STM32H7xx/Include/stm32h743xx.h"
 5811              		.file 7 "/opt/gcc-arm-none-eabi-7-2017-q4-major/arm-none-eabi/include/sys/lock.h"
 5812              		.file 8 "/opt/gcc-arm-none-eabi-7-2017-q4-major/arm-none-eabi/include/sys/_types.h"
 5813              		.file 9 "/opt/gcc-arm-none-eabi-7-2017-q4-major/lib/gcc/arm-none-eabi/7.2.1/include/stddef.h"
 5814              		.file 10 "/opt/gcc-arm-none-eabi-7-2017-q4-major/arm-none-eabi/include/sys/reent.h"
 5815              		.file 11 "/opt/gcc-arm-none-eabi-7-2017-q4-major/arm-none-eabi/include/math.h"
 5816              		.file 12 "Drivers/STM32H7xx_HAL_Driver/Inc/stm32h7xx_hal_def.h"
 5817              		.file 13 "Drivers/STM32H7xx_HAL_Driver/Inc/stm32h7xx_hal_dma.h"
 5818              		.file 14 "Drivers/STM32H7xx_HAL_Driver/Inc/stm32h7xx_hal_flash.h"
 5819              		.file 15 "Drivers/STM32H7xx_HAL_Driver/Inc/stm32h7xx_hal.h"
ARM GAS  /tmp/ccBO8Lmd.s 			page 159


DEFINED SYMBOLS
                            *ABS*:0000000000000000 stm32h7xx_hal_dma.c
     /tmp/ccBO8Lmd.s:17     .text.DMA_SetConfig:0000000000000000 $t
     /tmp/ccBO8Lmd.s:23     .text.DMA_SetConfig:0000000000000000 DMA_SetConfig
     /tmp/ccBO8Lmd.s:335    .text.DMA_SetConfig:000000000000019c $d
     /tmp/ccBO8Lmd.s:344    .text.DMA_CalcBaseAndBitshift:0000000000000000 $t
     /tmp/ccBO8Lmd.s:350    .text.DMA_CalcBaseAndBitshift:0000000000000000 DMA_CalcBaseAndBitshift
     /tmp/ccBO8Lmd.s:483    .text.DMA_CalcBaseAndBitshift:00000000000000a4 $d
     /tmp/ccBO8Lmd.s:493    .text.DMA_CheckFifoParam:0000000000000000 $t
     /tmp/ccBO8Lmd.s:499    .text.DMA_CheckFifoParam:0000000000000000 DMA_CheckFifoParam
     /tmp/ccBO8Lmd.s:564    .text.DMA_CheckFifoParam:000000000000004a $d
     /tmp/ccBO8Lmd.s:568    .text.DMA_CheckFifoParam:000000000000004e $t
     /tmp/ccBO8Lmd.s:651    .text.DMA_CalcDMAMUXChannelBaseAndMask:0000000000000000 $t
     /tmp/ccBO8Lmd.s:657    .text.DMA_CalcDMAMUXChannelBaseAndMask:0000000000000000 DMA_CalcDMAMUXChannelBaseAndMask
     /tmp/ccBO8Lmd.s:763    .text.DMA_CalcDMAMUXChannelBaseAndMask:000000000000008c $d
     /tmp/ccBO8Lmd.s:776    .text.DMA_CalcDMAMUXRequestGenBaseAndMask:0000000000000000 $t
     /tmp/ccBO8Lmd.s:782    .text.DMA_CalcDMAMUXRequestGenBaseAndMask:0000000000000000 DMA_CalcDMAMUXRequestGenBaseAndMask
     /tmp/ccBO8Lmd.s:870    .text.DMA_CalcDMAMUXRequestGenBaseAndMask:0000000000000064 $d
     /tmp/ccBO8Lmd.s:880    .text.HAL_DMA_Init:0000000000000000 $t
     /tmp/ccBO8Lmd.s:887    .text.HAL_DMA_Init:0000000000000000 HAL_DMA_Init
     /tmp/ccBO8Lmd.s:1413   .text.HAL_DMA_Init:00000000000002f0 $d
     /tmp/ccBO8Lmd.s:1424   .text.HAL_DMA_Init:0000000000000318 $t
     /tmp/ccBO8Lmd.s:1510   .text.HAL_DMA_Init:000000000000038c $d
     /tmp/ccBO8Lmd.s:1516   .text.HAL_DMA_DeInit:0000000000000000 $t
     /tmp/ccBO8Lmd.s:1523   .text.HAL_DMA_DeInit:0000000000000000 HAL_DMA_DeInit
     /tmp/ccBO8Lmd.s:1855   .text.HAL_DMA_DeInit:00000000000001c0 $d
     /tmp/ccBO8Lmd.s:1864   .text.HAL_DMA_Start:0000000000000000 $t
     /tmp/ccBO8Lmd.s:1871   .text.HAL_DMA_Start:0000000000000000 HAL_DMA_Start
     /tmp/ccBO8Lmd.s:2111   .text.HAL_DMA_Start:0000000000000140 $d
     /tmp/ccBO8Lmd.s:2117   .text.HAL_DMA_Start_IT:0000000000000000 $t
     /tmp/ccBO8Lmd.s:2124   .text.HAL_DMA_Start_IT:0000000000000000 HAL_DMA_Start_IT
     /tmp/ccBO8Lmd.s:2572   .text.HAL_DMA_Start_IT:000000000000028c $d
     /tmp/ccBO8Lmd.s:2579   .text.HAL_DMA_Abort:0000000000000000 $t
     /tmp/ccBO8Lmd.s:2586   .text.HAL_DMA_Abort:0000000000000000 HAL_DMA_Abort
     /tmp/ccBO8Lmd.s:2993   .text.HAL_DMA_Abort:000000000000025c $d
     /tmp/ccBO8Lmd.s:2999   .text.HAL_DMA_Abort:0000000000000268 $t
     /tmp/ccBO8Lmd.s:3139   .text.HAL_DMA_Abort:0000000000000334 $d
     /tmp/ccBO8Lmd.s:3146   .text.HAL_DMA_Abort_IT:0000000000000000 $t
     /tmp/ccBO8Lmd.s:3153   .text.HAL_DMA_Abort_IT:0000000000000000 HAL_DMA_Abort_IT
     /tmp/ccBO8Lmd.s:3583   .text.HAL_DMA_Abort_IT:0000000000000284 $d
     /tmp/ccBO8Lmd.s:3591   .text.HAL_DMA_PollForTransfer:0000000000000000 $t
     /tmp/ccBO8Lmd.s:3598   .text.HAL_DMA_PollForTransfer:0000000000000000 HAL_DMA_PollForTransfer
     /tmp/ccBO8Lmd.s:4092   .text.HAL_DMA_PollForTransfer:0000000000000310 $d
     /tmp/ccBO8Lmd.s:4097   .text.HAL_DMA_PollForTransfer:000000000000031c $t
     /tmp/ccBO8Lmd.s:4278   .text.HAL_DMA_PollForTransfer:0000000000000438 $d
     /tmp/ccBO8Lmd.s:4284   .text.HAL_DMA_IRQHandler:0000000000000000 $t
     /tmp/ccBO8Lmd.s:4291   .text.HAL_DMA_IRQHandler:0000000000000000 HAL_DMA_IRQHandler
     /tmp/ccBO8Lmd.s:4718   .text.HAL_DMA_IRQHandler:0000000000000294 $d
     /tmp/ccBO8Lmd.s:4728   .text.HAL_DMA_IRQHandler:00000000000002b4 $t
     /tmp/ccBO8Lmd.s:5142   .text.HAL_DMA_IRQHandler:000000000000053c $d
     /tmp/ccBO8Lmd.s:5146   .text.HAL_DMA_IRQHandler:0000000000000544 $t
     /tmp/ccBO8Lmd.s:5478   .text.HAL_DMA_IRQHandler:0000000000000730 $d
     /tmp/ccBO8Lmd.s:5484   .text.HAL_DMA_RegisterCallback:0000000000000000 $t
     /tmp/ccBO8Lmd.s:5491   .text.HAL_DMA_RegisterCallback:0000000000000000 HAL_DMA_RegisterCallback
     /tmp/ccBO8Lmd.s:5532   .text.HAL_DMA_RegisterCallback:000000000000002e $d
     /tmp/ccBO8Lmd.s:5538   .text.HAL_DMA_RegisterCallback:0000000000000034 $t
     /tmp/ccBO8Lmd.s:5600   .text.HAL_DMA_UnRegisterCallback:0000000000000000 $t
ARM GAS  /tmp/ccBO8Lmd.s 			page 160


     /tmp/ccBO8Lmd.s:5607   .text.HAL_DMA_UnRegisterCallback:0000000000000000 HAL_DMA_UnRegisterCallback
     /tmp/ccBO8Lmd.s:5647   .text.HAL_DMA_UnRegisterCallback:0000000000000030 $d
     /tmp/ccBO8Lmd.s:5743   .text.HAL_DMA_GetState:0000000000000000 $t
     /tmp/ccBO8Lmd.s:5750   .text.HAL_DMA_GetState:0000000000000000 HAL_DMA_GetState
     /tmp/ccBO8Lmd.s:5767   .text.HAL_DMA_GetError:0000000000000000 $t
     /tmp/ccBO8Lmd.s:5774   .text.HAL_DMA_GetError:0000000000000000 HAL_DMA_GetError
     /tmp/ccBO8Lmd.s:5791   .rodata.flagBitshiftOffset.10790:0000000000000000 $d
     /tmp/ccBO8Lmd.s:5795   .rodata.flagBitshiftOffset.10790:0000000000000000 flagBitshiftOffset.10790
     /tmp/ccBO8Lmd.s:5654   .text.HAL_DMA_UnRegisterCallback:0000000000000037 $d
     /tmp/ccBO8Lmd.s:5654   .text.HAL_DMA_UnRegisterCallback:0000000000000038 $t

UNDEFINED SYMBOLS
HAL_GetTick
SystemCoreClock
